Certificate:
    Data:
        Version: 3 (0x2)
        Serial Number: 1234567890 (0x499602d2)
        Signature Algorithm: sha256WithRSAEncryption
        Issuer: CN=ca.example.com
        Validity
            Not Before: Aug 25 05:06:50 2024 GMT
            Not After : Aug 25 05:06:50 2025 GMT
        Subject: CN=test.example.com
        Subject Public Key Info:
            Public Key Algorithm: rsaEncryption
                Public-Key: (2048 bit)
                Modulus:
                    00:a5:a6:e0:17:bd:ee:92:00:8f:3b:bf:37:03:fa:
                    da:2b:3d:a4:4c:e0:4c:5d:b2:bc:1b:e0:a2:76:aa:
                    f8:36:a5:1f:16:ea:08:c4:0b:68:2a:8f:50:6e:d7:
                    d3:90:d9:9b:a1:dd:28:22:ca:f5:39:f2:dc:6a:8a:
                    13:be:f9:5c:8d:18:78:ad:b8:71:78:44:ea:10:1a:
                    e4:17:8d:d8:87:ef:a6:6e:8e:b2:cb:a5:0a:36:f2:
                    63:52:0b:06:d4:46:56:d2:b0:d9:70:35:05:d3:75:
                    8c:60:c6:f7:91:ee:2f:ae:8e:66:0e:63:0d:6a:dd:
                    12:2f:dd:a8:6a:6c:45:c2:d0:26:16:87:5d:cc:ae:
                    41:77:15:90:b9:99:49:6d:44:94:6c:c2:df:77:49:
                    22:52:ae:c4:74:4c:65:9e:35:42:3d:e6:5b:ef:8f:
                    c6:56:6b:90:9b:d9:f6:24:95:63:e6:44:91:2b:69:
                    b7:2e:61:85:76:cb:b6:3e:10:e7:cd:45:41:e9:16:
                    89:4d:76:85:0e:8d:0b:21:ad:aa:ea:7b:79:c2:6e:
                    e5:1d:82:03:0b:9b:2a:a7:ae:60:e4:7b:50:bb:7a:
                    5d:96:02:33:69:a7:8c:cf:d3:5b:40:5e:41:72:c3:
                    e2:db:5c:df:6d:fb:08:84:40:80:a8:d1:77:e0:15:
                    b3:f3
                Exponent: 65537 (0x10001)
        X509v3 extensions:
            X509v3 Subject Key Identifier: 
                1D:1D:37:21:89:3D:F4:C9:AE:AD:B0:1B:B9:5E:33:F7:20:A8:BB:5A
            X509v3 Authority Key Identifier: 
                1D:1D:37:21:89:3D:F4:C9:AE:AD:B0:1B:B9:5E:33:F7:20:A8:BB:5A
            X509v3 Basic Constraints: critical
                CA:TRUE
    Signature Algorithm: sha256WithRSAEncryption
    Signature Value:
        4d:27:5e:fe:74:68:77:b0:36:fb:05:3f:a6:ec:0d:00:37:87:
        cf:75:f5:d6:00:84:02:05:51:fb:eb:c6:08:ac:cc:df:cf:35:
        83:cc:ed:f7:f4:e2:92:1e:b4:1c:2c:e7:91:1b:d2:ec:43:38:
        98:db:d8:c6:c0:7d:03:59:b1:af:53:20:58:96:50:72:b4:c8:
        75:b8:4c:5a:73:c7:98:83:08:5e:97:6c:df:44:5a:b3:0c:5d:
        1b:19:c1:0e:53:db:5f:d6:42:e8:c6:7c:e6:0e:3b:9d:54:34:
        b5:d0:29:cf:b5:2a:2f:5a:b1:16:54:3c:07:6e:b0:93:c8:ee:
        8b:6e:c1:74:bf:0a:32:57:cb:da:41:0f:f8:3b:b3:db:bc:54:
        e8:99:c0:ce:cd:e2:bc:b8:61:7b:27:b9:6e:e1:ef:31:11:e5:
        fc:81:c6:c3:7e:ee:4a:e0:05:9c:27:7f:ef:ce:61:65:9d:f1:
        20:7f:06:61:7f:73:a1:08:04:3a:ef:f7:e1:07:8e:6a:39:c9:
        dd:a0:d3:02:3b:34:19:f1:4b:c5:be:28:3e:3f:8a:69:a9:80:
        73:01:04:e5:88:7a:37:53:d7:e7:2c:3c:85:bc:9e:8d:ef:c0:
        6d:b3:5b:98:5a:ba:08:f5:ee:5c:73:07:58:a2:33:31:a0:3e:
        d9:4c:61:bc:ea:9f:ef:db:2c:31:3d:fa:c3:19:bc:0a:89:06:
        6a:90:d1:c8:1d:ca:ab:e1:05:6c:b6:bf:85:08:5a:e7:27:7d:
        43:33:8f:e3:37:c2:a8:d6:55:3d:97:9b:20:ba:d8:df:4e:99:
        54:2a:8d:6a:3e:6b:24:80:6d:11:6f:b6:49:03:71:4a:03:4d:
        cd:a0:78:8f:cb:a0:7b:bf:39:0c:64:41:76:28:32:4b:95:8d:
        df:11:7d:44:8c:54:56:5c:77:b1:5b:cb:81:b6:05:c8:6d:62:
        31:53:68:ca:c5:27:26:b7:91:2f:aa:8e:43:77:11:0f:e2:68:
        a5:cd:ca:3c:2d:d4:73:6a:bc:5d:5d:94:94:7a:0f:7f:fb:1e:
        7e:7a:e0:c4:11:72:d8:9e:bb:a6:fa:c7:9a:22:59:d2:d3:a1:
        e0:d5:c2:50:bb:c7:f8:ad:cd:f2:3f:b0:b7:8e:ef:8e:8b:0d:
        df:cc:36:cb:05:f7:81:b7:83:0f:92:47:4b:dd:e4:fa:b2:d7:
        6b:8d:b3:e1:50:25:04:ed:63:b3:af:ec:a5:60:95:56:56:d2:
        a7:95:84:7b:83:8e:e8:54:e5:91:f6:f1:7c:bc:f0:e4:44:be:
        98:c2:46:50:39:18:4b:ae:8d:4d:90:8f:09:37:d0:0a:00:ec:
        72:7e:e7:1d:37:63:bb:e3
-----BEGIN CERTIFICATE-----
MIIEBTCCAe2gAwIBAgIESZYC0jANBgkqhkiG9w0BAQsFADAZMRcwFQYDVQQDDA5j
YS5leGFtcGxlLmNvbTAeFw0yNDA4MjUwNTA2NTBaFw0yNTA4MjUwNTA2NTBaMBsx
GTAXBgNVBAMMEHRlc3QuZXhhbXBsZS5jb20wggEiMA0GCSqGSIb3DQEBAQUAA4IB
DwAwggEKAoIBAQClpuAXve6SAI87vzcD+torPaRM4Exdsrwb4KJ2qvg2pR8W6gjE
C2gqj1Bu19OQ2Zuh3SgiyvU58txqihO++VyNGHituHF4ROoQGuQXjdiH76ZujrLL
pQo28mNSCwbURlbSsNlwNQXTdYxgxveR7i+ujmYOYw1q3RIv3ahqbEXC0CYWh13M
rkF3FZC5mUltRJRswt93SSJSrsR0TGWeNUI95lvvj8ZWa5Cb2fYklWPmRJErabcu
YYV2y7Y+EOfNRUHpFolNdoUOjQshrarqe3nCbuUdggMLmyqnrmDke1C7el2WAjNp
p4zP01tAXkFyw+LbXN9t+wiEQICo0XfgFbPzAgMBAAGjUzBRMB0GA1UdDgQWBBQd
HTchiT30ya6tsBu5XjP3IKi7WjAfBgNVHSMEGDAWgBQdHTchiT30ya6tsBu5XjP3
IKi7WjAPBgNVHRMBAf8EBTADAQH/MA0GCSqGSIb3DQEBCwUAA4ICAQBNJ17+dGh3
sDb7BT+m7A0AN4fPdfXWAIQCBVH768YIrMzfzzWDzO339OKSHrQcLOeRG9LsQziY
29jGwH0DWbGvUyBYllBytMh1uExac8eYgwhel2zfRFqzDF0bGcEOU9tf1kLoxnzm
DjudVDS10CnPtSovWrEWVDwHbrCTyO6LbsF0vwoyV8vaQQ/4O7PbvFTomcDOzeK8
uGF7J7lu4e8xEeX8gcbDfu5K4AWcJ3/vzmFlnfEgfwZhf3OhCAQ67/fhB45qOcnd
oNMCOzQZ8UvFvig+P4ppqYBzAQTliHo3U9fnLDyFvJ6N78Bts1uYWroI9e5ccwdY
ojMxoD7ZTGG86p/v2ywxPfrDGbwKiQZqkNHIHcqr4QVstr+FCFrnJ31DM4/jN8Ko
1lU9l5sgutjfTplUKo1qPmskgG0Rb7ZJA3FKA03NoHiPy6B7vzkMZEF2KDJLlY3f
EX1EjFRWXHexW8uBtgXIbWIxU2jKxScmt5Evqo5DdxEP4milzco8LdRzarxdXZSU
eg9/+x5+euDEEXLYnrum+seaIlnS06Hg1cJQu8f4rc3yP7C3ju+Oiw3fzDbLBfeB
t4MPkkdL3eT6stdrjbPhUCUE7WOzr+ylYJVWVtKnlYR7g47oVOWR9vF8vPDkRL6Y
wkZQORhLro1NkI8JN9AKAOxyfucdN2O74w==
-----END CERTIFICATE-----
