Certificate:
    Data:
        Version: 3 (0x2)
        Serial Number:
            55:46:2a:54:0d:40:1f:3c:6b:29:7e:76:64:c6:92:7d:3f:50:e4:2e
        Signature Algorithm: sha256WithRSAEncryption
        Issuer: CN=ca.example.com
        Validity
            Not Before: Aug 25 05:06:50 2024 GMT
            Not After : Sep 24 05:06:50 2024 GMT
        Subject: CN=b.example.com
        Subject Public Key Info:
            Public Key Algorithm: rsaEncryption
                Public-Key: (4096 bit)
                Modulus:
                    00:bd:36:d4:3d:55:ac:f4:d3:1a:37:05:07:9e:7c:
                    3b:35:65:25:2e:6c:e1:81:a3:cf:26:da:ef:42:25:
                    48:59:93:7a:60:91:68:46:a3:5a:7e:d7:24:f0:2e:
                    dc:01:7f:e7:af:b5:27:36:ae:ca:f4:34:dc:78:e4:
                    c9:19:93:7a:f1:bf:01:69:2d:53:7d:15:2c:e8:90:
                    1c:92:11:b5:64:a8:63:0d:19:8a:fa:f2:5e:82:30:
                    b7:e5:20:b4:d8:9e:8c:b8:0c:4c:34:22:b7:a6:1c:
                    79:60:e3:ce:b2:48:4c:24:61:37:0d:db:3d:e7:83:
                    16:32:f3:6c:b0:de:7c:48:b8:65:06:09:bb:b7:de:
                    ca:eb:87:c1:26:a5:86:7e:2b:f6:9b:ce:7a:b7:2f:
                    33:14:3a:6b:79:bb:b5:7a:fe:8a:82:c8:d8:0d:1e:
                    8f:88:b5:21:f0:5b:ae:38:df:e3:a5:8f:c1:00:76:
                    11:ca:81:46:35:4f:66:3d:16:06:02:e8:db:78:18:
                    24:4f:1a:59:73:aa:93:bf:26:2a:0e:d1:91:fa:3c:
                    19:2f:f7:95:33:d5:e7:8f:4c:f7:1e:a5:b4:1f:16:
                    31:27:c5:8c:6a:4b:2e:f2:27:50:c9:8b:0b:1f:7a:
                    ec:a7:08:84:25:49:bd:34:82:35:97:34:28:fc:10:
                    83:6a:49:b0:b4:c3:2c:e0:90:cf:f4:d1:a6:80:12:
                    a6:5b:a8:2b:aa:c6:eb:62:c6:c8:0b:ee:36:2e:4e:
                    7b:2a:c7:0c:ab:65:60:04:1b:27:28:a4:0e:ec:1f:
                    be:75:94:a3:e9:1e:21:f0:7e:81:c4:bf:37:36:5b:
                    74:ba:72:ff:8d:85:22:76:78:24:8a:89:5c:98:f2:
                    37:b1:aa:c9:a6:5b:65:a3:33:46:0c:99:fc:73:88:
                    68:6d:8d:9d:9c:df:4e:69:6f:30:cf:02:2d:a5:af:
                    1d:a7:4c:29:2d:b1:9a:ad:4d:aa:58:ff:8d:fa:66:
                    c6:43:4e:a6:40:24:ff:46:73:65:35:c2:b5:f4:78:
                    14:09:1a:56:38:5e:06:ba:d5:19:db:41:96:85:68:
                    f0:25:af:16:b1:17:86:13:22:d2:f4:83:88:00:4e:
                    64:24:83:62:16:42:6b:dc:89:f4:be:ac:55:af:8f:
                    7c:0c:6d:f9:c5:05:9c:af:c3:0b:99:83:71:73:fe:
                    54:37:fc:68:af:42:8b:45:70:97:0c:61:de:90:95:
                    e1:a7:5a:da:fb:b0:d2:e4:5d:c8:20:d8:1a:ea:f8:
                    46:dc:16:e5:aa:cd:04:0f:1f:a3:33:c8:c1:cc:a6:
                    a6:c3:0b:6e:91:ef:39:02:6d:93:f1:9c:0a:5d:6d:
                    20:d3:39
                Exponent: 65537 (0x10001)
        X509v3 extensions:
            X509v3 Subject Key Identifier: 
                2D:67:18:9E:2C:8C:F5:B0:FB:B0:14:86:82:12:09:AC:BC:6B:02:ED
            X509v3 Authority Key Identifier: 
                EC:4A:CA:34:5C:3B:4B:D6:5B:C1:27:7D:EC:4B:71:66:0F:4A:EB:D2
    Signature Algorithm: sha256WithRSAEncryption
    Signature Value:
        c4:e5:a6:e6:1f:ae:82:a6:6e:99:ad:bc:d6:f5:a4:ce:7d:b4:
        d9:c0:14:94:31:b5:25:46:91:6e:65:27:b0:4b:50:e8:47:67:
        8c:d6:1f:76:bb:24:5b:13:ca:c4:51:51:69:bc:ff:dc:72:ca:
        5a:f4:d3:98:09:4b:7f:07:f2:24:5a:b8:a4:6d:5e:7c:5f:2d:
        8f:e8:05:3c:f6:59:1b:be:76:3d:ae:f8:80:08:df:5b:11:d6:
        60:d4:ce:e3:3f:b3:5c:b3:8e:c5:21:14:91:b9:18:3a:88:37:
        8f:e7:34:e8:3f:3a:39:76:38:71:2e:01:aa:4e:1a:65:17:bf:
        91:aa:19:08:9f:24:db:65:5c:b0:87:1f:c8:55:51:40:9f:d1:
        51:0b:0c:9b:9d:08:c8:36:69:34:9d:37:c7:58:91:7f:45:9b:
        27:ec:d7:36:8b:f9:2a:be:d4:fd:fc:34:d8:81:c1:cf:8d:8c:
        d4:3e:c5:73:07:88:80:12:1c:dd:15:de:1a:00:2e:db:69:77:
        ad:28:b9:57:d5:c0:b9:8f:8d:c0:e3:54:46:7b:81:fd:15:3d:
        13:c1:b2:9b:98:c8:89:7a:34:ef:b2:bc:17:3d:46:a8:d8:a3:
        f3:df:57:6d:04:8f:02:1e:3b:2a:88:96:ef:1d:4b:38:7e:1b:
        1d:d8:68:cb:21:2d:a8:10:82:3f:61:58:c2:27:dc:0a:df:e0:
        0e:53:0b:0d:38:a6:43:44:12:57:15:21:bb:a5:2b:3e:7a:de:
        2e:67:97:41:11:f3:b0:78:9a:b3:cb:ff:c9:ea:30:34:4a:18:
        44:88:68:a4:30:ca:11:60:62:6d:65:8c:85:43:7f:4b:8b:ed:
        2b:a5:a6:62:f9:d2:24:bb:e7:11:70:e1:a4:3e:c6:ec:af:2b:
        5c:85:8d:a0:df:b5:ce:32:98:4f:0b:24:5c:8b:47:fe:af:8b:
        4f:6e:30:5a:28:52:15:15:60:c9:df:68:9f:97:cd:54:47:b5:
        ba:3b:7d:7b:75:7c:cc:96:04:14:d7:fa:ad:90:6b:5c:9d:4a:
        fa:36:20:b2:86:d3:76:ba:64:cc:09:20:17:60:be:d0:68:18:
        c1:03:d0:87:71:bc:d4:f4:16:9d:2a:40:56:ba:20:12:f1:90:
        5e:d8:9a:4f:09:c4:67:89:f9:b3:35:d0:85:2e:83:af:8e:87:
        ee:2d:23:08:f6:db:f0:ee:83:eb:ac:1e:ad:0e:ba:a0:3a:53:
        26:84:61:40:d2:8f:c7:3b:9d:48:3c:b9:d9:3a:25:29:04:20:
        c8:85:ac:d0:ee:c1:6c:6e:92:f1:14:67:f1:3d:db:f5:5d:66:
        ce:36:b4:8a:31:04:71:b7
-----BEGIN CERTIFICATE-----
MIIFATCCAumgAwIBAgIUVUYqVA1AHzxrKX52ZMaSfT9Q5C4wDQYJKoZIhvcNAQEL
BQAwGTEXMBUGA1UEAwwOY2EuZXhhbXBsZS5jb20wHhcNMjQwODI1MDUwNjUwWhcN
MjQwOTI0MDUwNjUwWjAYMRYwFAYDVQQDDA1iLmV4YW1wbGUuY29tMIICIjANBgkq
hkiG9w0BAQEFAAOCAg8AMIICCgKCAgEAvTbUPVWs9NMaNwUHnnw7NWUlLmzhgaPP
JtrvQiVIWZN6YJFoRqNaftck8C7cAX/nr7UnNq7K9DTceOTJGZN68b8BaS1TfRUs
6JAckhG1ZKhjDRmK+vJegjC35SC02J6MuAxMNCK3phx5YOPOskhMJGE3Dds954MW
MvNssN58SLhlBgm7t97K64fBJqWGfiv2m856ty8zFDprebu1ev6KgsjYDR6PiLUh
8FuuON/jpY/BAHYRyoFGNU9mPRYGAujbeBgkTxpZc6qTvyYqDtGR+jwZL/eVM9Xn
j0z3HqW0HxYxJ8WMaksu8idQyYsLH3rspwiEJUm9NII1lzQo/BCDakmwtMMs4JDP
9NGmgBKmW6grqsbrYsbIC+42Lk57KscMq2VgBBsnKKQO7B++dZSj6R4h8H6BxL83
Nlt0unL/jYUidngkiolcmPI3sarJpltlozNGDJn8c4hobY2dnN9OaW8wzwItpa8d
p0wpLbGarU2qWP+N+mbGQ06mQCT/RnNlNcK19HgUCRpWOF4GutUZ20GWhWjwJa8W
sReGEyLS9IOIAE5kJINiFkJr3In0vqxVr498DG35xQWcr8MLmYNxc/5UN/xor0KL
RXCXDGHekJXhp1ra+7DS5F3IINga6vhG3Bblqs0EDx+jM8jBzKamwwtuke85Am2T
8ZwKXW0g0zkCAwEAAaNCMEAwHQYDVR0OBBYEFC1nGJ4sjPWw+7AUhoISCay8awLt
MB8GA1UdIwQYMBaAFOxKyjRcO0vWW8EnfexLcWYPSuvSMA0GCSqGSIb3DQEBCwUA
A4ICAQDE5abmH66Cpm6ZrbzW9aTOfbTZwBSUMbUlRpFuZSewS1DoR2eM1h92uyRb
E8rEUVFpvP/ccspa9NOYCUt/B/IkWrikbV58Xy2P6AU89lkbvnY9rviACN9bEdZg
1M7jP7Ncs47FIRSRuRg6iDeP5zToPzo5djhxLgGqThplF7+RqhkInyTbZVywhx/I
VVFAn9FRCwybnQjINmk0nTfHWJF/RZsn7Nc2i/kqvtT9/DTYgcHPjYzUPsVzB4iA
EhzdFd4aAC7baXetKLlX1cC5j43A41RGe4H9FT0TwbKbmMiJejTvsrwXPUao2KPz
31dtBI8CHjsqiJbvHUs4fhsd2GjLIS2oEII/YVjCJ9wK3+AOUwsNOKZDRBJXFSG7
pSs+et4uZ5dBEfOweJqzy//J6jA0ShhEiGikMMoRYGJtZYyFQ39Li+0rpaZi+dIk
u+cRcOGkPsbsrytchY2g37XOMphPCyRci0f+r4tPbjBaKFIVFWDJ32ifl81UR7W6
O317dXzMlgQU1/qtkGtcnUr6NiCyhtN2umTMCSAXYL7QaBjBA9CHcbzU9BadKkBW
uiAS8ZBe2JpPCcRnifmzNdCFLoOvjofuLSMI9tvw7oPrrB6tDrqgOlMmhGFA0o/H
O51IPLnZOiUpBCDIhazQ7sFsbpLxFGfxPdv1XWbONrSKMQRxtw==
-----END CERTIFICATE-----
