Certificate:
    Data:
        Version: 3 (0x2)
        Serial Number:
            30:96:c7:0a:a8:ee:18:78:c1:97:ce:d9:63:ee:a6:54:74:5a:86:f1
        Signature Algorithm: sha1WithRSAEncryption
        Issuer: C=AU, O=Dodgy Brothers, CN=Dodgy CA
        Validity
            Not Before: Sep 19 23:58:18 2024 GMT
            Not After : Sep 19 23:58:18 2027 GMT
        Subject: C=AU, O=Dodgy Brothers, CN=Dodgy CA
        Subject Public Key Info:
            Public Key Algorithm: rsaEncryption
                Public-Key: (2048 bit)
                Modulus:
                    00:96:9d:a4:3d:00:4b:1c:5f:c6:cb:dd:8f:d2:31:
                    b2:88:15:cc:c4:86:2c:5c:e2:69:8b:84:f4:a7:a3:
                    53:df:91:e3:bf:51:89:fb:f0:7c:10:0d:3b:ad:ac:
                    35:62:75:f5:7f:ff:f4:6e:54:8f:05:a6:92:23:b3:
                    9f:59:39:d0:39:18:b0:10:40:de:62:73:8a:4e:b0:
                    8e:df:dc:e7:c9:41:22:54:84:80:08:29:bc:35:3c:
                    86:df:30:de:dd:b4:24:ff:7e:62:a5:c0:7a:e8:2a:
                    16:3f:d6:97:da:c5:42:db:2f:69:64:91:cb:08:d7:
                    56:5a:79:7f:1b:84:41:e9:4d:9d:77:09:10:a8:6c:
                    29:33:44:c6:c0:54:65:e6:e8:e3:f2:75:05:6a:64:
                    95:6c:c0:f4:fd:25:61:6e:48:36:f0:c0:03:07:05:
                    d6:7c:e5:11:fd:18:e8:4a:2d:d3:72:0c:37:28:36:
                    31:31:38:85:e8:71:8d:d8:02:49:c8:bc:19:89:c5:
                    8a:b1:3f:a2:35:ea:aa:90:1c:64:68:7b:af:67:6a:
                    5a:06:54:0f:50:e1:f9:b4:f6:be:3a:d4:ce:3f:1e:
                    4c:7d:c6:77:32:3e:a2:58:ed:db:dd:74:d8:92:14:
                    6a:a8:f7:cb:34:58:91:a8:7c:14:b1:7d:08:b3:4d:
                    b1:47
                Exponent: 65537 (0x10001)
        X509v3 extensions:
            X509v3 Subject Key Identifier: 
                B4:11:33:F1:D7:E2:5E:F7:53:9E:20:22:10:4F:86:06:BF:1F:C9:5E
            X509v3 Authority Key Identifier: 
                keyid:B4:11:33:F1:D7:E2:5E:F7:53:9E:20:22:10:4F:86:06:BF:1F:C9:5E
                DirName:/C=AU/O=Dodgy Brothers/CN=Dodgy CA
                serial:30:96:C7:0A:A8:EE:18:78:C1:97:CE:D9:63:EE:A6:54:74:5A:86:F1
            X509v3 Basic Constraints: critical
                CA:TRUE, pathlen:1
            X509v3 Key Usage: 
                Certificate Sign, CRL Sign
            X509v3 Issuer Alternative Name: 
                <EMPTY>

    Signature Algorithm: sha1WithRSAEncryption
    Signature Value:
        26:50:52:92:0b:1f:ba:c3:09:2c:4e:37:bb:68:10:04:a3:ee:
        c1:9c:46:7a:da:20:6e:ac:98:b1:0e:3c:7a:61:7c:8a:ba:78:
        72:7d:1e:a0:6a:73:e7:f1:a0:0f:ac:01:28:26:82:15:dd:70:
        ba:ac:36:aa:d6:73:73:13:ac:73:34:8c:2a:87:fe:2a:83:a2:
        de:52:c2:b0:80:3c:4f:09:4c:c4:3d:a4:34:99:25:22:c5:ef:
        2e:00:f2:35:36:5f:d9:f2:55:ea:56:96:e3:d1:03:ca:b0:c9:
        e8:6a:7e:06:f4:a4:2e:87:25:ab:8e:f5:f3:bb:04:66:8e:2f:
        3b:f4:40:14:f6:18:cc:ea:6d:85:f1:34:17:77:b0:8a:02:ee:
        f9:08:39:82:f7:16:10:1e:9e:93:6f:64:ff:96:55:da:76:25:
        61:33:f7:25:52:a6:01:8e:86:11:ad:ea:cc:78:28:e9:49:06:
        f6:40:11:28:c8:a0:3e:d3:c3:0d:72:ab:aa:46:ae:32:00:f7:
        d8:7d:41:6e:03:3a:ce:17:27:28:86:7e:3b:f4:5e:f3:c7:9c:
        ee:f3:35:d0:0d:51:08:1c:9d:d5:40:99:65:7b:2a:17:c2:c6:
        a4:6c:8b:70:f2:4c:23:27:0a:09:59:ad:58:81:37:82:8b:ba:
        b6:66:d9:e8
-----BEGIN CERTIFICATE-----
MIIDxTCCAq2gAwIBAgIUMJbHCqjuGHjBl87ZY+6mVHRahvEwDQYJKoZIhvcNAQEF
BQAwOTELMAkGA1UEBhMCQVUxFzAVBgNVBAoMDkRvZGd5IEJyb3RoZXJzMREwDwYD
VQQDDAhEb2RneSBDQTAeFw0yNDA5MTkyMzU4MThaFw0yNzA5MTkyMzU4MThaMDkx
CzAJBgNVBAYTAkFVMRcwFQYDVQQKDA5Eb2RneSBCcm90aGVyczERMA8GA1UEAwwI
RG9kZ3kgQ0EwggEiMA0GCSqGSIb3DQEBAQUAA4IBDwAwggEKAoIBAQCWnaQ9AEsc
X8bL3Y/SMbKIFczEhixc4mmLhPSno1PfkeO/UYn78HwQDTutrDVidfV///RuVI8F
ppIjs59ZOdA5GLAQQN5ic4pOsI7f3OfJQSJUhIAIKbw1PIbfMN7dtCT/fmKlwHro
KhY/1pfaxULbL2lkkcsI11ZaeX8bhEHpTZ13CRCobCkzRMbAVGXm6OPydQVqZJVs
wPT9JWFuSDbwwAMHBdZ85RH9GOhKLdNyDDcoNjExOIXocY3YAknIvBmJxYqxP6I1
6qqQHGRoe69naloGVA9Q4fm09r461M4/Hkx9xncyPqJY7dvddNiSFGqo98s0WJGo
fBSxfQizTbFHAgMBAAGjgcQwgcEwHQYDVR0OBBYEFLQRM/HX4l73U54gIhBPhga/
H8leMHQGA1UdIwRtMGuAFLQRM/HX4l73U54gIhBPhga/H8leoT2kOzA5MQswCQYD
VQQGEwJBVTEXMBUGA1UECgwORG9kZ3kgQnJvdGhlcnMxETAPBgNVBAMMCERvZGd5
IENBghQwlscKqO4YeMGXztlj7qZUdFqG8TASBgNVHRMBAf8ECDAGAQH/AgEBMAsG
A1UdDwQEAwIBBjAJBgNVHRIEAjAAMA0GCSqGSIb3DQEBBQUAA4IBAQAmUFKSCx+6
wwksTje7aBAEo+7BnEZ62iBurJixDjx6YXyKunhyfR6ganPn8aAPrAEoJoIV3XC6
rDaq1nNzE6xzNIwqh/4qg6LeUsKwgDxPCUzEPaQ0mSUixe8uAPI1Nl/Z8lXqVpbj
0QPKsMnoan4G9KQuhyWrjvXzuwRmji879EAU9hjM6m2F8TQXd7CKAu75CDmC9xYQ
Hp6Tb2T/llXadiVhM/clUqYBjoYRrerMeCjpSQb2QBEoyKA+08MNcquqRq4yAPfY
fUFuAzrOFycohn479F7zx5zu8zXQDVEIHJ3VQJlleyoXwsakbItw8kwjJwoJWa1Y
gTeCi7q2Ztno
-----END CERTIFICATE-----
