Certificate:
    Data:
        Version: 3 (0x2)
        Serial Number:
            36:5d:75:35:1e:45:10:a3:8c:19:fc:86:af:6c:c7:53:22:fe:2e:37
        Signature Algorithm: sha1WithRSAEncryption
        Issuer: C=AU, O=Dodgy Brothers, CN=Dodgy CA
        Validity
            Not Before: Sep 11 01:11:15 2024 GMT
            Not After : Sep 11 01:11:15 2027 GMT
        Subject: C=AU, O=Dodgy Brothers, CN=Dodgy CA
        Subject Public Key Info:
            Public Key Algorithm: rsaEncryption
                Public-Key: (2048 bit)
                Modulus:
                    00:96:9d:a4:3d:00:4b:1c:5f:c6:cb:dd:8f:d2:31:
                    b2:88:15:cc:c4:86:2c:5c:e2:69:8b:84:f4:a7:a3:
                    53:df:91:e3:bf:51:89:fb:f0:7c:10:0d:3b:ad:ac:
                    35:62:75:f5:7f:ff:f4:6e:54:8f:05:a6:92:23:b3:
                    9f:59:39:d0:39:18:b0:10:40:de:62:73:8a:4e:b0:
                    8e:df:dc:e7:c9:41:22:54:84:80:08:29:bc:35:3c:
                    86:df:30:de:dd:b4:24:ff:7e:62:a5:c0:7a:e8:2a:
                    16:3f:d6:97:da:c5:42:db:2f:69:64:91:cb:08:d7:
                    56:5a:79:7f:1b:84:41:e9:4d:9d:77:09:10:a8:6c:
                    29:33:44:c6:c0:54:65:e6:e8:e3:f2:75:05:6a:64:
                    95:6c:c0:f4:fd:25:61:6e:48:36:f0:c0:03:07:05:
                    d6:7c:e5:11:fd:18:e8:4a:2d:d3:72:0c:37:28:36:
                    31:31:38:85:e8:71:8d:d8:02:49:c8:bc:19:89:c5:
                    8a:b1:3f:a2:35:ea:aa:90:1c:64:68:7b:af:67:6a:
                    5a:06:54:0f:50:e1:f9:b4:f6:be:3a:d4:ce:3f:1e:
                    4c:7d:c6:77:32:3e:a2:58:ed:db:dd:74:d8:92:14:
                    6a:a8:f7:cb:34:58:91:a8:7c:14:b1:7d:08:b3:4d:
                    b1:47
                Exponent: 65537 (0x10001)
        X509v3 extensions:
            X509v3 Subject Key Identifier: 
                B4:11:33:F1:D7:E2:5E:F7:53:9E:20:22:10:4F:86:06:BF:1F:C9:5E
            X509v3 Authority Key Identifier: 
                keyid:B4:11:33:F1:D7:E2:5E:F7:53:9E:20:22:10:4F:86:06:BF:1F:C9:5E
                DirName:/C=AU/O=Dodgy Brothers/CN=Dodgy CA
                serial:36:5D:75:35:1E:45:10:A3:8C:19:FC:86:AF:6C:C7:53:22:FE:2E:37
            X509v3 Basic Constraints: critical
                CA:TRUE, pathlen:1
            X509v3 Key Usage: 
                Certificate Sign, CRL Sign
            X509v3 Issuer Alternative Name: 
                <EMPTY>

    Signature Algorithm: sha1WithRSAEncryption
    Signature Value:
        65:c6:d5:91:83:8f:23:2c:a9:2e:a3:01:16:7d:76:f1:f9:24:
        85:e5:d2:4c:60:54:49:12:3f:c9:9a:e1:81:87:30:ea:dc:96:
        50:1b:bb:fd:ff:33:9d:b2:69:b6:87:a3:eb:07:de:b2:ee:95:
        04:d5:38:a9:e3:1a:d4:7a:41:7a:e2:ad:bb:02:6f:c2:00:9a:
        36:50:95:34:aa:05:63:78:44:6d:97:63:c6:fb:22:58:3a:56:
        9d:91:ce:72:23:6f:47:1c:79:19:90:f6:81:12:d7:d7:41:17:
        1b:e2:3a:bd:ce:15:e9:4d:c4:5f:9d:ac:9a:3f:3a:59:ea:63:
        af:93:25:1f:ca:36:eb:8e:bd:6a:8b:16:a1:38:c2:20:da:a1:
        74:ac:fd:a9:35:a9:72:18:34:b5:fb:e6:7e:c4:22:fd:32:e4:
        da:3f:51:78:ce:7b:81:c3:ae:ca:9c:44:48:f3:c2:b3:14:22:
        5d:6c:7c:79:8d:c1:d9:2f:90:60:12:bd:31:b6:8b:6b:dc:7d:
        8c:ee:b8:4a:92:71:cb:35:9e:2a:5c:1c:38:fe:b8:74:ad:d6:
        c2:ea:e6:92:f9:90:ad:1a:81:1e:c3:a2:1c:f3:36:82:e8:41:
        db:62:ce:1d:35:83:cc:2c:57:5b:60:33:4d:99:f2:2d:3d:47:
        10:03:a9:65
-----BEGIN CERTIFICATE-----
MIIDxTCCAq2gAwIBAgIUNl11NR5FEKOMGfyGr2zHUyL+LjcwDQYJKoZIhvcNAQEF
BQAwOTELMAkGA1UEBhMCQVUxFzAVBgNVBAoMDkRvZGd5IEJyb3RoZXJzMREwDwYD
VQQDDAhEb2RneSBDQTAeFw0yNDA5MTEwMTExMTVaFw0yNzA5MTEwMTExMTVaMDkx
CzAJBgNVBAYTAkFVMRcwFQYDVQQKDA5Eb2RneSBCcm90aGVyczERMA8GA1UEAwwI
RG9kZ3kgQ0EwggEiMA0GCSqGSIb3DQEBAQUAA4IBDwAwggEKAoIBAQCWnaQ9AEsc
X8bL3Y/SMbKIFczEhixc4mmLhPSno1PfkeO/UYn78HwQDTutrDVidfV///RuVI8F
ppIjs59ZOdA5GLAQQN5ic4pOsI7f3OfJQSJUhIAIKbw1PIbfMN7dtCT/fmKlwHro
KhY/1pfaxULbL2lkkcsI11ZaeX8bhEHpTZ13CRCobCkzRMbAVGXm6OPydQVqZJVs
wPT9JWFuSDbwwAMHBdZ85RH9GOhKLdNyDDcoNjExOIXocY3YAknIvBmJxYqxP6I1
6qqQHGRoe69naloGVA9Q4fm09r461M4/Hkx9xncyPqJY7dvddNiSFGqo98s0WJGo
fBSxfQizTbFHAgMBAAGjgcQwgcEwHQYDVR0OBBYEFLQRM/HX4l73U54gIhBPhga/
H8leMHQGA1UdIwRtMGuAFLQRM/HX4l73U54gIhBPhga/H8leoT2kOzA5MQswCQYD
VQQGEwJBVTEXMBUGA1UECgwORG9kZ3kgQnJvdGhlcnMxETAPBgNVBAMMCERvZGd5
IENBghQ2XXU1HkUQo4wZ/IavbMdTIv4uNzASBgNVHRMBAf8ECDAGAQH/AgEBMAsG
A1UdDwQEAwIBBjAJBgNVHRIEAjAAMA0GCSqGSIb3DQEBBQUAA4IBAQBlxtWRg48j
LKkuowEWfXbx+SSF5dJMYFRJEj/JmuGBhzDq3JZQG7v9/zOdsmm2h6PrB96y7pUE
1Tip4xrUekF64q27Am/CAJo2UJU0qgVjeERtl2PG+yJYOladkc5yI29HHHkZkPaB
EtfXQRcb4jq9zhXpTcRfnayaPzpZ6mOvkyUfyjbrjr1qixahOMIg2qF0rP2pNaly
GDS1++Z+xCL9MuTaP1F4znuBw67KnERI88KzFCJdbHx5jcHZL5BgEr0xtotr3H2M
7rhKknHLNZ4qXBw4/rh0rdbC6uaS+ZCtGoEew6Ic8zaC6EHbYs4dNYPMLFdbYDNN
mfItPUcQA6ll
-----END CERTIFICATE-----
