Certificate:
    Data:
        Version: 3 (0x2)
        Serial Number:
            2f:2e:0b:52:f2:92:75:01:c1:12:bd:c8:4a:d2:8a:dc:e8:86:7a:e2
        Signature Algorithm: sha1WithRSAEncryption
        Issuer: C=AU, O=Dodgy Brothers, CN=Dodgy CA
        Validity
            Not Before: Aug 25 05:08:04 2024 GMT
            Not After : Aug 25 05:08:04 2025 GMT
        Subject: C=AU, O=Dodgy Brothers, CN=Brother 1, CN=both_utctime
        Subject Public Key Info:
            Public Key Algorithm: rsaEncryption
                Public-Key: (2048 bit)
                Modulus:
                    00:be:95:86:fa:71:4c:6a:ea:51:98:50:4b:99:a1:
                    2c:66:15:f3:60:f3:e1:ff:69:fb:ce:48:01:1d:fe:
                    e1:2c:38:b0:e3:bd:8f:4b:48:a7:7e:3a:c6:73:e3:
                    ab:bf:e1:da:6e:96:f5:fe:c3:e4:b4:a8:ad:bc:56:
                    34:d4:96:25:74:27:c3:10:db:35:10:25:1c:8e:4b:
                    81:9b:fb:42:04:7c:6f:3d:e2:38:6c:0e:e4:2e:8e:
                    2a:18:6d:30:cd:67:2a:23:6b:37:cf:05:9f:cc:b7:
                    59:58:7f:ba:c4:0a:3f:8c:a4:ad:cb:98:9c:c0:f2:
                    8f:69:67:0f:c1:4e:33:cf:fc:85:5e:bb:5e:cf:93:
                    b0:cf:d9:f4:52:79:87:b1:f8:4d:15:68:65:d5:b7:
                    19:08:63:7f:5e:b1:34:ad:05:8f:5a:f0:e4:e1:8f:
                    25:f2:5c:5c:61:95:b0:56:2d:31:2b:08:65:79:e5:
                    b1:3b:9d:3e:b9:52:4b:ac:5d:c4:58:66:85:8d:81:
                    b3:04:28:f4:3f:2f:ac:92:01:62:d5:fd:8e:0b:da:
                    02:0c:7a:c7:6e:09:1c:ac:1c:b2:4c:d7:54:b8:26:
                    33:b2:5f:14:f3:b1:f9:3d:62:4d:40:99:6b:b6:e7:
                    89:58:97:d6:d4:4d:ea:4b:68:52:f3:3c:a8:b1:35:
                    88:db
                Exponent: 65537 (0x10001)
        X509v3 extensions:
            X509v3 Subject Key Identifier: 
                A1:DF:33:C3:CF:3E:53:41:A7:68:44:CC:AA:19:E1:84:C9:0D:BC:C6
            X509v3 Authority Key Identifier: 
                keyid:B4:11:33:F1:D7:E2:5E:F7:53:9E:20:22:10:4F:86:06:BF:1F:C9:5E
                DirName:/C=AU/O=Dodgy Brothers/CN=Dodgy CA
                serial:25:60:FA:C9:CE:18:C7:8F:C1:DF:20:3C:6A:4A:69:ED:BD:52:69:EC
            X509v3 Basic Constraints: critical
                CA:TRUE, pathlen:1
            X509v3 Key Usage: 
                Certificate Sign, CRL Sign
            X509v3 Issuer Alternative Name: 
                <EMPTY>

    Signature Algorithm: sha1WithRSAEncryption
    Signature Value:
        23:24:86:18:b0:fe:10:79:a3:73:14:5d:1d:9d:8b:eb:4c:e5:
        6e:b6:dc:85:3f:ee:e3:ec:96:28:8e:64:c4:6b:47:b3:45:f0:
        43:69:43:9f:e2:5e:79:f3:ce:90:2b:16:c8:51:53:c3:42:3d:
        26:7e:49:2f:67:4b:a7:9b:8e:e2:fc:35:9a:1d:5d:3d:68:0d:
        6a:6c:c5:3d:a9:8e:9c:c3:d0:cf:05:8c:e3:f4:bc:08:9f:4f:
        81:06:4d:05:2f:aa:62:60:87:fe:21:a6:db:ab:3e:74:e1:04:
        5f:ff:19:eb:a5:0a:96:57:c1:a1:6c:8e:15:a8:11:ac:24:7b:
        13:b8:b6:be:69:43:32:24:17:7f:66:2a:2c:3c:28:d2:e3:40:
        6f:82:74:2f:81:9b:ac:c6:21:81:bb:71:28:64:d1:7b:56:29:
        0c:bb:2e:2b:98:a1:5c:a8:b1:fc:eb:19:c9:f3:93:d3:69:d5:
        c2:12:51:6c:36:01:6e:6b:16:10:e5:34:19:28:ae:77:90:d8:
        81:04:9a:49:3e:19:0c:64:5b:25:15:e8:50:fa:9a:5a:4d:49:
        73:87:95:f6:52:39:56:d0:15:a8:a0:fd:c1:0e:b0:b0:9d:97:
        b9:b7:4b:fa:0e:c0:df:0f:92:31:e5:41:32:2e:67:4b:1c:b7:
        bb:ff:6a:10
-----BEGIN CERTIFICATE-----
MIID3TCCAsWgAwIBAgIULy4LUvKSdQHBEr3IStKK3OiGeuIwDQYJKoZIhvcNAQEF
BQAwOTELMAkGA1UEBhMCQVUxFzAVBgNVBAoMDkRvZGd5IEJyb3RoZXJzMREwDwYD
VQQDDAhEb2RneSBDQTAeFw0yNDA4MjUwNTA4MDRaFw0yNTA4MjUwNTA4MDRaMFEx
CzAJBgNVBAYTAkFVMRcwFQYDVQQKDA5Eb2RneSBCcm90aGVyczESMBAGA1UEAwwJ
QnJvdGhlciAxMRUwEwYDVQQDDAxib3RoX3V0Y3RpbWUwggEiMA0GCSqGSIb3DQEB
AQUAA4IBDwAwggEKAoIBAQC+lYb6cUxq6lGYUEuZoSxmFfNg8+H/afvOSAEd/uEs
OLDjvY9LSKd+OsZz46u/4dpulvX+w+S0qK28VjTUliV0J8MQ2zUQJRyOS4Gb+0IE
fG894jhsDuQujioYbTDNZyojazfPBZ/Mt1lYf7rECj+MpK3LmJzA8o9pZw/BTjPP
/IVeu17Pk7DP2fRSeYex+E0VaGXVtxkIY39esTStBY9a8OThjyXyXFxhlbBWLTEr
CGV55bE7nT65UkusXcRYZoWNgbMEKPQ/L6ySAWLV/Y4L2gIMesduCRysHLJM11S4
JjOyXxTzsfk9Yk1AmWu254lYl9bUTepLaFLzPKixNYjbAgMBAAGjgcQwgcEwHQYD
VR0OBBYEFKHfM8PPPlNBp2hEzKoZ4YTJDbzGMHQGA1UdIwRtMGuAFLQRM/HX4l73
U54gIhBPhga/H8leoT2kOzA5MQswCQYDVQQGEwJBVTEXMBUGA1UECgwORG9kZ3kg
QnJvdGhlcnMxETAPBgNVBAMMCERvZGd5IENBghQlYPrJzhjHj8HfIDxqSmntvVJp
7DASBgNVHRMBAf8ECDAGAQH/AgEBMAsGA1UdDwQEAwIBBjAJBgNVHRIEAjAAMA0G
CSqGSIb3DQEBBQUAA4IBAQAjJIYYsP4QeaNzFF0dnYvrTOVuttyFP+7j7JYojmTE
a0ezRfBDaUOf4l55886QKxbIUVPDQj0mfkkvZ0unm47i/DWaHV09aA1qbMU9qY6c
w9DPBYzj9LwIn0+BBk0FL6piYIf+Iabbqz504QRf/xnrpQqWV8GhbI4VqBGsJHsT
uLa+aUMyJBd/ZiosPCjS40BvgnQvgZusxiGBu3EoZNF7VikMuy4rmKFcqLH86xnJ
85PTadXCElFsNgFuaxYQ5TQZKK53kNiBBJpJPhkMZFslFehQ+ppaTUlzh5X2UjlW
0BWooP3BDrCwnZe5t0v6DsDfD5Ix5UEyLmdLHLe7/2oQ
-----END CERTIFICATE-----
