Certificate:
    Data:
        Version: 3 (0x2)
        Serial Number:
            2f:2e:0b:52:f2:92:75:01:c1:12:bd:c8:4a:d2:8a:dc:e8:86:7a:e3
        Signature Algorithm: sha1WithRSAEncryption
        Issuer: C=AU, O=Dodgy Brothers, CN=Dodgy CA
        Validity
            Not Before: Aug 25 05:08:05 2024 GMT
            Not After : Aug 25 05:08:05 2025 GMT
        Subject: C=AU, O=Dodgy Brothers, CN=Brother 1, CN=both_generalizedtime
        Subject Public Key Info:
            Public Key Algorithm: rsaEncryption
                Public-Key: (2048 bit)
                Modulus:
                    00:be:95:86:fa:71:4c:6a:ea:51:98:50:4b:99:a1:
                    2c:66:15:f3:60:f3:e1:ff:69:fb:ce:48:01:1d:fe:
                    e1:2c:38:b0:e3:bd:8f:4b:48:a7:7e:3a:c6:73:e3:
                    ab:bf:e1:da:6e:96:f5:fe:c3:e4:b4:a8:ad:bc:56:
                    34:d4:96:25:74:27:c3:10:db:35:10:25:1c:8e:4b:
                    81:9b:fb:42:04:7c:6f:3d:e2:38:6c:0e:e4:2e:8e:
                    2a:18:6d:30:cd:67:2a:23:6b:37:cf:05:9f:cc:b7:
                    59:58:7f:ba:c4:0a:3f:8c:a4:ad:cb:98:9c:c0:f2:
                    8f:69:67:0f:c1:4e:33:cf:fc:85:5e:bb:5e:cf:93:
                    b0:cf:d9:f4:52:79:87:b1:f8:4d:15:68:65:d5:b7:
                    19:08:63:7f:5e:b1:34:ad:05:8f:5a:f0:e4:e1:8f:
                    25:f2:5c:5c:61:95:b0:56:2d:31:2b:08:65:79:e5:
                    b1:3b:9d:3e:b9:52:4b:ac:5d:c4:58:66:85:8d:81:
                    b3:04:28:f4:3f:2f:ac:92:01:62:d5:fd:8e:0b:da:
                    02:0c:7a:c7:6e:09:1c:ac:1c:b2:4c:d7:54:b8:26:
                    33:b2:5f:14:f3:b1:f9:3d:62:4d:40:99:6b:b6:e7:
                    89:58:97:d6:d4:4d:ea:4b:68:52:f3:3c:a8:b1:35:
                    88:db
                Exponent: 65537 (0x10001)
        X509v3 extensions:
            X509v3 Subject Key Identifier: 
                A1:DF:33:C3:CF:3E:53:41:A7:68:44:CC:AA:19:E1:84:C9:0D:BC:C6
            X509v3 Authority Key Identifier: 
                keyid:B4:11:33:F1:D7:E2:5E:F7:53:9E:20:22:10:4F:86:06:BF:1F:C9:5E
                DirName:/C=AU/O=Dodgy Brothers/CN=Dodgy CA
                serial:25:60:FA:C9:CE:18:C7:8F:C1:DF:20:3C:6A:4A:69:ED:BD:52:69:EC
            X509v3 Basic Constraints: critical
                CA:TRUE, pathlen:1
            X509v3 Key Usage: 
                Certificate Sign, CRL Sign
            X509v3 Issuer Alternative Name: 
                <EMPTY>

    Signature Algorithm: sha1WithRSAEncryption
    Signature Value:
        14:49:35:0a:8b:14:87:6c:4d:dc:b0:d2:99:4f:62:e1:48:2a:
        99:01:d4:41:7c:6d:81:8b:c9:3b:2e:f4:ca:95:a0:f4:9a:ea:
        9f:23:d9:04:7f:9f:7f:cb:34:36:1d:f4:23:00:4f:dc:3c:f7:
        36:ef:f4:fd:d5:15:b0:b5:66:36:99:35:72:8f:73:10:0b:c2:
        6b:06:94:8a:cb:5a:2b:37:46:fb:4e:02:aa:87:54:92:f0:25:
        9e:40:0e:f2:83:62:35:c3:2d:b9:6a:a0:cc:5d:f4:ce:c7:68:
        8d:40:83:5e:c0:0a:21:f4:e5:a4:49:25:19:24:66:ce:46:2b:
        d1:b8:06:2b:df:f6:9f:6b:bd:b6:be:5b:37:75:66:66:2c:ad:
        41:14:e5:91:a7:ac:3d:6a:ec:5b:f8:5d:16:46:0e:fb:93:75:
        de:88:28:a8:83:8a:88:6d:d0:31:ff:c0:0d:53:65:82:62:d2:
        20:5a:80:36:00:63:a9:89:8f:72:e1:6d:2e:29:fe:77:5b:d3:
        cc:d0:fc:cb:c1:01:f0:3b:61:26:cc:31:4c:eb:3f:25:c2:e8:
        5f:36:29:db:3c:98:5c:61:95:83:bd:4a:80:e2:ad:1d:12:c7:
        34:75:7b:b5:36:a6:66:8d:1c:1c:a0:00:86:60:8c:52:b0:a5:
        30:14:ba:4b
-----BEGIN CERTIFICATE-----
MIID5TCCAs2gAwIBAgIULy4LUvKSdQHBEr3IStKK3OiGeuMwDQYJKoZIhvcNAQEF
BQAwOTELMAkGA1UEBhMCQVUxFzAVBgNVBAoMDkRvZGd5IEJyb3RoZXJzMREwDwYD
VQQDDAhEb2RneSBDQTAeFw0yNDA4MjUwNTA4MDVaFw0yNTA4MjUwNTA4MDVaMFkx
CzAJBgNVBAYTAkFVMRcwFQYDVQQKDA5Eb2RneSBCcm90aGVyczESMBAGA1UEAwwJ
QnJvdGhlciAxMR0wGwYDVQQDDBRib3RoX2dlbmVyYWxpemVkdGltZTCCASIwDQYJ
KoZIhvcNAQEBBQADggEPADCCAQoCggEBAL6VhvpxTGrqUZhQS5mhLGYV82Dz4f9p
+85IAR3+4Sw4sOO9j0tIp346xnPjq7/h2m6W9f7D5LSorbxWNNSWJXQnwxDbNRAl
HI5LgZv7QgR8bz3iOGwO5C6OKhhtMM1nKiNrN88Fn8y3WVh/usQKP4ykrcuYnMDy
j2lnD8FOM8/8hV67Xs+TsM/Z9FJ5h7H4TRVoZdW3GQhjf16xNK0Fj1rw5OGPJfJc
XGGVsFYtMSsIZXnlsTudPrlSS6xdxFhmhY2BswQo9D8vrJIBYtX9jgvaAgx6x24J
HKwcskzXVLgmM7JfFPOx+T1iTUCZa7bniViX1tRN6ktoUvM8qLE1iNsCAwEAAaOB
xDCBwTAdBgNVHQ4EFgQUod8zw88+U0GnaETMqhnhhMkNvMYwdAYDVR0jBG0wa4AU
tBEz8dfiXvdTniAiEE+GBr8fyV6hPaQ7MDkxCzAJBgNVBAYTAkFVMRcwFQYDVQQK
DA5Eb2RneSBCcm90aGVyczERMA8GA1UEAwwIRG9kZ3kgQ0GCFCVg+snOGMePwd8g
PGpKae29UmnsMBIGA1UdEwEB/wQIMAYBAf8CAQEwCwYDVR0PBAQDAgEGMAkGA1Ud
EgQCMAAwDQYJKoZIhvcNAQEFBQADggEBABRJNQqLFIdsTdyw0plPYuFIKpkB1EF8
bYGLyTsu9MqVoPSa6p8j2QR/n3/LNDYd9CMAT9w89zbv9P3VFbC1ZjaZNXKPcxAL
wmsGlIrLWis3RvtOAqqHVJLwJZ5ADvKDYjXDLblqoMxd9M7HaI1Ag17ACiH05aRJ
JRkkZs5GK9G4Bivf9p9rvba+Wzd1ZmYsrUEU5ZGnrD1q7Fv4XRZGDvuTdd6IKKiD
ioht0DH/wA1TZYJi0iBagDYAY6mJj3LhbS4p/ndb08zQ/MvBAfA7YSbMMUzrPyXC
6F82Kds8mFxhlYO9SoDirR0SxzR1e7U2pmaNHBygAIZgjFKwpTAUuks=
-----END CERTIFICATE-----
