Certificate:
    Data:
        Version: 3 (0x2)
        Serial Number:
            2f:2e:0b:52:f2:92:75:01:c1:12:bd:c8:4a:d2:8a:dc:e8:86:7a:dc
        Signature Algorithm: sha1WithRSAEncryption
        Issuer: C=AU, O=Dodgy Brothers, CN=Dodgy CA
        Validity
            Not Before: Aug 25 05:08:04 2024 GMT
            Not After : Aug 25 05:08:04 2025 GMT
        Subject: C=AU, O=Dodgy Brothers, CN=Brother 1, CN=lastupdate_invalid
        Subject Public Key Info:
            Public Key Algorithm: rsaEncryption
                Public-Key: (2048 bit)
                Modulus:
                    00:be:95:86:fa:71:4c:6a:ea:51:98:50:4b:99:a1:
                    2c:66:15:f3:60:f3:e1:ff:69:fb:ce:48:01:1d:fe:
                    e1:2c:38:b0:e3:bd:8f:4b:48:a7:7e:3a:c6:73:e3:
                    ab:bf:e1:da:6e:96:f5:fe:c3:e4:b4:a8:ad:bc:56:
                    34:d4:96:25:74:27:c3:10:db:35:10:25:1c:8e:4b:
                    81:9b:fb:42:04:7c:6f:3d:e2:38:6c:0e:e4:2e:8e:
                    2a:18:6d:30:cd:67:2a:23:6b:37:cf:05:9f:cc:b7:
                    59:58:7f:ba:c4:0a:3f:8c:a4:ad:cb:98:9c:c0:f2:
                    8f:69:67:0f:c1:4e:33:cf:fc:85:5e:bb:5e:cf:93:
                    b0:cf:d9:f4:52:79:87:b1:f8:4d:15:68:65:d5:b7:
                    19:08:63:7f:5e:b1:34:ad:05:8f:5a:f0:e4:e1:8f:
                    25:f2:5c:5c:61:95:b0:56:2d:31:2b:08:65:79:e5:
                    b1:3b:9d:3e:b9:52:4b:ac:5d:c4:58:66:85:8d:81:
                    b3:04:28:f4:3f:2f:ac:92:01:62:d5:fd:8e:0b:da:
                    02:0c:7a:c7:6e:09:1c:ac:1c:b2:4c:d7:54:b8:26:
                    33:b2:5f:14:f3:b1:f9:3d:62:4d:40:99:6b:b6:e7:
                    89:58:97:d6:d4:4d:ea:4b:68:52:f3:3c:a8:b1:35:
                    88:db
                Exponent: 65537 (0x10001)
        X509v3 extensions:
            X509v3 Subject Key Identifier: 
                A1:DF:33:C3:CF:3E:53:41:A7:68:44:CC:AA:19:E1:84:C9:0D:BC:C6
            X509v3 Authority Key Identifier: 
                keyid:B4:11:33:F1:D7:E2:5E:F7:53:9E:20:22:10:4F:86:06:BF:1F:C9:5E
                DirName:/C=AU/O=Dodgy Brothers/CN=Dodgy CA
                serial:25:60:FA:C9:CE:18:C7:8F:C1:DF:20:3C:6A:4A:69:ED:BD:52:69:EC
            X509v3 Basic Constraints: critical
                CA:TRUE, pathlen:1
            X509v3 Key Usage: 
                Certificate Sign, CRL Sign
            X509v3 Issuer Alternative Name: 
                <EMPTY>

    Signature Algorithm: sha1WithRSAEncryption
    Signature Value:
        94:08:91:58:33:6f:bc:ae:ac:a5:ab:8e:99:70:12:97:90:36:
        b7:30:b7:bf:12:fb:02:63:df:2b:c0:38:32:44:d9:70:9d:ee:
        0e:11:e7:24:2d:7f:a3:b3:01:07:de:d5:16:eb:8e:15:32:02:
        4a:85:64:8d:1e:d0:1b:d5:e5:a4:d5:c7:a1:ec:f3:04:76:57:
        69:3a:7f:ee:8e:87:5c:48:d9:bf:c4:d4:c4:c5:fb:6c:ae:7d:
        fc:6e:0d:7a:4a:73:9e:31:0c:b4:0e:6a:cf:7e:4d:fd:21:78:
        02:11:12:34:c0:64:6e:91:2b:24:ab:d3:ea:af:ed:d9:5b:4d:
        36:3d:85:99:a5:a2:f2:c7:d0:2f:5d:67:59:f7:af:da:f9:64:
        9a:b5:47:49:fd:b2:cf:f4:2b:b8:83:35:3f:3e:6f:19:54:33:
        d4:d9:bc:cf:3b:58:e2:11:e9:2a:a7:60:bc:f8:81:a1:b7:33:
        65:fb:94:d4:fb:eb:e1:59:c7:48:c7:e2:68:ec:33:72:63:17:
        0b:4e:73:21:c2:e0:0a:c9:a2:ec:27:ae:3a:45:2b:99:78:5a:
        80:7b:ba:69:10:17:80:65:00:40:2e:3f:32:6c:72:81:bb:8e:
        4b:17:21:e7:f1:90:62:7f:6b:e4:f0:02:e7:8f:6c:d6:56:85:
        a4:47:c0:d6
-----BEGIN CERTIFICATE-----
MIID4zCCAsugAwIBAgIULy4LUvKSdQHBEr3IStKK3OiGetwwDQYJKoZIhvcNAQEF
BQAwOTELMAkGA1UEBhMCQVUxFzAVBgNVBAoMDkRvZGd5IEJyb3RoZXJzMREwDwYD
VQQDDAhEb2RneSBDQTAeFw0yNDA4MjUwNTA4MDRaFw0yNTA4MjUwNTA4MDRaMFcx
CzAJBgNVBAYTAkFVMRcwFQYDVQQKDA5Eb2RneSBCcm90aGVyczESMBAGA1UEAwwJ
QnJvdGhlciAxMRswGQYDVQQDDBJsYXN0dXBkYXRlX2ludmFsaWQwggEiMA0GCSqG
SIb3DQEBAQUAA4IBDwAwggEKAoIBAQC+lYb6cUxq6lGYUEuZoSxmFfNg8+H/afvO
SAEd/uEsOLDjvY9LSKd+OsZz46u/4dpulvX+w+S0qK28VjTUliV0J8MQ2zUQJRyO
S4Gb+0IEfG894jhsDuQujioYbTDNZyojazfPBZ/Mt1lYf7rECj+MpK3LmJzA8o9p
Zw/BTjPP/IVeu17Pk7DP2fRSeYex+E0VaGXVtxkIY39esTStBY9a8OThjyXyXFxh
lbBWLTErCGV55bE7nT65UkusXcRYZoWNgbMEKPQ/L6ySAWLV/Y4L2gIMesduCRys
HLJM11S4JjOyXxTzsfk9Yk1AmWu254lYl9bUTepLaFLzPKixNYjbAgMBAAGjgcQw
gcEwHQYDVR0OBBYEFKHfM8PPPlNBp2hEzKoZ4YTJDbzGMHQGA1UdIwRtMGuAFLQR
M/HX4l73U54gIhBPhga/H8leoT2kOzA5MQswCQYDVQQGEwJBVTEXMBUGA1UECgwO
RG9kZ3kgQnJvdGhlcnMxETAPBgNVBAMMCERvZGd5IENBghQlYPrJzhjHj8HfIDxq
SmntvVJp7DASBgNVHRMBAf8ECDAGAQH/AgEBMAsGA1UdDwQEAwIBBjAJBgNVHRIE
AjAAMA0GCSqGSIb3DQEBBQUAA4IBAQCUCJFYM2+8rqylq46ZcBKXkDa3MLe/EvsC
Y98rwDgyRNlwne4OEeckLX+jswEH3tUW644VMgJKhWSNHtAb1eWk1ceh7PMEdldp
On/ujodcSNm/xNTExftsrn38bg16SnOeMQy0DmrPfk39IXgCERI0wGRukSskq9Pq
r+3ZW002PYWZpaLyx9AvXWdZ96/a+WSatUdJ/bLP9Cu4gzU/Pm8ZVDPU2bzPO1ji
Eekqp2C8+IGhtzNl+5TU++vhWcdIx+Jo7DNyYxcLTnMhwuAKyaLsJ646RSuZeFqA
e7ppEBeAZQBALj8ybHKBu45LFyHn8ZBif2vk8ALnj2zWVoWkR8DW
-----END CERTIFICATE-----
