Certificate:
    Data:
        Version: 3 (0x2)
        Serial Number:
            2f:2e:0b:52:f2:92:75:01:c1:12:bd:c8:4a:d2:8a:dc:e8:86:7a:dd
        Signature Algorithm: sha1WithRSAEncryption
        Issuer: C=AU, O=Dodgy Brothers, CN=Dodgy CA
        Validity
            Not Before: Aug 25 05:08:04 2024 GMT
            Not After : Aug 25 05:08:04 2025 GMT
        Subject: C=AU, O=Dodgy Brothers, CN=Brother 1, CN=lastupdate_utctime
        Subject Public Key Info:
            Public Key Algorithm: rsaEncryption
                Public-Key: (2048 bit)
                Modulus:
                    00:be:95:86:fa:71:4c:6a:ea:51:98:50:4b:99:a1:
                    2c:66:15:f3:60:f3:e1:ff:69:fb:ce:48:01:1d:fe:
                    e1:2c:38:b0:e3:bd:8f:4b:48:a7:7e:3a:c6:73:e3:
                    ab:bf:e1:da:6e:96:f5:fe:c3:e4:b4:a8:ad:bc:56:
                    34:d4:96:25:74:27:c3:10:db:35:10:25:1c:8e:4b:
                    81:9b:fb:42:04:7c:6f:3d:e2:38:6c:0e:e4:2e:8e:
                    2a:18:6d:30:cd:67:2a:23:6b:37:cf:05:9f:cc:b7:
                    59:58:7f:ba:c4:0a:3f:8c:a4:ad:cb:98:9c:c0:f2:
                    8f:69:67:0f:c1:4e:33:cf:fc:85:5e:bb:5e:cf:93:
                    b0:cf:d9:f4:52:79:87:b1:f8:4d:15:68:65:d5:b7:
                    19:08:63:7f:5e:b1:34:ad:05:8f:5a:f0:e4:e1:8f:
                    25:f2:5c:5c:61:95:b0:56:2d:31:2b:08:65:79:e5:
                    b1:3b:9d:3e:b9:52:4b:ac:5d:c4:58:66:85:8d:81:
                    b3:04:28:f4:3f:2f:ac:92:01:62:d5:fd:8e:0b:da:
                    02:0c:7a:c7:6e:09:1c:ac:1c:b2:4c:d7:54:b8:26:
                    33:b2:5f:14:f3:b1:f9:3d:62:4d:40:99:6b:b6:e7:
                    89:58:97:d6:d4:4d:ea:4b:68:52:f3:3c:a8:b1:35:
                    88:db
                Exponent: 65537 (0x10001)
        X509v3 extensions:
            X509v3 Subject Key Identifier: 
                A1:DF:33:C3:CF:3E:53:41:A7:68:44:CC:AA:19:E1:84:C9:0D:BC:C6
            X509v3 Authority Key Identifier: 
                keyid:B4:11:33:F1:D7:E2:5E:F7:53:9E:20:22:10:4F:86:06:BF:1F:C9:5E
                DirName:/C=AU/O=Dodgy Brothers/CN=Dodgy CA
                serial:25:60:FA:C9:CE:18:C7:8F:C1:DF:20:3C:6A:4A:69:ED:BD:52:69:EC
            X509v3 Basic Constraints: critical
                CA:TRUE, pathlen:1
            X509v3 Key Usage: 
                Certificate Sign, CRL Sign
            X509v3 Issuer Alternative Name: 
                <EMPTY>

    Signature Algorithm: sha1WithRSAEncryption
    Signature Value:
        59:48:7b:d9:36:d2:e6:07:6b:5c:03:bc:0a:f3:0b:d6:19:a7:
        e6:3f:58:57:33:e2:00:13:68:44:11:95:08:66:a0:dd:00:7a:
        9c:74:17:02:0f:ce:55:fb:60:18:58:50:de:80:71:d6:b5:8e:
        ce:94:9d:f5:5d:2d:ef:35:45:0c:26:21:44:95:c3:9f:4d:56:
        d1:08:94:a1:b4:6c:b2:60:6c:89:4d:72:40:3c:32:26:cd:cf:
        5e:58:6a:c6:07:74:94:84:88:d7:b4:2f:05:fc:61:19:23:0b:
        c2:58:de:a9:53:07:d5:a9:cd:af:6a:70:15:f3:65:1e:c1:6f:
        7e:5b:d5:68:00:b0:28:5b:4c:68:04:3f:54:be:d0:98:2f:70:
        34:fc:fe:60:6e:47:06:7d:c5:6d:01:db:cc:90:12:98:f8:e2:
        a4:39:19:d2:33:33:be:15:3e:ae:d5:64:ff:4d:05:a7:5d:f4:
        91:6b:2a:23:9f:78:9c:00:7e:b1:b1:09:4c:e1:e0:a7:7b:5c:
        f1:30:3f:9c:69:8f:22:15:0d:cb:53:20:f4:f0:53:63:ed:b9:
        e4:cd:9b:c2:81:cc:54:21:c4:6e:36:68:79:bb:26:98:31:d4:
        b7:32:7e:d3:23:8b:de:14:1e:f6:41:7d:f7:47:82:31:40:de:
        18:c9:76:f3
-----BEGIN CERTIFICATE-----
MIID4zCCAsugAwIBAgIULy4LUvKSdQHBEr3IStKK3OiGet0wDQYJKoZIhvcNAQEF
BQAwOTELMAkGA1UEBhMCQVUxFzAVBgNVBAoMDkRvZGd5IEJyb3RoZXJzMREwDwYD
VQQDDAhEb2RneSBDQTAeFw0yNDA4MjUwNTA4MDRaFw0yNTA4MjUwNTA4MDRaMFcx
CzAJBgNVBAYTAkFVMRcwFQYDVQQKDA5Eb2RneSBCcm90aGVyczESMBAGA1UEAwwJ
QnJvdGhlciAxMRswGQYDVQQDDBJsYXN0dXBkYXRlX3V0Y3RpbWUwggEiMA0GCSqG
SIb3DQEBAQUAA4IBDwAwggEKAoIBAQC+lYb6cUxq6lGYUEuZoSxmFfNg8+H/afvO
SAEd/uEsOLDjvY9LSKd+OsZz46u/4dpulvX+w+S0qK28VjTUliV0J8MQ2zUQJRyO
S4Gb+0IEfG894jhsDuQujioYbTDNZyojazfPBZ/Mt1lYf7rECj+MpK3LmJzA8o9p
Zw/BTjPP/IVeu17Pk7DP2fRSeYex+E0VaGXVtxkIY39esTStBY9a8OThjyXyXFxh
lbBWLTErCGV55bE7nT65UkusXcRYZoWNgbMEKPQ/L6ySAWLV/Y4L2gIMesduCRys
HLJM11S4JjOyXxTzsfk9Yk1AmWu254lYl9bUTepLaFLzPKixNYjbAgMBAAGjgcQw
gcEwHQYDVR0OBBYEFKHfM8PPPlNBp2hEzKoZ4YTJDbzGMHQGA1UdIwRtMGuAFLQR
M/HX4l73U54gIhBPhga/H8leoT2kOzA5MQswCQYDVQQGEwJBVTEXMBUGA1UECgwO
RG9kZ3kgQnJvdGhlcnMxETAPBgNVBAMMCERvZGd5IENBghQlYPrJzhjHj8HfIDxq
SmntvVJp7DASBgNVHRMBAf8ECDAGAQH/AgEBMAsGA1UdDwQEAwIBBjAJBgNVHRIE
AjAAMA0GCSqGSIb3DQEBBQUAA4IBAQBZSHvZNtLmB2tcA7wK8wvWGafmP1hXM+IA
E2hEEZUIZqDdAHqcdBcCD85V+2AYWFDegHHWtY7OlJ31XS3vNUUMJiFElcOfTVbR
CJShtGyyYGyJTXJAPDImzc9eWGrGB3SUhIjXtC8F/GEZIwvCWN6pUwfVqc2vanAV
82UewW9+W9VoALAoW0xoBD9UvtCYL3A0/P5gbkcGfcVtAdvMkBKY+OKkORnSMzO+
FT6u1WT/TQWnXfSRayojn3icAH6xsQlM4eCne1zxMD+caY8iFQ3LUyD08FNj7bnk
zZvCgcxUIcRuNmh5uyaYMdS3Mn7TI4veFB72QX33R4IxQN4YyXbz
-----END CERTIFICATE-----
