Certificate:
    Data:
        Version: 3 (0x2)
        Serial Number:
            2f:2e:0b:52:f2:92:75:01:c1:12:bd:c8:4a:d2:8a:dc:e8:86:7a:e0
        Signature Algorithm: sha1WithRSAEncryption
        Issuer: C=AU, O=Dodgy Brothers, CN=Dodgy CA
        Validity
            Not Before: Aug 25 05:08:04 2024 GMT
            Not After : Aug 25 05:08:04 2025 GMT
        Subject: C=AU, O=Dodgy Brothers, CN=Brother 1, CN=nextupdate_utctime
        Subject Public Key Info:
            Public Key Algorithm: rsaEncryption
                Public-Key: (2048 bit)
                Modulus:
                    00:be:95:86:fa:71:4c:6a:ea:51:98:50:4b:99:a1:
                    2c:66:15:f3:60:f3:e1:ff:69:fb:ce:48:01:1d:fe:
                    e1:2c:38:b0:e3:bd:8f:4b:48:a7:7e:3a:c6:73:e3:
                    ab:bf:e1:da:6e:96:f5:fe:c3:e4:b4:a8:ad:bc:56:
                    34:d4:96:25:74:27:c3:10:db:35:10:25:1c:8e:4b:
                    81:9b:fb:42:04:7c:6f:3d:e2:38:6c:0e:e4:2e:8e:
                    2a:18:6d:30:cd:67:2a:23:6b:37:cf:05:9f:cc:b7:
                    59:58:7f:ba:c4:0a:3f:8c:a4:ad:cb:98:9c:c0:f2:
                    8f:69:67:0f:c1:4e:33:cf:fc:85:5e:bb:5e:cf:93:
                    b0:cf:d9:f4:52:79:87:b1:f8:4d:15:68:65:d5:b7:
                    19:08:63:7f:5e:b1:34:ad:05:8f:5a:f0:e4:e1:8f:
                    25:f2:5c:5c:61:95:b0:56:2d:31:2b:08:65:79:e5:
                    b1:3b:9d:3e:b9:52:4b:ac:5d:c4:58:66:85:8d:81:
                    b3:04:28:f4:3f:2f:ac:92:01:62:d5:fd:8e:0b:da:
                    02:0c:7a:c7:6e:09:1c:ac:1c:b2:4c:d7:54:b8:26:
                    33:b2:5f:14:f3:b1:f9:3d:62:4d:40:99:6b:b6:e7:
                    89:58:97:d6:d4:4d:ea:4b:68:52:f3:3c:a8:b1:35:
                    88:db
                Exponent: 65537 (0x10001)
        X509v3 extensions:
            X509v3 Subject Key Identifier: 
                A1:DF:33:C3:CF:3E:53:41:A7:68:44:CC:AA:19:E1:84:C9:0D:BC:C6
            X509v3 Authority Key Identifier: 
                keyid:B4:11:33:F1:D7:E2:5E:F7:53:9E:20:22:10:4F:86:06:BF:1F:C9:5E
                DirName:/C=AU/O=Dodgy Brothers/CN=Dodgy CA
                serial:25:60:FA:C9:CE:18:C7:8F:C1:DF:20:3C:6A:4A:69:ED:BD:52:69:EC
            X509v3 Basic Constraints: critical
                CA:TRUE, pathlen:1
            X509v3 Key Usage: 
                Certificate Sign, CRL Sign
            X509v3 Issuer Alternative Name: 
                <EMPTY>

    Signature Algorithm: sha1WithRSAEncryption
    Signature Value:
        0d:c0:89:82:16:2c:58:ac:96:d0:c4:7d:06:3d:86:88:8b:4b:
        d5:39:6c:36:f7:e7:b2:1d:ed:2c:41:0a:d3:a8:ff:1d:c5:c0:
        24:95:29:65:5a:cd:58:0b:64:79:7e:be:07:7b:95:b1:1b:cc:
        55:8d:4a:f2:51:c3:0b:51:31:e6:9c:cc:97:bd:46:8c:b9:f1:
        29:9d:54:20:e8:83:95:7b:e4:6b:ef:0a:45:53:15:91:a1:67:
        5c:c4:a2:5e:88:a5:59:7b:6f:f6:c6:e6:f3:be:2b:b5:ee:60:
        9f:4b:86:c7:52:72:e7:02:7e:b3:4d:8e:dc:15:bd:60:f1:63:
        76:cc:13:60:6d:9a:60:71:96:dc:c3:3a:b9:f5:16:06:b5:01:
        89:46:8d:86:96:c3:46:e2:1c:dc:92:90:7c:64:0a:b7:3e:ab:
        2b:9c:2c:f8:d8:b3:dd:9f:51:7b:d4:cc:43:c4:78:2a:0f:4f:
        5a:02:54:b2:a6:ce:6d:50:8b:29:dd:0f:dc:a9:02:3e:83:bd:
        fc:40:e3:4e:06:7e:94:d3:86:2f:bc:25:c5:f9:8b:34:b3:62:
        da:78:5a:63:60:5d:66:73:6b:53:db:ff:d5:a2:3e:71:b1:09:
        60:32:9c:2f:97:28:b7:8e:69:5e:08:1a:45:b8:94:8f:17:42:
        64:6a:31:73
-----BEGIN CERTIFICATE-----
MIID4zCCAsugAwIBAgIULy4LUvKSdQHBEr3IStKK3OiGeuAwDQYJKoZIhvcNAQEF
BQAwOTELMAkGA1UEBhMCQVUxFzAVBgNVBAoMDkRvZGd5IEJyb3RoZXJzMREwDwYD
VQQDDAhEb2RneSBDQTAeFw0yNDA4MjUwNTA4MDRaFw0yNTA4MjUwNTA4MDRaMFcx
CzAJBgNVBAYTAkFVMRcwFQYDVQQKDA5Eb2RneSBCcm90aGVyczESMBAGA1UEAwwJ
QnJvdGhlciAxMRswGQYDVQQDDBJuZXh0dXBkYXRlX3V0Y3RpbWUwggEiMA0GCSqG
SIb3DQEBAQUAA4IBDwAwggEKAoIBAQC+lYb6cUxq6lGYUEuZoSxmFfNg8+H/afvO
SAEd/uEsOLDjvY9LSKd+OsZz46u/4dpulvX+w+S0qK28VjTUliV0J8MQ2zUQJRyO
S4Gb+0IEfG894jhsDuQujioYbTDNZyojazfPBZ/Mt1lYf7rECj+MpK3LmJzA8o9p
Zw/BTjPP/IVeu17Pk7DP2fRSeYex+E0VaGXVtxkIY39esTStBY9a8OThjyXyXFxh
lbBWLTErCGV55bE7nT65UkusXcRYZoWNgbMEKPQ/L6ySAWLV/Y4L2gIMesduCRys
HLJM11S4JjOyXxTzsfk9Yk1AmWu254lYl9bUTepLaFLzPKixNYjbAgMBAAGjgcQw
gcEwHQYDVR0OBBYEFKHfM8PPPlNBp2hEzKoZ4YTJDbzGMHQGA1UdIwRtMGuAFLQR
M/HX4l73U54gIhBPhga/H8leoT2kOzA5MQswCQYDVQQGEwJBVTEXMBUGA1UECgwO
RG9kZ3kgQnJvdGhlcnMxETAPBgNVBAMMCERvZGd5IENBghQlYPrJzhjHj8HfIDxq
SmntvVJp7DASBgNVHRMBAf8ECDAGAQH/AgEBMAsGA1UdDwQEAwIBBjAJBgNVHRIE
AjAAMA0GCSqGSIb3DQEBBQUAA4IBAQANwImCFixYrJbQxH0GPYaIi0vVOWw29+ey
He0sQQrTqP8dxcAklSllWs1YC2R5fr4He5WxG8xVjUryUcMLUTHmnMyXvUaMufEp
nVQg6IOVe+Rr7wpFUxWRoWdcxKJeiKVZe2/2xubzviu17mCfS4bHUnLnAn6zTY7c
Fb1g8WN2zBNgbZpgcZbcwzq59RYGtQGJRo2GlsNG4hzckpB8ZAq3PqsrnCz42LPd
n1F71MxDxHgqD09aAlSyps5tUIsp3Q/cqQI+g738QONOBn6U04YvvCXF+Ys0s2La
eFpjYF1mc2tT2//Voj5xsQlgMpwvlyi3jmleCBpFuJSPF0JkajFz
-----END CERTIFICATE-----
