Certificate:
    Data:
        Version: 3 (0x2)
        Serial Number:
            2f:2e:0b:52:f2:92:75:01:c1:12:bd:c8:4a:d2:8a:dc:e8:86:7a:db
        Signature Algorithm: sha1WithRSAEncryption
        Issuer: C=AU, O=Dodgy Brothers, CN=Dodgy CA
        Validity
            Not Before: Aug 25 05:08:04 2024 GMT
            Not After : Aug 25 05:08:04 2025 GMT
        Subject: C=AU, O=Dodgy Brothers, CN=Brother 1, CN=notimes
        Subject Public Key Info:
            Public Key Algorithm: rsaEncryption
                Public-Key: (2048 bit)
                Modulus:
                    00:be:95:86:fa:71:4c:6a:ea:51:98:50:4b:99:a1:
                    2c:66:15:f3:60:f3:e1:ff:69:fb:ce:48:01:1d:fe:
                    e1:2c:38:b0:e3:bd:8f:4b:48:a7:7e:3a:c6:73:e3:
                    ab:bf:e1:da:6e:96:f5:fe:c3:e4:b4:a8:ad:bc:56:
                    34:d4:96:25:74:27:c3:10:db:35:10:25:1c:8e:4b:
                    81:9b:fb:42:04:7c:6f:3d:e2:38:6c:0e:e4:2e:8e:
                    2a:18:6d:30:cd:67:2a:23:6b:37:cf:05:9f:cc:b7:
                    59:58:7f:ba:c4:0a:3f:8c:a4:ad:cb:98:9c:c0:f2:
                    8f:69:67:0f:c1:4e:33:cf:fc:85:5e:bb:5e:cf:93:
                    b0:cf:d9:f4:52:79:87:b1:f8:4d:15:68:65:d5:b7:
                    19:08:63:7f:5e:b1:34:ad:05:8f:5a:f0:e4:e1:8f:
                    25:f2:5c:5c:61:95:b0:56:2d:31:2b:08:65:79:e5:
                    b1:3b:9d:3e:b9:52:4b:ac:5d:c4:58:66:85:8d:81:
                    b3:04:28:f4:3f:2f:ac:92:01:62:d5:fd:8e:0b:da:
                    02:0c:7a:c7:6e:09:1c:ac:1c:b2:4c:d7:54:b8:26:
                    33:b2:5f:14:f3:b1:f9:3d:62:4d:40:99:6b:b6:e7:
                    89:58:97:d6:d4:4d:ea:4b:68:52:f3:3c:a8:b1:35:
                    88:db
                Exponent: 65537 (0x10001)
        X509v3 extensions:
            X509v3 Subject Key Identifier: 
                A1:DF:33:C3:CF:3E:53:41:A7:68:44:CC:AA:19:E1:84:C9:0D:BC:C6
            X509v3 Authority Key Identifier: 
                keyid:B4:11:33:F1:D7:E2:5E:F7:53:9E:20:22:10:4F:86:06:BF:1F:C9:5E
                DirName:/C=AU/O=Dodgy Brothers/CN=Dodgy CA
                serial:25:60:FA:C9:CE:18:C7:8F:C1:DF:20:3C:6A:4A:69:ED:BD:52:69:EC
            X509v3 Basic Constraints: critical
                CA:TRUE, pathlen:1
            X509v3 Key Usage: 
                Certificate Sign, CRL Sign
            X509v3 Issuer Alternative Name: 
                <EMPTY>

    Signature Algorithm: sha1WithRSAEncryption
    Signature Value:
        36:f7:98:40:4f:3e:db:37:59:fc:56:f5:f7:cd:d4:66:fe:37:
        7d:10:d8:33:78:62:4c:11:bf:55:85:df:10:28:b8:a1:c8:44:
        8e:b7:aa:a7:ef:94:6e:b1:32:4e:52:0e:41:6c:a6:0e:46:6b:
        d8:93:d0:30:a8:db:82:d9:13:57:fe:bc:17:04:81:95:cf:59:
        fb:03:18:47:46:a3:09:df:61:1f:cf:c9:37:14:08:1e:98:c9:
        f1:c0:0b:18:1e:fd:c0:99:31:e6:33:be:dd:22:e8:ea:c0:07:
        51:3b:b4:86:39:7c:8c:28:8a:e2:f1:92:fb:38:f7:a8:a0:d3:
        19:52:02:4a:b1:72:0f:be:e8:e0:ff:1d:06:d1:06:e9:da:d1:
        5c:a1:42:d2:25:c9:98:09:0e:f2:26:df:38:0a:48:43:fc:39:
        13:bc:10:b6:77:52:1a:ff:42:df:15:7a:11:80:6e:b9:32:0a:
        71:9a:17:50:07:ac:fc:39:4d:28:78:f4:4c:57:00:4c:28:e1:
        c6:d4:ae:24:08:33:4f:30:f0:c6:b4:52:c7:44:92:ec:64:65:
        3c:9b:3e:55:69:e0:bc:1e:ee:62:73:66:35:29:99:da:f7:b6:
        18:71:41:2f:11:bb:43:eb:d0:39:e4:38:39:fa:b4:fb:b3:9c:
        c7:03:75:83
-----BEGIN CERTIFICATE-----
MIID2DCCAsCgAwIBAgIULy4LUvKSdQHBEr3IStKK3OiGetswDQYJKoZIhvcNAQEF
BQAwOTELMAkGA1UEBhMCQVUxFzAVBgNVBAoMDkRvZGd5IEJyb3RoZXJzMREwDwYD
VQQDDAhEb2RneSBDQTAeFw0yNDA4MjUwNTA4MDRaFw0yNTA4MjUwNTA4MDRaMEwx
CzAJBgNVBAYTAkFVMRcwFQYDVQQKDA5Eb2RneSBCcm90aGVyczESMBAGA1UEAwwJ
QnJvdGhlciAxMRAwDgYDVQQDDAdub3RpbWVzMIIBIjANBgkqhkiG9w0BAQEFAAOC
AQ8AMIIBCgKCAQEAvpWG+nFMaupRmFBLmaEsZhXzYPPh/2n7zkgBHf7hLDiw472P
S0infjrGc+Orv+Habpb1/sPktKitvFY01JYldCfDENs1ECUcjkuBm/tCBHxvPeI4
bA7kLo4qGG0wzWcqI2s3zwWfzLdZWH+6xAo/jKSty5icwPKPaWcPwU4zz/yFXrte
z5Owz9n0UnmHsfhNFWhl1bcZCGN/XrE0rQWPWvDk4Y8l8lxcYZWwVi0xKwhleeWx
O50+uVJLrF3EWGaFjYGzBCj0Py+skgFi1f2OC9oCDHrHbgkcrByyTNdUuCYzsl8U
87H5PWJNQJlrtueJWJfW1E3qS2hS8zyosTWI2wIDAQABo4HEMIHBMB0GA1UdDgQW
BBSh3zPDzz5TQadoRMyqGeGEyQ28xjB0BgNVHSMEbTBrgBS0ETPx1+Je91OeICIQ
T4YGvx/JXqE9pDswOTELMAkGA1UEBhMCQVUxFzAVBgNVBAoMDkRvZGd5IEJyb3Ro
ZXJzMREwDwYDVQQDDAhEb2RneSBDQYIUJWD6yc4Yx4/B3yA8akpp7b1SaewwEgYD
VR0TAQH/BAgwBgEB/wIBATALBgNVHQ8EBAMCAQYwCQYDVR0SBAIwADANBgkqhkiG
9w0BAQUFAAOCAQEANveYQE8+2zdZ/Fb1983UZv43fRDYM3hiTBG/VYXfECi4ochE
jreqp++UbrEyTlIOQWymDkZr2JPQMKjbgtkTV/68FwSBlc9Z+wMYR0ajCd9hH8/J
NxQIHpjJ8cALGB79wJkx5jO+3SLo6sAHUTu0hjl8jCiK4vGS+zj3qKDTGVICSrFy
D77o4P8dBtEG6drRXKFC0iXJmAkO8ibfOApIQ/w5E7wQtndSGv9C3xV6EYBuuTIK
cZoXUAes/DlNKHj0TFcATCjhxtSuJAgzTzDwxrRSx0SS7GRlPJs+VWngvB7uYnNm
NSmZ2ve2GHFBLxG7Q+vQOeQ4Ofq0+7OcxwN1gw==
-----END CERTIFICATE-----
