Certificate:
    Data:
        Version: 3 (0x2)
        Serial Number:
            2f:2e:0b:52:f2:92:75:01:c1:12:bd:c8:4a:d2:8a:dc:e8:86:7a:da
        Signature Algorithm: sha1WithRSAEncryption
        Issuer: C=AU, O=Dodgy Brothers, CN=Dodgy CA
        Validity
            Not Before: Aug 25 05:08:03 2024 GMT
            Not After : Aug 25 05:08:03 2025 GMT
        Subject: CN=x509-check-test
        Subject Public Key Info:
            Public Key Algorithm: rsaEncryption
                Public-Key: (2048 bit)
                Modulus:
                    00:9d:ea:3a:60:16:23:3f:65:6e:9d:08:99:44:23:
                    19:8a:93:ba:c7:ec:c4:4b:f7:7c:16:df:6a:39:76:
                    e4:f0:b5:3d:5c:b3:fc:be:ca:57:de:cb:49:79:b5:
                    80:73:18:cc:63:50:f3:5e:60:64:c1:aa:2b:b3:ea:
                    e7:95:c8:cb:db:7b:7c:32:99:73:e9:fb:3c:e8:6a:
                    ad:e2:7f:72:72:71:bf:b5:82:ea:d2:ca:24:29:17:
                    a4:f5:3c:b9:9f:24:38:10:41:3d:17:9c:8e:ea:47:
                    01:c8:e4:52:53:bc:a3:3d:9a:9b:f7:88:aa:21:06:
                    c7:93:fd:af:32:7d:d9:36:ef:31:58:ad:23:19:8d:
                    f6:aa:65:cf:b4:6b:5f:1b:1e:2f:d2:80:d3:77:e8:
                    b8:fe:be:73:dc:b3:60:f3:4b:cc:a6:04:9d:74:66:
                    ae:a2:73:2e:b1:2f:7d:2c:1c:32:8f:38:a2:ab:0f:
                    cf:84:27:ab:2e:52:6e:42:a4:b2:f8:37:a8:cf:3a:
                    69:3d:0e:3e:d7:42:fd:98:c2:85:f6:4b:46:2c:e9:
                    d1:69:1e:e1:81:27:53:67:80:15:bf:d1:99:bd:a2:
                    c7:83:3b:1c:6a:a6:53:c6:21:86:bc:9c:de:c1:22:
                    b4:f0:00:91:21:92:62:93:12:2f:4f:f0:03:c8:8b:
                    a0:d5
                Exponent: 65537 (0x10001)
        X509v3 extensions:
            X509v3 Subject Key Identifier: 
                BF:D8:68:6F:B9:F3:A1:9A:3C:92:2E:40:E7:F8:72:A8:92:89:37:7E
            X509v3 Authority Key Identifier: 
                B4:11:33:F1:D7:E2:5E:F7:53:9E:20:22:10:4F:86:06:BF:1F:C9:5E
    Signature Algorithm: sha1WithRSAEncryption
    Signature Value:
        15:d3:82:dc:b9:83:94:f0:05:40:b5:ab:ba:05:2c:48:31:d0:
        53:b9:34:99:fe:33:52:16:9f:01:68:1f:cb:1d:5b:00:9f:ee:
        b1:54:62:87:5d:04:3b:2d:8f:8e:09:b7:ab:91:27:12:5d:dc:
        b2:b7:b1:a4:59:c6:0c:43:05:8e:a2:c0:db:da:b3:1f:67:06:
        af:90:e6:41:b5:e9:92:d8:d7:5b:db:8f:66:20:17:d2:25:8c:
        7c:f6:ea:77:ad:b6:9c:8b:14:7f:a4:85:3b:fd:c8:cb:14:6e:
        11:10:62:3b:d6:f4:01:d0:93:17:80:d5:78:f3:3c:f3:d9:85:
        a5:9f:e1:6d:d9:17:ec:ce:ba:8a:f4:7b:12:06:78:2d:b8:68:
        f6:ed:1e:9a:bf:d8:a8:d6:b2:7e:a4:aa:1e:8a:23:4b:28:64:
        ef:d1:9c:f6:87:9e:37:b5:c5:1d:f5:48:1d:20:05:73:80:40:
        a0:3a:72:36:91:3c:4a:85:de:7b:8b:10:db:b3:e5:8c:4b:11:
        b9:86:7f:55:ec:5a:54:57:da:f9:16:2b:3b:79:bb:cd:90:92:
        6b:eb:38:dc:7c:fa:5f:2b:90:b7:31:88:eb:a5:5d:1c:49:15:
        c1:2c:ce:e5:2f:9f:47:a6:54:26:43:e9:89:cb:26:c6:41:64:
        76:5e:ec:2e
-----BEGIN CERTIFICATE-----
MIIDIzCCAgugAwIBAgIULy4LUvKSdQHBEr3IStKK3OiGetowDQYJKoZIhvcNAQEF
BQAwOTELMAkGA1UEBhMCQVUxFzAVBgNVBAoMDkRvZGd5IEJyb3RoZXJzMREwDwYD
VQQDDAhEb2RneSBDQTAeFw0yNDA4MjUwNTA4MDNaFw0yNTA4MjUwNTA4MDNaMBox
GDAWBgNVBAMMD3g1MDktY2hlY2stdGVzdDCCASIwDQYJKoZIhvcNAQEBBQADggEP
ADCCAQoCggEBAJ3qOmAWIz9lbp0ImUQjGYqTusfsxEv3fBbfajl25PC1PVyz/L7K
V97LSXm1gHMYzGNQ815gZMGqK7Pq55XIy9t7fDKZc+n7POhqreJ/cnJxv7WC6tLK
JCkXpPU8uZ8kOBBBPRecjupHAcjkUlO8oz2am/eIqiEGx5P9rzJ92TbvMVitIxmN
9qplz7RrXxseL9KA03fouP6+c9yzYPNLzKYEnXRmrqJzLrEvfSwcMo84oqsPz4Qn
qy5SbkKksvg3qM86aT0OPtdC/ZjChfZLRizp0Wke4YEnU2eAFb/Rmb2ix4M7HGqm
U8Yhhryc3sEitPAAkSGSYpMSL0/wA8iLoNUCAwEAAaNCMEAwHQYDVR0OBBYEFL/Y
aG+586GaPJIuQOf4cqiSiTd+MB8GA1UdIwQYMBaAFLQRM/HX4l73U54gIhBPhga/
H8leMA0GCSqGSIb3DQEBBQUAA4IBAQAV04LcuYOU8AVAtau6BSxIMdBTuTSZ/jNS
Fp8BaB/LHVsAn+6xVGKHXQQ7LY+OCberkScSXdyyt7GkWcYMQwWOosDb2rMfZwav
kOZBtemS2Ndb249mIBfSJYx89up3rbacixR/pIU7/cjLFG4REGI71vQB0JMXgNV4
8zzz2YWln+Ft2RfszrqK9HsSBngtuGj27R6av9io1rJ+pKoeiiNLKGTv0Zz2h543
tcUd9UgdIAVzgECgOnI2kTxKhd57ixDbs+WMSxG5hn9V7FpUV9r5Fis7ebvNkJJr
6zjcfPpfK5C3MYjrpV0cSRXBLM7lL59HplQmQ+mJyybGQWR2Xuwu
-----END CERTIFICATE-----
