Certificate:
    Data:
        Version: 3 (0x2)
        Serial Number:
            13:db:58:35:4b:c4:c7:ce:72:36:f6:6b:7f:77:6e:01:21:1b:79:fd
        Signature Algorithm: sha1WithRSAEncryption
        Issuer: C=AU, O=Dodgy Brothers, CN=Dodgy CA
        Validity
            Not Before: Aug 27 15:18:12 2024 GMT
            Not After : Aug 27 15:18:12 2025 GMT
        Subject: C=AU, O=Dodgy Brothers, CN=Brother 1, CN=lastupdate_generalizedtime
        Subject Public Key Info:
            Public Key Algorithm: rsaEncryption
                Public-Key: (2048 bit)
                Modulus:
                    00:be:95:86:fa:71:4c:6a:ea:51:98:50:4b:99:a1:
                    2c:66:15:f3:60:f3:e1:ff:69:fb:ce:48:01:1d:fe:
                    e1:2c:38:b0:e3:bd:8f:4b:48:a7:7e:3a:c6:73:e3:
                    ab:bf:e1:da:6e:96:f5:fe:c3:e4:b4:a8:ad:bc:56:
                    34:d4:96:25:74:27:c3:10:db:35:10:25:1c:8e:4b:
                    81:9b:fb:42:04:7c:6f:3d:e2:38:6c:0e:e4:2e:8e:
                    2a:18:6d:30:cd:67:2a:23:6b:37:cf:05:9f:cc:b7:
                    59:58:7f:ba:c4:0a:3f:8c:a4:ad:cb:98:9c:c0:f2:
                    8f:69:67:0f:c1:4e:33:cf:fc:85:5e:bb:5e:cf:93:
                    b0:cf:d9:f4:52:79:87:b1:f8:4d:15:68:65:d5:b7:
                    19:08:63:7f:5e:b1:34:ad:05:8f:5a:f0:e4:e1:8f:
                    25:f2:5c:5c:61:95:b0:56:2d:31:2b:08:65:79:e5:
                    b1:3b:9d:3e:b9:52:4b:ac:5d:c4:58:66:85:8d:81:
                    b3:04:28:f4:3f:2f:ac:92:01:62:d5:fd:8e:0b:da:
                    02:0c:7a:c7:6e:09:1c:ac:1c:b2:4c:d7:54:b8:26:
                    33:b2:5f:14:f3:b1:f9:3d:62:4d:40:99:6b:b6:e7:
                    89:58:97:d6:d4:4d:ea:4b:68:52:f3:3c:a8:b1:35:
                    88:db
                Exponent: 65537 (0x10001)
        X509v3 extensions:
            X509v3 Subject Key Identifier: 
                A1:DF:33:C3:CF:3E:53:41:A7:68:44:CC:AA:19:E1:84:C9:0D:BC:C6
            X509v3 Authority Key Identifier: 
                keyid:B4:11:33:F1:D7:E2:5E:F7:53:9E:20:22:10:4F:86:06:BF:1F:C9:5E
                DirName:/C=AU/O=Dodgy Brothers/CN=Dodgy CA
                serial:19:5A:3C:54:A5:37:6D:D0:6B:A6:93:61:42:60:27:C9:9E:53:AF:40
            X509v3 Basic Constraints: critical
                CA:TRUE, pathlen:1
            X509v3 Key Usage: 
                Certificate Sign, CRL Sign
            X509v3 Issuer Alternative Name: 
                <EMPTY>

    Signature Algorithm: sha1WithRSAEncryption
    Signature Value:
        7c:71:ba:93:4c:b4:d2:b7:93:74:ad:41:40:b4:e5:83:63:da:
        51:a2:c2:e1:a8:a9:31:57:1e:2d:21:00:05:ea:b7:4b:e0:e5:
        8e:2c:0c:c8:96:b7:7e:01:b4:fa:19:95:ac:eb:68:2b:10:90:
        96:ef:e4:a4:3c:05:2b:02:9a:d5:82:aa:2e:c9:5a:a0:9f:2b:
        7d:5e:97:44:7c:f8:e2:09:f9:06:c1:da:31:5f:c4:0c:ce:8b:
        c4:38:07:e6:ce:25:97:a8:a0:33:51:7e:74:9c:65:da:20:cb:
        3b:7c:d2:c5:02:3d:3f:1d:a6:7f:bc:52:a6:bd:c8:65:b8:49:
        97:62:ca:1a:f4:80:88:67:34:6d:5b:7f:25:cc:ba:ac:d9:f1:
        0f:29:a6:35:b2:95:ba:79:eb:6c:6a:29:53:0d:b7:a6:b2:1f:
        bf:9d:01:bf:7e:97:14:dd:57:87:15:4e:fa:9d:6a:a9:55:2d:
        f9:7c:1a:0b:fb:2f:71:8e:51:ca:49:1c:55:b0:64:b6:02:06:
        bd:31:e9:84:3f:61:d1:e9:d8:0c:e4:49:3e:73:9d:ea:63:99:
        ee:00:d8:82:29:45:e3:ff:78:ac:2a:2d:d7:35:30:61:93:1e:
        17:2b:2d:ee:d1:59:b4:7e:50:79:87:f5:67:2b:f2:6a:c4:d7:
        e3:ef:1c:f7
-----BEGIN CERTIFICATE-----
MIID6zCCAtOgAwIBAgIUE9tYNUvEx85yNvZrf3duASEbef0wDQYJKoZIhvcNAQEF
BQAwOTELMAkGA1UEBhMCQVUxFzAVBgNVBAoMDkRvZGd5IEJyb3RoZXJzMREwDwYD
VQQDDAhEb2RneSBDQTAeFw0yNDA4MjcxNTE4MTJaFw0yNTA4MjcxNTE4MTJaMF8x
CzAJBgNVBAYTAkFVMRcwFQYDVQQKDA5Eb2RneSBCcm90aGVyczESMBAGA1UEAwwJ
QnJvdGhlciAxMSMwIQYDVQQDDBpsYXN0dXBkYXRlX2dlbmVyYWxpemVkdGltZTCC
ASIwDQYJKoZIhvcNAQEBBQADggEPADCCAQoCggEBAL6VhvpxTGrqUZhQS5mhLGYV
82Dz4f9p+85IAR3+4Sw4sOO9j0tIp346xnPjq7/h2m6W9f7D5LSorbxWNNSWJXQn
wxDbNRAlHI5LgZv7QgR8bz3iOGwO5C6OKhhtMM1nKiNrN88Fn8y3WVh/usQKP4yk
rcuYnMDyj2lnD8FOM8/8hV67Xs+TsM/Z9FJ5h7H4TRVoZdW3GQhjf16xNK0Fj1rw
5OGPJfJcXGGVsFYtMSsIZXnlsTudPrlSS6xdxFhmhY2BswQo9D8vrJIBYtX9jgva
Agx6x24JHKwcskzXVLgmM7JfFPOx+T1iTUCZa7bniViX1tRN6ktoUvM8qLE1iNsC
AwEAAaOBxDCBwTAdBgNVHQ4EFgQUod8zw88+U0GnaETMqhnhhMkNvMYwdAYDVR0j
BG0wa4AUtBEz8dfiXvdTniAiEE+GBr8fyV6hPaQ7MDkxCzAJBgNVBAYTAkFVMRcw
FQYDVQQKDA5Eb2RneSBCcm90aGVyczERMA8GA1UEAwwIRG9kZ3kgQ0GCFBlaPFSl
N23Qa6aTYUJgJ8meU69AMBIGA1UdEwEB/wQIMAYBAf8CAQEwCwYDVR0PBAQDAgEG
MAkGA1UdEgQCMAAwDQYJKoZIhvcNAQEFBQADggEBAHxxupNMtNK3k3StQUC05YNj
2lGiwuGoqTFXHi0hAAXqt0vg5Y4sDMiWt34BtPoZlazraCsQkJbv5KQ8BSsCmtWC
qi7JWqCfK31el0R8+OIJ+QbB2jFfxAzOi8Q4B+bOJZeooDNRfnScZdogyzt80sUC
PT8dpn+8Uqa9yGW4SZdiyhr0gIhnNG1bfyXMuqzZ8Q8ppjWylbp562xqKVMNt6ay
H7+dAb9+lxTdV4cVTvqdaqlVLfl8Ggv7L3GOUcpJHFWwZLYCBr0x6YQ/YdHp2Azk
ST5znepjme4A2IIpReP/eKwqLdc1MGGTHhcrLe7RWbR+UHmH9Wcr8mrE1+PvHPc=
-----END CERTIFICATE-----
