Certificate:
    Data:
        Version: 3 (0x2)
        Serial Number:
            13:db:58:35:4b:c4:c7:ce:72:36:f6:6b:7f:77:6e:01:21:1b:7a:00
        Signature Algorithm: sha1WithRSAEncryption
        Issuer: C=AU, O=Dodgy Brothers, CN=Dodgy CA
        Validity
            Not Before: Aug 27 15:18:13 2024 GMT
            Not After : Aug 27 15:18:13 2025 GMT
        Subject: C=AU, O=Dodgy Brothers, CN=Brother 1, CN=nextupdate_generalizedtime
        Subject Public Key Info:
            Public Key Algorithm: rsaEncryption
                Public-Key: (2048 bit)
                Modulus:
                    00:be:95:86:fa:71:4c:6a:ea:51:98:50:4b:99:a1:
                    2c:66:15:f3:60:f3:e1:ff:69:fb:ce:48:01:1d:fe:
                    e1:2c:38:b0:e3:bd:8f:4b:48:a7:7e:3a:c6:73:e3:
                    ab:bf:e1:da:6e:96:f5:fe:c3:e4:b4:a8:ad:bc:56:
                    34:d4:96:25:74:27:c3:10:db:35:10:25:1c:8e:4b:
                    81:9b:fb:42:04:7c:6f:3d:e2:38:6c:0e:e4:2e:8e:
                    2a:18:6d:30:cd:67:2a:23:6b:37:cf:05:9f:cc:b7:
                    59:58:7f:ba:c4:0a:3f:8c:a4:ad:cb:98:9c:c0:f2:
                    8f:69:67:0f:c1:4e:33:cf:fc:85:5e:bb:5e:cf:93:
                    b0:cf:d9:f4:52:79:87:b1:f8:4d:15:68:65:d5:b7:
                    19:08:63:7f:5e:b1:34:ad:05:8f:5a:f0:e4:e1:8f:
                    25:f2:5c:5c:61:95:b0:56:2d:31:2b:08:65:79:e5:
                    b1:3b:9d:3e:b9:52:4b:ac:5d:c4:58:66:85:8d:81:
                    b3:04:28:f4:3f:2f:ac:92:01:62:d5:fd:8e:0b:da:
                    02:0c:7a:c7:6e:09:1c:ac:1c:b2:4c:d7:54:b8:26:
                    33:b2:5f:14:f3:b1:f9:3d:62:4d:40:99:6b:b6:e7:
                    89:58:97:d6:d4:4d:ea:4b:68:52:f3:3c:a8:b1:35:
                    88:db
                Exponent: 65537 (0x10001)
        X509v3 extensions:
            X509v3 Subject Key Identifier: 
                A1:DF:33:C3:CF:3E:53:41:A7:68:44:CC:AA:19:E1:84:C9:0D:BC:C6
            X509v3 Authority Key Identifier: 
                keyid:B4:11:33:F1:D7:E2:5E:F7:53:9E:20:22:10:4F:86:06:BF:1F:C9:5E
                DirName:/C=AU/O=Dodgy Brothers/CN=Dodgy CA
                serial:19:5A:3C:54:A5:37:6D:D0:6B:A6:93:61:42:60:27:C9:9E:53:AF:40
            X509v3 Basic Constraints: critical
                CA:TRUE, pathlen:1
            X509v3 Key Usage: 
                Certificate Sign, CRL Sign
            X509v3 Issuer Alternative Name: 
                <EMPTY>

    Signature Algorithm: sha1WithRSAEncryption
    Signature Value:
        22:6a:6e:d6:aa:50:1e:40:de:1a:55:7a:be:f5:8d:63:17:69:
        41:ff:9d:18:46:d6:fc:96:45:a5:99:8f:38:c5:51:aa:db:ef:
        c3:bb:9e:0c:62:ea:01:e6:39:8c:3e:e5:91:ca:9c:71:13:ae:
        12:f1:52:cd:93:78:71:74:8d:43:0f:73:75:03:a7:3b:95:68:
        46:8a:9c:aa:67:07:7f:b9:78:8d:5a:38:53:6a:21:cc:f3:ef:
        be:c5:e3:74:13:31:9c:0b:d1:bc:c7:f6:ae:ac:c1:3a:a7:46:
        59:96:cf:54:9b:67:3b:d4:f4:b1:66:2a:ef:a5:81:5c:4d:51:
        dc:81:2a:fb:df:0b:02:1e:76:77:3a:8a:6b:79:a4:c1:0b:17:
        d2:39:46:06:ea:59:ef:bf:14:6e:c5:5f:16:a7:60:25:ac:a1:
        be:2a:77:fe:01:8e:cf:d1:66:1b:53:cc:01:66:4a:15:6a:21:
        fc:d7:8b:2f:0b:9a:e0:67:a8:e5:39:a3:14:15:a6:d5:fd:8e:
        49:f7:d6:74:7b:8f:4c:46:84:c8:11:42:2d:0c:98:35:ee:56:
        01:c2:bf:88:b9:46:70:26:df:d7:9c:07:53:11:8b:73:1a:aa:
        66:58:7c:89:b2:6f:67:cc:76:ff:90:1c:09:dc:4a:8e:46:0b:
        41:61:a7:98
-----BEGIN CERTIFICATE-----
MIID6zCCAtOgAwIBAgIUE9tYNUvEx85yNvZrf3duASEbegAwDQYJKoZIhvcNAQEF
BQAwOTELMAkGA1UEBhMCQVUxFzAVBgNVBAoMDkRvZGd5IEJyb3RoZXJzMREwDwYD
VQQDDAhEb2RneSBDQTAeFw0yNDA4MjcxNTE4MTNaFw0yNTA4MjcxNTE4MTNaMF8x
CzAJBgNVBAYTAkFVMRcwFQYDVQQKDA5Eb2RneSBCcm90aGVyczESMBAGA1UEAwwJ
QnJvdGhlciAxMSMwIQYDVQQDDBpuZXh0dXBkYXRlX2dlbmVyYWxpemVkdGltZTCC
ASIwDQYJKoZIhvcNAQEBBQADggEPADCCAQoCggEBAL6VhvpxTGrqUZhQS5mhLGYV
82Dz4f9p+85IAR3+4Sw4sOO9j0tIp346xnPjq7/h2m6W9f7D5LSorbxWNNSWJXQn
wxDbNRAlHI5LgZv7QgR8bz3iOGwO5C6OKhhtMM1nKiNrN88Fn8y3WVh/usQKP4yk
rcuYnMDyj2lnD8FOM8/8hV67Xs+TsM/Z9FJ5h7H4TRVoZdW3GQhjf16xNK0Fj1rw
5OGPJfJcXGGVsFYtMSsIZXnlsTudPrlSS6xdxFhmhY2BswQo9D8vrJIBYtX9jgva
Agx6x24JHKwcskzXVLgmM7JfFPOx+T1iTUCZa7bniViX1tRN6ktoUvM8qLE1iNsC
AwEAAaOBxDCBwTAdBgNVHQ4EFgQUod8zw88+U0GnaETMqhnhhMkNvMYwdAYDVR0j
BG0wa4AUtBEz8dfiXvdTniAiEE+GBr8fyV6hPaQ7MDkxCzAJBgNVBAYTAkFVMRcw
FQYDVQQKDA5Eb2RneSBCcm90aGVyczERMA8GA1UEAwwIRG9kZ3kgQ0GCFBlaPFSl
N23Qa6aTYUJgJ8meU69AMBIGA1UdEwEB/wQIMAYBAf8CAQEwCwYDVR0PBAQDAgEG
MAkGA1UdEgQCMAAwDQYJKoZIhvcNAQEFBQADggEBACJqbtaqUB5A3hpVer71jWMX
aUH/nRhG1vyWRaWZjzjFUarb78O7ngxi6gHmOYw+5ZHKnHETrhLxUs2TeHF0jUMP
c3UDpzuVaEaKnKpnB3+5eI1aOFNqIczz777F43QTMZwL0bzH9q6swTqnRlmWz1Sb
ZzvU9LFmKu+lgVxNUdyBKvvfCwIednc6imt5pMELF9I5RgbqWe+/FG7FXxanYCWs
ob4qd/4Bjs/RZhtTzAFmShVqIfzXiy8LmuBnqOU5oxQVptX9jkn31nR7j0xGhMgR
Qi0MmDXuVgHCv4i5RnAm39ecB1MRi3MaqmZYfImyb2fMdv+QHAncSo5GC0Fhp5g=
-----END CERTIFICATE-----
