Certificate:
    Data:
        Version: 3 (0x2)
        Serial Number:
            13:db:58:35:4b:c4:c7:ce:72:36:f6:6b:7f:77:6e:01:21:1b:79:fa
        Signature Algorithm: sha1WithRSAEncryption
        Issuer: C=AU, O=Dodgy Brothers, CN=Dodgy CA
        Validity
            Not Before: Aug 27 15:18:12 2024 GMT
            Not After : Aug 27 15:18:12 2025 GMT
        Subject: C=AU, O=Dodgy Brothers, CN=Brother 1, CN=notimes
        Subject Public Key Info:
            Public Key Algorithm: rsaEncryption
                Public-Key: (2048 bit)
                Modulus:
                    00:be:95:86:fa:71:4c:6a:ea:51:98:50:4b:99:a1:
                    2c:66:15:f3:60:f3:e1:ff:69:fb:ce:48:01:1d:fe:
                    e1:2c:38:b0:e3:bd:8f:4b:48:a7:7e:3a:c6:73:e3:
                    ab:bf:e1:da:6e:96:f5:fe:c3:e4:b4:a8:ad:bc:56:
                    34:d4:96:25:74:27:c3:10:db:35:10:25:1c:8e:4b:
                    81:9b:fb:42:04:7c:6f:3d:e2:38:6c:0e:e4:2e:8e:
                    2a:18:6d:30:cd:67:2a:23:6b:37:cf:05:9f:cc:b7:
                    59:58:7f:ba:c4:0a:3f:8c:a4:ad:cb:98:9c:c0:f2:
                    8f:69:67:0f:c1:4e:33:cf:fc:85:5e:bb:5e:cf:93:
                    b0:cf:d9:f4:52:79:87:b1:f8:4d:15:68:65:d5:b7:
                    19:08:63:7f:5e:b1:34:ad:05:8f:5a:f0:e4:e1:8f:
                    25:f2:5c:5c:61:95:b0:56:2d:31:2b:08:65:79:e5:
                    b1:3b:9d:3e:b9:52:4b:ac:5d:c4:58:66:85:8d:81:
                    b3:04:28:f4:3f:2f:ac:92:01:62:d5:fd:8e:0b:da:
                    02:0c:7a:c7:6e:09:1c:ac:1c:b2:4c:d7:54:b8:26:
                    33:b2:5f:14:f3:b1:f9:3d:62:4d:40:99:6b:b6:e7:
                    89:58:97:d6:d4:4d:ea:4b:68:52:f3:3c:a8:b1:35:
                    88:db
                Exponent: 65537 (0x10001)
        X509v3 extensions:
            X509v3 Subject Key Identifier: 
                A1:DF:33:C3:CF:3E:53:41:A7:68:44:CC:AA:19:E1:84:C9:0D:BC:C6
            X509v3 Authority Key Identifier: 
                keyid:B4:11:33:F1:D7:E2:5E:F7:53:9E:20:22:10:4F:86:06:BF:1F:C9:5E
                DirName:/C=AU/O=Dodgy Brothers/CN=Dodgy CA
                serial:19:5A:3C:54:A5:37:6D:D0:6B:A6:93:61:42:60:27:C9:9E:53:AF:40
            X509v3 Basic Constraints: critical
                CA:TRUE, pathlen:1
            X509v3 Key Usage: 
                Certificate Sign, CRL Sign
            X509v3 Issuer Alternative Name: 
                <EMPTY>

    Signature Algorithm: sha1WithRSAEncryption
    Signature Value:
        0b:6a:89:54:fc:6a:68:f7:8e:9d:2f:58:55:37:f2:e3:ef:cc:
        c5:57:b6:b1:28:32:75:95:88:2f:55:c9:0d:53:c7:05:60:30:
        02:10:48:8e:ef:98:dd:34:95:c7:9d:54:c5:36:e3:b6:db:f1:
        0d:23:1a:0a:df:aa:75:0a:93:7e:ef:ba:7b:57:4b:0e:3d:e8:
        14:17:22:d0:b4:2c:4d:83:42:39:9a:d1:3d:1b:a7:8a:26:c6:
        9a:04:f8:79:c8:65:6d:b7:87:3b:a9:10:0e:02:97:22:57:8b:
        b2:78:d5:5a:46:d9:18:e1:23:46:5b:82:2d:31:fb:2f:63:fa:
        b1:ef:ae:95:87:c4:6b:da:c1:5c:b8:23:25:43:2c:95:88:5c:
        7c:7e:d9:f6:bc:8c:f0:68:50:f9:72:75:2f:62:b1:e4:26:47:
        6c:15:75:c6:6c:80:56:02:73:ce:40:42:02:13:72:36:aa:96:
        b6:92:e8:d9:4e:7e:14:1a:53:fb:94:16:56:8e:0a:73:0a:cc:
        13:6b:6d:76:09:ff:43:fa:a4:18:ea:f9:9f:ae:48:17:07:5b:
        49:47:f4:54:34:10:d9:52:ff:fe:8a:b7:48:fb:3b:50:6a:e3:
        17:d6:84:64:4a:57:04:18:c6:7e:5b:68:52:de:d8:2a:51:e4:
        2e:7e:29:1f
-----BEGIN CERTIFICATE-----
MIID2DCCAsCgAwIBAgIUE9tYNUvEx85yNvZrf3duASEbefowDQYJKoZIhvcNAQEF
BQAwOTELMAkGA1UEBhMCQVUxFzAVBgNVBAoMDkRvZGd5IEJyb3RoZXJzMREwDwYD
VQQDDAhEb2RneSBDQTAeFw0yNDA4MjcxNTE4MTJaFw0yNTA4MjcxNTE4MTJaMEwx
CzAJBgNVBAYTAkFVMRcwFQYDVQQKDA5Eb2RneSBCcm90aGVyczESMBAGA1UEAwwJ
QnJvdGhlciAxMRAwDgYDVQQDDAdub3RpbWVzMIIBIjANBgkqhkiG9w0BAQEFAAOC
AQ8AMIIBCgKCAQEAvpWG+nFMaupRmFBLmaEsZhXzYPPh/2n7zkgBHf7hLDiw472P
S0infjrGc+Orv+Habpb1/sPktKitvFY01JYldCfDENs1ECUcjkuBm/tCBHxvPeI4
bA7kLo4qGG0wzWcqI2s3zwWfzLdZWH+6xAo/jKSty5icwPKPaWcPwU4zz/yFXrte
z5Owz9n0UnmHsfhNFWhl1bcZCGN/XrE0rQWPWvDk4Y8l8lxcYZWwVi0xKwhleeWx
O50+uVJLrF3EWGaFjYGzBCj0Py+skgFi1f2OC9oCDHrHbgkcrByyTNdUuCYzsl8U
87H5PWJNQJlrtueJWJfW1E3qS2hS8zyosTWI2wIDAQABo4HEMIHBMB0GA1UdDgQW
BBSh3zPDzz5TQadoRMyqGeGEyQ28xjB0BgNVHSMEbTBrgBS0ETPx1+Je91OeICIQ
T4YGvx/JXqE9pDswOTELMAkGA1UEBhMCQVUxFzAVBgNVBAoMDkRvZGd5IEJyb3Ro
ZXJzMREwDwYDVQQDDAhEb2RneSBDQYIUGVo8VKU3bdBrppNhQmAnyZ5Tr0AwEgYD
VR0TAQH/BAgwBgEB/wIBATALBgNVHQ8EBAMCAQYwCQYDVR0SBAIwADANBgkqhkiG
9w0BAQUFAAOCAQEAC2qJVPxqaPeOnS9YVTfy4+/MxVe2sSgydZWIL1XJDVPHBWAw
AhBIju+Y3TSVx51UxTbjttvxDSMaCt+qdQqTfu+6e1dLDj3oFBci0LQsTYNCOZrR
PRuniibGmgT4echlbbeHO6kQDgKXIleLsnjVWkbZGOEjRluCLTH7L2P6se+ulYfE
a9rBXLgjJUMslYhcfH7Z9ryM8GhQ+XJ1L2Kx5CZHbBV1xmyAVgJzzkBCAhNyNqqW
tpLo2U5+FBpT+5QWVo4KcwrME2ttdgn/Q/qkGOr5n65IFwdbSUf0VDQQ2VL//oq3
SPs7UGrjF9aEZEpXBBjGfltoUt7YKlHkLn4pHw==
-----END CERTIFICATE-----
