Certificate:
    Data:
        Version: 3 (0x2)
        Serial Number:
            13:db:58:35:4b:c4:c7:ce:72:36:f6:6b:7f:77:6e:01:21:1b:7a:01
        Signature Algorithm: sha1WithRSAEncryption
        Issuer: C=AU, O=Dodgy Brothers, CN=Dodgy CA
        Validity
            Not Before: Aug 27 15:18:13 2024 GMT
            Not After : Aug 27 15:18:13 2025 GMT
        Subject: C=AU, O=Dodgy Brothers, CN=Brother 1, CN=both_utctime
        Subject Public Key Info:
            Public Key Algorithm: rsaEncryption
                Public-Key: (2048 bit)
                Modulus:
                    00:be:95:86:fa:71:4c:6a:ea:51:98:50:4b:99:a1:
                    2c:66:15:f3:60:f3:e1:ff:69:fb:ce:48:01:1d:fe:
                    e1:2c:38:b0:e3:bd:8f:4b:48:a7:7e:3a:c6:73:e3:
                    ab:bf:e1:da:6e:96:f5:fe:c3:e4:b4:a8:ad:bc:56:
                    34:d4:96:25:74:27:c3:10:db:35:10:25:1c:8e:4b:
                    81:9b:fb:42:04:7c:6f:3d:e2:38:6c:0e:e4:2e:8e:
                    2a:18:6d:30:cd:67:2a:23:6b:37:cf:05:9f:cc:b7:
                    59:58:7f:ba:c4:0a:3f:8c:a4:ad:cb:98:9c:c0:f2:
                    8f:69:67:0f:c1:4e:33:cf:fc:85:5e:bb:5e:cf:93:
                    b0:cf:d9:f4:52:79:87:b1:f8:4d:15:68:65:d5:b7:
                    19:08:63:7f:5e:b1:34:ad:05:8f:5a:f0:e4:e1:8f:
                    25:f2:5c:5c:61:95:b0:56:2d:31:2b:08:65:79:e5:
                    b1:3b:9d:3e:b9:52:4b:ac:5d:c4:58:66:85:8d:81:
                    b3:04:28:f4:3f:2f:ac:92:01:62:d5:fd:8e:0b:da:
                    02:0c:7a:c7:6e:09:1c:ac:1c:b2:4c:d7:54:b8:26:
                    33:b2:5f:14:f3:b1:f9:3d:62:4d:40:99:6b:b6:e7:
                    89:58:97:d6:d4:4d:ea:4b:68:52:f3:3c:a8:b1:35:
                    88:db
                Exponent: 65537 (0x10001)
        X509v3 extensions:
            X509v3 Subject Key Identifier: 
                A1:DF:33:C3:CF:3E:53:41:A7:68:44:CC:AA:19:E1:84:C9:0D:BC:C6
            X509v3 Authority Key Identifier: 
                keyid:B4:11:33:F1:D7:E2:5E:F7:53:9E:20:22:10:4F:86:06:BF:1F:C9:5E
                DirName:/C=AU/O=Dodgy Brothers/CN=Dodgy CA
                serial:19:5A:3C:54:A5:37:6D:D0:6B:A6:93:61:42:60:27:C9:9E:53:AF:40
            X509v3 Basic Constraints: critical
                CA:TRUE, pathlen:1
            X509v3 Key Usage: 
                Certificate Sign, CRL Sign
            X509v3 Issuer Alternative Name: 
                <EMPTY>

    Signature Algorithm: sha1WithRSAEncryption
    Signature Value:
        1d:a1:59:76:37:06:ee:d4:43:6c:0b:f4:33:d5:00:f7:3d:18:
        7d:3d:8e:97:c3:f7:53:50:de:99:1e:9e:86:2e:59:7c:33:6f:
        44:71:37:6e:a8:ca:31:db:32:81:ca:69:f9:f6:9e:5c:e6:1e:
        d9:ee:e8:39:32:c5:cb:e0:5a:36:60:45:0e:6c:a9:7a:5a:95:
        92:a1:e2:5d:6d:10:4d:3a:9b:2a:99:fe:77:e8:ed:b8:51:a1:
        b7:81:cc:99:16:e6:ef:31:21:02:76:0d:50:c1:f0:63:22:55:
        1d:2a:f2:d6:7d:be:32:71:c9:88:45:f0:c9:95:ea:22:a6:81:
        c8:bb:95:7d:00:57:39:4a:73:a0:a3:cf:73:38:35:20:bb:b8:
        46:f2:8e:7f:52:a0:31:39:cd:a9:f9:9c:28:d2:88:fd:ed:5d:
        38:29:fa:8e:23:95:72:b8:ea:5e:e4:b6:c3:a4:0c:6b:b4:9c:
        e9:66:ae:66:60:d2:19:74:eb:73:f6:48:26:7b:cf:a2:ef:01:
        de:5e:d9:f5:62:00:32:40:88:8c:f7:f9:32:ca:cf:39:9a:fc:
        ab:9b:42:44:bb:75:b5:c6:63:cf:d4:91:15:8d:f0:e7:f3:a7:
        3e:e1:cf:55:6a:a2:c5:00:68:3d:52:a1:82:ad:8e:f5:a7:50:
        79:8a:b6:e4
-----BEGIN CERTIFICATE-----
MIID3TCCAsWgAwIBAgIUE9tYNUvEx85yNvZrf3duASEbegEwDQYJKoZIhvcNAQEF
BQAwOTELMAkGA1UEBhMCQVUxFzAVBgNVBAoMDkRvZGd5IEJyb3RoZXJzMREwDwYD
VQQDDAhEb2RneSBDQTAeFw0yNDA4MjcxNTE4MTNaFw0yNTA4MjcxNTE4MTNaMFEx
CzAJBgNVBAYTAkFVMRcwFQYDVQQKDA5Eb2RneSBCcm90aGVyczESMBAGA1UEAwwJ
QnJvdGhlciAxMRUwEwYDVQQDDAxib3RoX3V0Y3RpbWUwggEiMA0GCSqGSIb3DQEB
AQUAA4IBDwAwggEKAoIBAQC+lYb6cUxq6lGYUEuZoSxmFfNg8+H/afvOSAEd/uEs
OLDjvY9LSKd+OsZz46u/4dpulvX+w+S0qK28VjTUliV0J8MQ2zUQJRyOS4Gb+0IE
fG894jhsDuQujioYbTDNZyojazfPBZ/Mt1lYf7rECj+MpK3LmJzA8o9pZw/BTjPP
/IVeu17Pk7DP2fRSeYex+E0VaGXVtxkIY39esTStBY9a8OThjyXyXFxhlbBWLTEr
CGV55bE7nT65UkusXcRYZoWNgbMEKPQ/L6ySAWLV/Y4L2gIMesduCRysHLJM11S4
JjOyXxTzsfk9Yk1AmWu254lYl9bUTepLaFLzPKixNYjbAgMBAAGjgcQwgcEwHQYD
VR0OBBYEFKHfM8PPPlNBp2hEzKoZ4YTJDbzGMHQGA1UdIwRtMGuAFLQRM/HX4l73
U54gIhBPhga/H8leoT2kOzA5MQswCQYDVQQGEwJBVTEXMBUGA1UECgwORG9kZ3kg
QnJvdGhlcnMxETAPBgNVBAMMCERvZGd5IENBghQZWjxUpTdt0Gumk2FCYCfJnlOv
QDASBgNVHRMBAf8ECDAGAQH/AgEBMAsGA1UdDwQEAwIBBjAJBgNVHRIEAjAAMA0G
CSqGSIb3DQEBBQUAA4IBAQAdoVl2Nwbu1ENsC/Qz1QD3PRh9PY6Xw/dTUN6ZHp6G
Lll8M29EcTduqMox2zKBymn59p5c5h7Z7ug5MsXL4Fo2YEUObKl6WpWSoeJdbRBN
Opsqmf536O24UaG3gcyZFubvMSECdg1QwfBjIlUdKvLWfb4yccmIRfDJleoipoHI
u5V9AFc5SnOgo89zODUgu7hG8o5/UqAxOc2p+Zwo0oj97V04KfqOI5VyuOpe5LbD
pAxrtJzpZq5mYNIZdOtz9kgme8+i7wHeXtn1YgAyQIiM9/kyys85mvyrm0JEu3W1
xmPP1JEVjfDn86c+4c9VaqLFAGg9UqGCrY71p1B5irbk
-----END CERTIFICATE-----
