Certificate:
    Data:
        Version: 3 (0x2)
        Serial Number:
            13:db:58:35:4b:c4:c7:ce:72:36:f6:6b:7f:77:6e:01:21:1b:79:fc
        Signature Algorithm: sha1WithRSAEncryption
        Issuer: C=AU, O=Dodgy Brothers, CN=Dodgy CA
        Validity
            Not Before: Aug 27 15:18:12 2024 GMT
            Not After : Aug 27 15:18:12 2025 GMT
        Subject: C=AU, O=Dodgy Brothers, CN=Brother 1, CN=lastupdate_utctime
        Subject Public Key Info:
            Public Key Algorithm: rsaEncryption
                Public-Key: (2048 bit)
                Modulus:
                    00:be:95:86:fa:71:4c:6a:ea:51:98:50:4b:99:a1:
                    2c:66:15:f3:60:f3:e1:ff:69:fb:ce:48:01:1d:fe:
                    e1:2c:38:b0:e3:bd:8f:4b:48:a7:7e:3a:c6:73:e3:
                    ab:bf:e1:da:6e:96:f5:fe:c3:e4:b4:a8:ad:bc:56:
                    34:d4:96:25:74:27:c3:10:db:35:10:25:1c:8e:4b:
                    81:9b:fb:42:04:7c:6f:3d:e2:38:6c:0e:e4:2e:8e:
                    2a:18:6d:30:cd:67:2a:23:6b:37:cf:05:9f:cc:b7:
                    59:58:7f:ba:c4:0a:3f:8c:a4:ad:cb:98:9c:c0:f2:
                    8f:69:67:0f:c1:4e:33:cf:fc:85:5e:bb:5e:cf:93:
                    b0:cf:d9:f4:52:79:87:b1:f8:4d:15:68:65:d5:b7:
                    19:08:63:7f:5e:b1:34:ad:05:8f:5a:f0:e4:e1:8f:
                    25:f2:5c:5c:61:95:b0:56:2d:31:2b:08:65:79:e5:
                    b1:3b:9d:3e:b9:52:4b:ac:5d:c4:58:66:85:8d:81:
                    b3:04:28:f4:3f:2f:ac:92:01:62:d5:fd:8e:0b:da:
                    02:0c:7a:c7:6e:09:1c:ac:1c:b2:4c:d7:54:b8:26:
                    33:b2:5f:14:f3:b1:f9:3d:62:4d:40:99:6b:b6:e7:
                    89:58:97:d6:d4:4d:ea:4b:68:52:f3:3c:a8:b1:35:
                    88:db
                Exponent: 65537 (0x10001)
        X509v3 extensions:
            X509v3 Subject Key Identifier: 
                A1:DF:33:C3:CF:3E:53:41:A7:68:44:CC:AA:19:E1:84:C9:0D:BC:C6
            X509v3 Authority Key Identifier: 
                keyid:B4:11:33:F1:D7:E2:5E:F7:53:9E:20:22:10:4F:86:06:BF:1F:C9:5E
                DirName:/C=AU/O=Dodgy Brothers/CN=Dodgy CA
                serial:19:5A:3C:54:A5:37:6D:D0:6B:A6:93:61:42:60:27:C9:9E:53:AF:40
            X509v3 Basic Constraints: critical
                CA:TRUE, pathlen:1
            X509v3 Key Usage: 
                Certificate Sign, CRL Sign
            X509v3 Issuer Alternative Name: 
                <EMPTY>

    Signature Algorithm: sha1WithRSAEncryption
    Signature Value:
        65:4a:b1:9f:ca:ac:00:7d:ef:da:a1:6a:03:20:78:1e:ba:a1:
        af:8b:8a:90:e7:72:d6:86:95:67:3b:a4:4d:ac:1f:d3:d4:b1:
        bf:25:29:9a:ec:21:4f:21:a5:c2:c9:5a:aa:2f:32:86:e2:e7:
        e3:51:8e:62:da:4b:15:cc:dc:8e:2d:2b:08:0d:d5:0e:4d:aa:
        74:22:17:cf:4b:23:fb:22:6e:e4:24:da:4e:ae:c6:02:65:af:
        db:09:7e:59:91:46:00:be:de:5e:39:a9:58:92:74:66:7c:98:
        70:18:9c:7d:4f:b1:86:6e:80:f7:6c:f3:e5:0d:ad:23:f2:25:
        cb:32:f4:83:35:53:f5:ae:ab:f1:62:c4:73:fc:7e:e2:44:e2:
        b8:4f:c0:77:69:b3:e5:d5:46:43:97:9a:a1:6f:ed:11:17:d8:
        79:e7:3f:ac:74:a4:99:94:8e:8f:ca:ef:a0:4d:fd:5a:ea:30:
        78:97:85:84:7a:24:bd:ae:84:e9:e0:aa:ad:ff:fc:06:d9:94:
        94:75:51:d9:e2:8b:b5:dd:96:7c:e9:c2:13:65:7f:dc:bd:bf:
        27:a0:fa:9f:e1:60:73:93:23:5b:90:81:57:90:9d:60:15:fb:
        2a:e1:93:3e:f8:ce:f4:f4:05:14:02:95:fb:1d:c1:a8:89:02:
        ad:42:48:bd
-----BEGIN CERTIFICATE-----
MIID4zCCAsugAwIBAgIUE9tYNUvEx85yNvZrf3duASEbefwwDQYJKoZIhvcNAQEF
BQAwOTELMAkGA1UEBhMCQVUxFzAVBgNVBAoMDkRvZGd5IEJyb3RoZXJzMREwDwYD
VQQDDAhEb2RneSBDQTAeFw0yNDA4MjcxNTE4MTJaFw0yNTA4MjcxNTE4MTJaMFcx
CzAJBgNVBAYTAkFVMRcwFQYDVQQKDA5Eb2RneSBCcm90aGVyczESMBAGA1UEAwwJ
QnJvdGhlciAxMRswGQYDVQQDDBJsYXN0dXBkYXRlX3V0Y3RpbWUwggEiMA0GCSqG
SIb3DQEBAQUAA4IBDwAwggEKAoIBAQC+lYb6cUxq6lGYUEuZoSxmFfNg8+H/afvO
SAEd/uEsOLDjvY9LSKd+OsZz46u/4dpulvX+w+S0qK28VjTUliV0J8MQ2zUQJRyO
S4Gb+0IEfG894jhsDuQujioYbTDNZyojazfPBZ/Mt1lYf7rECj+MpK3LmJzA8o9p
Zw/BTjPP/IVeu17Pk7DP2fRSeYex+E0VaGXVtxkIY39esTStBY9a8OThjyXyXFxh
lbBWLTErCGV55bE7nT65UkusXcRYZoWNgbMEKPQ/L6ySAWLV/Y4L2gIMesduCRys
HLJM11S4JjOyXxTzsfk9Yk1AmWu254lYl9bUTepLaFLzPKixNYjbAgMBAAGjgcQw
gcEwHQYDVR0OBBYEFKHfM8PPPlNBp2hEzKoZ4YTJDbzGMHQGA1UdIwRtMGuAFLQR
M/HX4l73U54gIhBPhga/H8leoT2kOzA5MQswCQYDVQQGEwJBVTEXMBUGA1UECgwO
RG9kZ3kgQnJvdGhlcnMxETAPBgNVBAMMCERvZGd5IENBghQZWjxUpTdt0Gumk2FC
YCfJnlOvQDASBgNVHRMBAf8ECDAGAQH/AgEBMAsGA1UdDwQEAwIBBjAJBgNVHRIE
AjAAMA0GCSqGSIb3DQEBBQUAA4IBAQBlSrGfyqwAfe/aoWoDIHgeuqGvi4qQ53LW
hpVnO6RNrB/T1LG/JSma7CFPIaXCyVqqLzKG4ufjUY5i2ksVzNyOLSsIDdUOTap0
IhfPSyP7Im7kJNpOrsYCZa/bCX5ZkUYAvt5eOalYknRmfJhwGJx9T7GGboD3bPPl
Da0j8iXLMvSDNVP1rqvxYsRz/H7iROK4T8B3abPl1UZDl5qhb+0RF9h55z+sdKSZ
lI6Pyu+gTf1a6jB4l4WEeiS9roTp4Kqt//wG2ZSUdVHZ4ou13ZZ86cITZX/cvb8n
oPqf4WBzkyNbkIFXkJ1gFfsq4ZM++M709AUUApX7HcGoiQKtQki9
-----END CERTIFICATE-----
