Certificate:
    Data:
        Version: 3 (0x2)
        Serial Number:
            13:db:58:35:4b:c4:c7:ce:72:36:f6:6b:7f:77:6e:01:21:1b:79:fb
        Signature Algorithm: sha1WithRSAEncryption
        Issuer: C=AU, O=Dodgy Brothers, CN=Dodgy CA
        Validity
            Not Before: Aug 27 15:18:12 2024 GMT
            Not After : Aug 27 15:18:12 2025 GMT
        Subject: C=AU, O=Dodgy Brothers, CN=Brother 1, CN=lastupdate_invalid
        Subject Public Key Info:
            Public Key Algorithm: rsaEncryption
                Public-Key: (2048 bit)
                Modulus:
                    00:be:95:86:fa:71:4c:6a:ea:51:98:50:4b:99:a1:
                    2c:66:15:f3:60:f3:e1:ff:69:fb:ce:48:01:1d:fe:
                    e1:2c:38:b0:e3:bd:8f:4b:48:a7:7e:3a:c6:73:e3:
                    ab:bf:e1:da:6e:96:f5:fe:c3:e4:b4:a8:ad:bc:56:
                    34:d4:96:25:74:27:c3:10:db:35:10:25:1c:8e:4b:
                    81:9b:fb:42:04:7c:6f:3d:e2:38:6c:0e:e4:2e:8e:
                    2a:18:6d:30:cd:67:2a:23:6b:37:cf:05:9f:cc:b7:
                    59:58:7f:ba:c4:0a:3f:8c:a4:ad:cb:98:9c:c0:f2:
                    8f:69:67:0f:c1:4e:33:cf:fc:85:5e:bb:5e:cf:93:
                    b0:cf:d9:f4:52:79:87:b1:f8:4d:15:68:65:d5:b7:
                    19:08:63:7f:5e:b1:34:ad:05:8f:5a:f0:e4:e1:8f:
                    25:f2:5c:5c:61:95:b0:56:2d:31:2b:08:65:79:e5:
                    b1:3b:9d:3e:b9:52:4b:ac:5d:c4:58:66:85:8d:81:
                    b3:04:28:f4:3f:2f:ac:92:01:62:d5:fd:8e:0b:da:
                    02:0c:7a:c7:6e:09:1c:ac:1c:b2:4c:d7:54:b8:26:
                    33:b2:5f:14:f3:b1:f9:3d:62:4d:40:99:6b:b6:e7:
                    89:58:97:d6:d4:4d:ea:4b:68:52:f3:3c:a8:b1:35:
                    88:db
                Exponent: 65537 (0x10001)
        X509v3 extensions:
            X509v3 Subject Key Identifier: 
                A1:DF:33:C3:CF:3E:53:41:A7:68:44:CC:AA:19:E1:84:C9:0D:BC:C6
            X509v3 Authority Key Identifier: 
                keyid:B4:11:33:F1:D7:E2:5E:F7:53:9E:20:22:10:4F:86:06:BF:1F:C9:5E
                DirName:/C=AU/O=Dodgy Brothers/CN=Dodgy CA
                serial:19:5A:3C:54:A5:37:6D:D0:6B:A6:93:61:42:60:27:C9:9E:53:AF:40
            X509v3 Basic Constraints: critical
                CA:TRUE, pathlen:1
            X509v3 Key Usage: 
                Certificate Sign, CRL Sign
            X509v3 Issuer Alternative Name: 
                <EMPTY>

    Signature Algorithm: sha1WithRSAEncryption
    Signature Value:
        4d:20:8c:f4:ec:b9:18:84:16:fc:b9:b5:7c:d2:57:17:ac:da:
        e4:4e:1f:ed:71:b9:5a:e3:ae:40:14:b0:bb:65:03:3d:6c:78:
        68:0b:6f:63:0d:c1:f9:ac:8d:95:38:b1:e6:0d:c6:b7:49:78:
        b2:15:55:68:d6:cd:c2:03:8b:26:bc:e7:a2:53:a1:3f:cb:33:
        36:fc:f0:81:bb:ae:d6:b2:6f:f1:c7:8e:97:99:1b:bc:37:ea:
        4d:fe:e2:c8:28:be:7d:f0:5c:ff:ec:4f:e7:27:6a:bf:af:ef:
        d0:44:98:63:bd:7a:0a:d3:a2:a5:a0:b2:50:01:d3:b9:09:98:
        4b:6a:31:18:46:f1:86:3c:11:a8:a1:d7:dd:ff:b0:40:7c:9e:
        a5:2d:bd:4c:a9:32:1c:5a:0c:0f:74:59:a0:bd:a8:8c:57:27:
        12:34:0b:cb:44:0d:dd:c4:cf:14:91:67:ac:00:49:dd:95:4c:
        d9:8a:ef:a1:c7:b4:a1:45:df:e9:22:8a:ca:f3:32:92:65:01:
        02:b2:f1:1e:a0:cb:f3:1d:5a:af:f0:79:0a:09:0f:a7:c1:c7:
        9a:03:10:2b:90:ed:41:b7:2c:8a:b0:61:12:c9:45:32:fd:e8:
        18:f4:78:ae:70:4d:7e:c7:9d:a9:7b:4b:c2:81:ea:03:c3:e5:
        d0:84:39:13
-----BEGIN CERTIFICATE-----
MIID4zCCAsugAwIBAgIUE9tYNUvEx85yNvZrf3duASEbefswDQYJKoZIhvcNAQEF
BQAwOTELMAkGA1UEBhMCQVUxFzAVBgNVBAoMDkRvZGd5IEJyb3RoZXJzMREwDwYD
VQQDDAhEb2RneSBDQTAeFw0yNDA4MjcxNTE4MTJaFw0yNTA4MjcxNTE4MTJaMFcx
CzAJBgNVBAYTAkFVMRcwFQYDVQQKDA5Eb2RneSBCcm90aGVyczESMBAGA1UEAwwJ
QnJvdGhlciAxMRswGQYDVQQDDBJsYXN0dXBkYXRlX2ludmFsaWQwggEiMA0GCSqG
SIb3DQEBAQUAA4IBDwAwggEKAoIBAQC+lYb6cUxq6lGYUEuZoSxmFfNg8+H/afvO
SAEd/uEsOLDjvY9LSKd+OsZz46u/4dpulvX+w+S0qK28VjTUliV0J8MQ2zUQJRyO
S4Gb+0IEfG894jhsDuQujioYbTDNZyojazfPBZ/Mt1lYf7rECj+MpK3LmJzA8o9p
Zw/BTjPP/IVeu17Pk7DP2fRSeYex+E0VaGXVtxkIY39esTStBY9a8OThjyXyXFxh
lbBWLTErCGV55bE7nT65UkusXcRYZoWNgbMEKPQ/L6ySAWLV/Y4L2gIMesduCRys
HLJM11S4JjOyXxTzsfk9Yk1AmWu254lYl9bUTepLaFLzPKixNYjbAgMBAAGjgcQw
gcEwHQYDVR0OBBYEFKHfM8PPPlNBp2hEzKoZ4YTJDbzGMHQGA1UdIwRtMGuAFLQR
M/HX4l73U54gIhBPhga/H8leoT2kOzA5MQswCQYDVQQGEwJBVTEXMBUGA1UECgwO
RG9kZ3kgQnJvdGhlcnMxETAPBgNVBAMMCERvZGd5IENBghQZWjxUpTdt0Gumk2FC
YCfJnlOvQDASBgNVHRMBAf8ECDAGAQH/AgEBMAsGA1UdDwQEAwIBBjAJBgNVHRIE
AjAAMA0GCSqGSIb3DQEBBQUAA4IBAQBNIIz07LkYhBb8ubV80lcXrNrkTh/tcbla
465AFLC7ZQM9bHhoC29jDcH5rI2VOLHmDca3SXiyFVVo1s3CA4smvOeiU6E/yzM2
/PCBu67Wsm/xx46XmRu8N+pN/uLIKL598Fz/7E/nJ2q/r+/QRJhjvXoK06KloLJQ
AdO5CZhLajEYRvGGPBGoodfd/7BAfJ6lLb1MqTIcWgwPdFmgvaiMVycSNAvLRA3d
xM8UkWesAEndlUzZiu+hx7ShRd/pIorK8zKSZQECsvEeoMvzHVqv8HkKCQ+nwcea
AxArkO1BtyyKsGESyUUy/egY9HiucE1+x52pe0vCgeoDw+XQhDkT
-----END CERTIFICATE-----
