Certificate:
    Data:
        Version: 3 (0x2)
        Serial Number:
            13:db:58:35:4b:c4:c7:ce:72:36:f6:6b:7f:77:6e:01:21:1b:7a:02
        Signature Algorithm: sha1WithRSAEncryption
        Issuer: C=AU, O=Dodgy Brothers, CN=Dodgy CA
        Validity
            Not Before: Aug 27 15:18:13 2024 GMT
            Not After : Aug 27 15:18:13 2025 GMT
        Subject: C=AU, O=Dodgy Brothers, CN=Brother 1, CN=both_generalizedtime
        Subject Public Key Info:
            Public Key Algorithm: rsaEncryption
                Public-Key: (2048 bit)
                Modulus:
                    00:be:95:86:fa:71:4c:6a:ea:51:98:50:4b:99:a1:
                    2c:66:15:f3:60:f3:e1:ff:69:fb:ce:48:01:1d:fe:
                    e1:2c:38:b0:e3:bd:8f:4b:48:a7:7e:3a:c6:73:e3:
                    ab:bf:e1:da:6e:96:f5:fe:c3:e4:b4:a8:ad:bc:56:
                    34:d4:96:25:74:27:c3:10:db:35:10:25:1c:8e:4b:
                    81:9b:fb:42:04:7c:6f:3d:e2:38:6c:0e:e4:2e:8e:
                    2a:18:6d:30:cd:67:2a:23:6b:37:cf:05:9f:cc:b7:
                    59:58:7f:ba:c4:0a:3f:8c:a4:ad:cb:98:9c:c0:f2:
                    8f:69:67:0f:c1:4e:33:cf:fc:85:5e:bb:5e:cf:93:
                    b0:cf:d9:f4:52:79:87:b1:f8:4d:15:68:65:d5:b7:
                    19:08:63:7f:5e:b1:34:ad:05:8f:5a:f0:e4:e1:8f:
                    25:f2:5c:5c:61:95:b0:56:2d:31:2b:08:65:79:e5:
                    b1:3b:9d:3e:b9:52:4b:ac:5d:c4:58:66:85:8d:81:
                    b3:04:28:f4:3f:2f:ac:92:01:62:d5:fd:8e:0b:da:
                    02:0c:7a:c7:6e:09:1c:ac:1c:b2:4c:d7:54:b8:26:
                    33:b2:5f:14:f3:b1:f9:3d:62:4d:40:99:6b:b6:e7:
                    89:58:97:d6:d4:4d:ea:4b:68:52:f3:3c:a8:b1:35:
                    88:db
                Exponent: 65537 (0x10001)
        X509v3 extensions:
            X509v3 Subject Key Identifier: 
                A1:DF:33:C3:CF:3E:53:41:A7:68:44:CC:AA:19:E1:84:C9:0D:BC:C6
            X509v3 Authority Key Identifier: 
                keyid:B4:11:33:F1:D7:E2:5E:F7:53:9E:20:22:10:4F:86:06:BF:1F:C9:5E
                DirName:/C=AU/O=Dodgy Brothers/CN=Dodgy CA
                serial:19:5A:3C:54:A5:37:6D:D0:6B:A6:93:61:42:60:27:C9:9E:53:AF:40
            X509v3 Basic Constraints: critical
                CA:TRUE, pathlen:1
            X509v3 Key Usage: 
                Certificate Sign, CRL Sign
            X509v3 Issuer Alternative Name: 
                <EMPTY>

    Signature Algorithm: sha1WithRSAEncryption
    Signature Value:
        62:e7:4e:a1:e6:50:eb:3a:99:5d:61:55:48:06:52:fb:6f:2f:
        20:c1:65:6b:30:cc:3d:c5:45:35:d8:b4:07:57:a4:da:73:f0:
        4e:2f:a7:9e:7b:38:c3:ce:87:bf:80:6e:5d:1d:ca:aa:34:d4:
        2c:9d:97:0d:5d:7e:31:f9:35:15:b4:33:c1:a1:df:08:4c:f6:
        c6:8e:d3:00:8b:5a:ba:a4:51:bf:61:93:4e:f7:db:02:a3:d2:
        d7:65:f9:d2:94:70:f0:d5:fb:b4:f7:96:2b:26:71:8a:96:8f:
        67:07:95:b8:57:59:fd:36:89:6c:bd:b1:cf:90:af:8d:f3:8e:
        88:3f:22:39:7a:5b:ad:b8:b8:f3:e6:78:f5:80:49:72:d8:12:
        44:d0:0a:a8:38:f3:73:fb:d9:87:13:e6:a8:b1:85:d6:4e:92:
        66:27:68:ec:70:61:55:7e:fa:ee:6e:ca:52:0c:ab:bc:de:6a:
        b2:cf:e5:34:25:70:9f:ec:c4:a8:68:9e:97:6b:e2:77:09:a0:
        ea:55:66:ce:21:9d:f7:d6:60:db:2b:0e:8b:69:0e:f8:ed:03:
        88:d3:9a:16:d3:63:94:f6:2f:3c:ea:ad:b2:9b:a3:49:02:6f:
        f5:aa:37:d6:06:55:4e:49:b0:e4:ef:97:4f:ea:03:15:1b:a9:
        1e:66:fb:91
-----BEGIN CERTIFICATE-----
MIID5TCCAs2gAwIBAgIUE9tYNUvEx85yNvZrf3duASEbegIwDQYJKoZIhvcNAQEF
BQAwOTELMAkGA1UEBhMCQVUxFzAVBgNVBAoMDkRvZGd5IEJyb3RoZXJzMREwDwYD
VQQDDAhEb2RneSBDQTAeFw0yNDA4MjcxNTE4MTNaFw0yNTA4MjcxNTE4MTNaMFkx
CzAJBgNVBAYTAkFVMRcwFQYDVQQKDA5Eb2RneSBCcm90aGVyczESMBAGA1UEAwwJ
QnJvdGhlciAxMR0wGwYDVQQDDBRib3RoX2dlbmVyYWxpemVkdGltZTCCASIwDQYJ
KoZIhvcNAQEBBQADggEPADCCAQoCggEBAL6VhvpxTGrqUZhQS5mhLGYV82Dz4f9p
+85IAR3+4Sw4sOO9j0tIp346xnPjq7/h2m6W9f7D5LSorbxWNNSWJXQnwxDbNRAl
HI5LgZv7QgR8bz3iOGwO5C6OKhhtMM1nKiNrN88Fn8y3WVh/usQKP4ykrcuYnMDy
j2lnD8FOM8/8hV67Xs+TsM/Z9FJ5h7H4TRVoZdW3GQhjf16xNK0Fj1rw5OGPJfJc
XGGVsFYtMSsIZXnlsTudPrlSS6xdxFhmhY2BswQo9D8vrJIBYtX9jgvaAgx6x24J
HKwcskzXVLgmM7JfFPOx+T1iTUCZa7bniViX1tRN6ktoUvM8qLE1iNsCAwEAAaOB
xDCBwTAdBgNVHQ4EFgQUod8zw88+U0GnaETMqhnhhMkNvMYwdAYDVR0jBG0wa4AU
tBEz8dfiXvdTniAiEE+GBr8fyV6hPaQ7MDkxCzAJBgNVBAYTAkFVMRcwFQYDVQQK
DA5Eb2RneSBCcm90aGVyczERMA8GA1UEAwwIRG9kZ3kgQ0GCFBlaPFSlN23Qa6aT
YUJgJ8meU69AMBIGA1UdEwEB/wQIMAYBAf8CAQEwCwYDVR0PBAQDAgEGMAkGA1Ud
EgQCMAAwDQYJKoZIhvcNAQEFBQADggEBAGLnTqHmUOs6mV1hVUgGUvtvLyDBZWsw
zD3FRTXYtAdXpNpz8E4vp557OMPOh7+Abl0dyqo01Cydlw1dfjH5NRW0M8Gh3whM
9saO0wCLWrqkUb9hk0732wKj0tdl+dKUcPDV+7T3lismcYqWj2cHlbhXWf02iWy9
sc+Qr43zjog/Ijl6W624uPPmePWASXLYEkTQCqg483P72YcT5qixhdZOkmYnaOxw
YVV++u5uylIMq7zearLP5TQlcJ/sxKhonpdr4ncJoOpVZs4hnffWYNsrDotpDvjt
A4jTmhbTY5T2LzzqrbKbo0kCb/WqN9YGVU5JsOTvl0/qAxUbqR5m+5E=
-----END CERTIFICATE-----
