Certificate:
    Data:
        Version: 3 (0x2)
        Serial Number:
            13:db:58:35:4b:c4:c7:ce:72:36:f6:6b:7f:77:6e:01:21:1b:79:ff
        Signature Algorithm: sha1WithRSAEncryption
        Issuer: C=AU, O=Dodgy Brothers, CN=Dodgy CA
        Validity
            Not Before: Aug 27 15:18:13 2024 GMT
            Not After : Aug 27 15:18:13 2025 GMT
        Subject: C=AU, O=Dodgy Brothers, CN=Brother 1, CN=nextupdate_utctime
        Subject Public Key Info:
            Public Key Algorithm: rsaEncryption
                Public-Key: (2048 bit)
                Modulus:
                    00:be:95:86:fa:71:4c:6a:ea:51:98:50:4b:99:a1:
                    2c:66:15:f3:60:f3:e1:ff:69:fb:ce:48:01:1d:fe:
                    e1:2c:38:b0:e3:bd:8f:4b:48:a7:7e:3a:c6:73:e3:
                    ab:bf:e1:da:6e:96:f5:fe:c3:e4:b4:a8:ad:bc:56:
                    34:d4:96:25:74:27:c3:10:db:35:10:25:1c:8e:4b:
                    81:9b:fb:42:04:7c:6f:3d:e2:38:6c:0e:e4:2e:8e:
                    2a:18:6d:30:cd:67:2a:23:6b:37:cf:05:9f:cc:b7:
                    59:58:7f:ba:c4:0a:3f:8c:a4:ad:cb:98:9c:c0:f2:
                    8f:69:67:0f:c1:4e:33:cf:fc:85:5e:bb:5e:cf:93:
                    b0:cf:d9:f4:52:79:87:b1:f8:4d:15:68:65:d5:b7:
                    19:08:63:7f:5e:b1:34:ad:05:8f:5a:f0:e4:e1:8f:
                    25:f2:5c:5c:61:95:b0:56:2d:31:2b:08:65:79:e5:
                    b1:3b:9d:3e:b9:52:4b:ac:5d:c4:58:66:85:8d:81:
                    b3:04:28:f4:3f:2f:ac:92:01:62:d5:fd:8e:0b:da:
                    02:0c:7a:c7:6e:09:1c:ac:1c:b2:4c:d7:54:b8:26:
                    33:b2:5f:14:f3:b1:f9:3d:62:4d:40:99:6b:b6:e7:
                    89:58:97:d6:d4:4d:ea:4b:68:52:f3:3c:a8:b1:35:
                    88:db
                Exponent: 65537 (0x10001)
        X509v3 extensions:
            X509v3 Subject Key Identifier: 
                A1:DF:33:C3:CF:3E:53:41:A7:68:44:CC:AA:19:E1:84:C9:0D:BC:C6
            X509v3 Authority Key Identifier: 
                keyid:B4:11:33:F1:D7:E2:5E:F7:53:9E:20:22:10:4F:86:06:BF:1F:C9:5E
                DirName:/C=AU/O=Dodgy Brothers/CN=Dodgy CA
                serial:19:5A:3C:54:A5:37:6D:D0:6B:A6:93:61:42:60:27:C9:9E:53:AF:40
            X509v3 Basic Constraints: critical
                CA:TRUE, pathlen:1
            X509v3 Key Usage: 
                Certificate Sign, CRL Sign
            X509v3 Issuer Alternative Name: 
                <EMPTY>

    Signature Algorithm: sha1WithRSAEncryption
    Signature Value:
        86:4f:74:f1:82:b8:ee:0d:60:cb:96:f0:80:a1:b7:71:d2:9d:
        a6:26:9d:37:db:d2:15:1d:0f:1f:5a:8f:29:f0:e2:e6:cc:62:
        97:17:5c:b3:bb:34:54:8c:25:69:ba:74:53:a4:dd:28:c9:3b:
        da:6f:e1:09:c8:1c:05:7d:4e:70:8b:f7:b8:44:b0:c1:e6:f9:
        8e:d0:2d:81:a2:6f:25:32:e6:65:df:96:09:5f:e4:bc:50:a9:
        64:7c:39:b2:01:43:1b:c5:7c:db:8c:13:e1:ab:ff:fd:00:9b:
        a6:48:08:6b:fc:07:57:a9:7a:91:99:bb:33:60:eb:55:b3:18:
        b6:35:bb:9a:76:04:80:ca:9e:8e:96:48:c7:36:0b:bb:db:ce:
        0a:63:ee:6a:be:63:7c:f3:e7:59:28:88:8e:27:67:4b:32:76:
        53:97:5a:00:99:0b:5f:4d:7e:c5:ae:b6:88:3d:b5:a6:c0:3a:
        5e:94:af:4a:e0:8f:5a:8e:e2:92:a6:69:3b:2f:9c:40:2e:ea:
        ca:eb:75:e2:2c:44:49:5b:f4:d7:8b:a5:88:30:88:40:12:0b:
        52:0f:fc:5d:d5:62:53:da:b0:7a:49:11:cb:ac:52:9a:67:cf:
        8e:b9:58:17:ef:aa:c9:e1:ee:3c:9d:b9:e3:fd:90:24:77:04:
        11:ed:e8:79
-----BEGIN CERTIFICATE-----
MIID4zCCAsugAwIBAgIUE9tYNUvEx85yNvZrf3duASEbef8wDQYJKoZIhvcNAQEF
BQAwOTELMAkGA1UEBhMCQVUxFzAVBgNVBAoMDkRvZGd5IEJyb3RoZXJzMREwDwYD
VQQDDAhEb2RneSBDQTAeFw0yNDA4MjcxNTE4MTNaFw0yNTA4MjcxNTE4MTNaMFcx
CzAJBgNVBAYTAkFVMRcwFQYDVQQKDA5Eb2RneSBCcm90aGVyczESMBAGA1UEAwwJ
QnJvdGhlciAxMRswGQYDVQQDDBJuZXh0dXBkYXRlX3V0Y3RpbWUwggEiMA0GCSqG
SIb3DQEBAQUAA4IBDwAwggEKAoIBAQC+lYb6cUxq6lGYUEuZoSxmFfNg8+H/afvO
SAEd/uEsOLDjvY9LSKd+OsZz46u/4dpulvX+w+S0qK28VjTUliV0J8MQ2zUQJRyO
S4Gb+0IEfG894jhsDuQujioYbTDNZyojazfPBZ/Mt1lYf7rECj+MpK3LmJzA8o9p
Zw/BTjPP/IVeu17Pk7DP2fRSeYex+E0VaGXVtxkIY39esTStBY9a8OThjyXyXFxh
lbBWLTErCGV55bE7nT65UkusXcRYZoWNgbMEKPQ/L6ySAWLV/Y4L2gIMesduCRys
HLJM11S4JjOyXxTzsfk9Yk1AmWu254lYl9bUTepLaFLzPKixNYjbAgMBAAGjgcQw
gcEwHQYDVR0OBBYEFKHfM8PPPlNBp2hEzKoZ4YTJDbzGMHQGA1UdIwRtMGuAFLQR
M/HX4l73U54gIhBPhga/H8leoT2kOzA5MQswCQYDVQQGEwJBVTEXMBUGA1UECgwO
RG9kZ3kgQnJvdGhlcnMxETAPBgNVBAMMCERvZGd5IENBghQZWjxUpTdt0Gumk2FC
YCfJnlOvQDASBgNVHRMBAf8ECDAGAQH/AgEBMAsGA1UdDwQEAwIBBjAJBgNVHRIE
AjAAMA0GCSqGSIb3DQEBBQUAA4IBAQCGT3TxgrjuDWDLlvCAobdx0p2mJp0329IV
HQ8fWo8p8OLmzGKXF1yzuzRUjCVpunRTpN0oyTvab+EJyBwFfU5wi/e4RLDB5vmO
0C2Bom8lMuZl35YJX+S8UKlkfDmyAUMbxXzbjBPhq//9AJumSAhr/AdXqXqRmbsz
YOtVsxi2NbuadgSAyp6OlkjHNgu7284KY+5qvmN88+dZKIiOJ2dLMnZTl1oAmQtf
TX7FrraIPbWmwDpelK9K4I9ajuKSpmk7L5xALurK63XiLERJW/TXi6WIMIhAEgtS
D/xd1WJT2rB6SRHLrFKaZ8+OuVgX76rJ4e48nbnj/ZAkdwQR7eh5
-----END CERTIFICATE-----
