Certificate:
    Data:
        Version: 3 (0x2)
        Serial Number:
            13:db:58:35:4b:c4:c7:ce:72:36:f6:6b:7f:77:6e:01:21:1b:79:fe
        Signature Algorithm: sha1WithRSAEncryption
        Issuer: C=AU, O=Dodgy Brothers, CN=Dodgy CA
        Validity
            Not Before: Aug 27 15:18:13 2024 GMT
            Not After : Aug 27 15:18:13 2025 GMT
        Subject: C=AU, O=Dodgy Brothers, CN=Brother 1, CN=nextupdate_invalid
        Subject Public Key Info:
            Public Key Algorithm: rsaEncryption
                Public-Key: (2048 bit)
                Modulus:
                    00:be:95:86:fa:71:4c:6a:ea:51:98:50:4b:99:a1:
                    2c:66:15:f3:60:f3:e1:ff:69:fb:ce:48:01:1d:fe:
                    e1:2c:38:b0:e3:bd:8f:4b:48:a7:7e:3a:c6:73:e3:
                    ab:bf:e1:da:6e:96:f5:fe:c3:e4:b4:a8:ad:bc:56:
                    34:d4:96:25:74:27:c3:10:db:35:10:25:1c:8e:4b:
                    81:9b:fb:42:04:7c:6f:3d:e2:38:6c:0e:e4:2e:8e:
                    2a:18:6d:30:cd:67:2a:23:6b:37:cf:05:9f:cc:b7:
                    59:58:7f:ba:c4:0a:3f:8c:a4:ad:cb:98:9c:c0:f2:
                    8f:69:67:0f:c1:4e:33:cf:fc:85:5e:bb:5e:cf:93:
                    b0:cf:d9:f4:52:79:87:b1:f8:4d:15:68:65:d5:b7:
                    19:08:63:7f:5e:b1:34:ad:05:8f:5a:f0:e4:e1:8f:
                    25:f2:5c:5c:61:95:b0:56:2d:31:2b:08:65:79:e5:
                    b1:3b:9d:3e:b9:52:4b:ac:5d:c4:58:66:85:8d:81:
                    b3:04:28:f4:3f:2f:ac:92:01:62:d5:fd:8e:0b:da:
                    02:0c:7a:c7:6e:09:1c:ac:1c:b2:4c:d7:54:b8:26:
                    33:b2:5f:14:f3:b1:f9:3d:62:4d:40:99:6b:b6:e7:
                    89:58:97:d6:d4:4d:ea:4b:68:52:f3:3c:a8:b1:35:
                    88:db
                Exponent: 65537 (0x10001)
        X509v3 extensions:
            X509v3 Subject Key Identifier: 
                A1:DF:33:C3:CF:3E:53:41:A7:68:44:CC:AA:19:E1:84:C9:0D:BC:C6
            X509v3 Authority Key Identifier: 
                keyid:B4:11:33:F1:D7:E2:5E:F7:53:9E:20:22:10:4F:86:06:BF:1F:C9:5E
                DirName:/C=AU/O=Dodgy Brothers/CN=Dodgy CA
                serial:19:5A:3C:54:A5:37:6D:D0:6B:A6:93:61:42:60:27:C9:9E:53:AF:40
            X509v3 Basic Constraints: critical
                CA:TRUE, pathlen:1
            X509v3 Key Usage: 
                Certificate Sign, CRL Sign
            X509v3 Issuer Alternative Name: 
                <EMPTY>

    Signature Algorithm: sha1WithRSAEncryption
    Signature Value:
        8f:45:0d:47:3e:67:ef:51:83:1b:ef:1d:9b:14:fd:7d:af:ed:
        6d:71:30:a7:e7:e4:66:54:d0:0b:7b:96:18:b2:8d:2b:03:aa:
        58:05:cb:93:8b:af:62:53:23:85:f0:7d:e6:a8:90:a7:7f:df:
        9c:9a:f5:7c:3f:19:30:3f:b9:96:3e:59:1c:db:62:a9:e9:75:
        bd:ee:c2:34:29:a3:1e:7b:45:21:8f:07:e0:d9:b6:d0:f1:15:
        9d:fe:3d:1f:e0:cd:37:99:95:d8:d6:bf:7e:02:b0:9f:68:09:
        61:50:d8:37:b4:35:f1:3c:6f:37:99:10:7f:3c:95:79:80:16:
        85:e9:eb:bc:f0:6f:f3:bb:ad:88:8c:07:06:fa:a5:3a:5d:01:
        32:c6:f1:43:68:bc:50:6f:0e:3c:12:72:f2:d2:69:05:5e:3a:
        a0:e5:e0:4a:ee:23:24:9e:70:7e:76:3c:29:77:93:82:25:dd:
        67:60:30:16:78:b8:02:a8:78:7a:4c:6d:5b:a5:1c:04:cc:1f:
        a2:69:24:da:93:40:3d:8c:d1:d0:05:1e:47:5a:89:60:d7:d5:
        e5:12:ef:97:10:23:0f:a8:bc:62:03:c0:aa:8b:3b:45:67:55:
        80:74:90:2a:27:f1:17:ee:eb:28:5f:b1:ef:16:ed:85:8a:c1:
        f2:b3:c1:83
-----BEGIN CERTIFICATE-----
MIID4zCCAsugAwIBAgIUE9tYNUvEx85yNvZrf3duASEbef4wDQYJKoZIhvcNAQEF
BQAwOTELMAkGA1UEBhMCQVUxFzAVBgNVBAoMDkRvZGd5IEJyb3RoZXJzMREwDwYD
VQQDDAhEb2RneSBDQTAeFw0yNDA4MjcxNTE4MTNaFw0yNTA4MjcxNTE4MTNaMFcx
CzAJBgNVBAYTAkFVMRcwFQYDVQQKDA5Eb2RneSBCcm90aGVyczESMBAGA1UEAwwJ
QnJvdGhlciAxMRswGQYDVQQDDBJuZXh0dXBkYXRlX2ludmFsaWQwggEiMA0GCSqG
SIb3DQEBAQUAA4IBDwAwggEKAoIBAQC+lYb6cUxq6lGYUEuZoSxmFfNg8+H/afvO
SAEd/uEsOLDjvY9LSKd+OsZz46u/4dpulvX+w+S0qK28VjTUliV0J8MQ2zUQJRyO
S4Gb+0IEfG894jhsDuQujioYbTDNZyojazfPBZ/Mt1lYf7rECj+MpK3LmJzA8o9p
Zw/BTjPP/IVeu17Pk7DP2fRSeYex+E0VaGXVtxkIY39esTStBY9a8OThjyXyXFxh
lbBWLTErCGV55bE7nT65UkusXcRYZoWNgbMEKPQ/L6ySAWLV/Y4L2gIMesduCRys
HLJM11S4JjOyXxTzsfk9Yk1AmWu254lYl9bUTepLaFLzPKixNYjbAgMBAAGjgcQw
gcEwHQYDVR0OBBYEFKHfM8PPPlNBp2hEzKoZ4YTJDbzGMHQGA1UdIwRtMGuAFLQR
M/HX4l73U54gIhBPhga/H8leoT2kOzA5MQswCQYDVQQGEwJBVTEXMBUGA1UECgwO
RG9kZ3kgQnJvdGhlcnMxETAPBgNVBAMMCERvZGd5IENBghQZWjxUpTdt0Gumk2FC
YCfJnlOvQDASBgNVHRMBAf8ECDAGAQH/AgEBMAsGA1UdDwQEAwIBBjAJBgNVHRIE
AjAAMA0GCSqGSIb3DQEBBQUAA4IBAQCPRQ1HPmfvUYMb7x2bFP19r+1tcTCn5+Rm
VNALe5YYso0rA6pYBcuTi69iUyOF8H3mqJCnf9+cmvV8PxkwP7mWPlkc22Kp6XW9
7sI0KaMee0Uhjwfg2bbQ8RWd/j0f4M03mZXY1r9+ArCfaAlhUNg3tDXxPG83mRB/
PJV5gBaF6eu88G/zu62IjAcG+qU6XQEyxvFDaLxQbw48EnLy0mkFXjqg5eBK7iMk
nnB+djwpd5OCJd1nYDAWeLgCqHh6TG1bpRwEzB+iaSTak0A9jNHQBR5HWolg19Xl
Eu+XECMPqLxiA8CqiztFZ1WAdJAqJ/EX7usoX7HvFu2FisHys8GD
-----END CERTIFICATE-----
