Certificate:
    Data:
        Version: 3 (0x2)
        Serial Number:
            13:db:58:35:4b:c4:c7:ce:72:36:f6:6b:7f:77:6e:01:21:1b:79:f7
        Signature Algorithm: sha256WithRSAEncryption
        Issuer: C=AU, O=Dodgy Brothers, CN=Dodgy CA
        Validity
            Not Before: Aug 27 15:18:11 2024 GMT
            Not After : Aug 27 15:18:11 2025 GMT
        Subject: C=AU, O=Dodgy Brothers, CN=Brother 1, CN=Brother 2
        Subject Public Key Info:
            Public Key Algorithm: rsaEncryption
                Public-Key: (2048 bit)
                Modulus:
                    00:a8:ff:89:58:61:85:ae:de:db:2c:0f:d5:73:fb:
                    e2:b7:a8:1b:7a:75:60:2b:d4:7d:3c:73:76:b5:ae:
                    de:93:2f:7f:24:90:6d:c9:1c:f4:8a:38:cd:9f:a2:
                    80:16:56:cb:b4:2c:bb:93:e5:17:1f:ff:0d:c6:43:
                    fe:31:34:f8:28:d8:75:e9:a3:bb:88:82:ef:a3:72:
                    e2:53:62:05:45:4d:e0:31:97:ef:aa:9d:10:d2:58:
                    0d:9e:06:9e:32:bb:1b:08:56:5d:65:0f:3f:66:8e:
                    c2:36:a0:11:ff:c0:59:35:fd:49:1c:dd:1c:42:33:
                    06:78:ae:04:38:23:e5:e7:75:67:d3:94:ad:5a:a9:
                    40:1f:ac:59:10:f5:0c:c1:64:ad:4a:c4:c6:35:53:
                    b3:96:6a:82:1b:15:8b:d1:99:ab:e4:9e:6f:94:aa:
                    d2:96:e5:57:fb:8c:91:64:8a:3c:24:16:c6:d2:19:
                    be:82:60:13:3b:62:b0:ed:3e:1d:b3:ca:f9:6b:df:
                    31:b9:7a:9e:4b:47:68:a7:29:c7:3f:4a:e2:22:27:
                    b4:ef:90:63:d7:ef:d0:72:49:3e:5b:ad:b9:1b:d4:
                    2b:6f:86:68:dd:d5:73:12:b8:43:c9:dc:41:0f:a2:
                    a3:46:4f:8b:67:88:84:0f:61:fe:79:34:1f:4a:89:
                    1f:b7
                Exponent: 65537 (0x10001)
        X509v3 extensions:
            X509v3 Basic Constraints: 
                CA:FALSE
            X509v3 Subject Key Identifier: 
                E7:9B:E2:2A:AD:8A:6C:3A:CB:76:51:E5:8E:07:98:22:97:E1:73:A2
            X509v3 Authority Key Identifier: 
                B4:11:33:F1:D7:E2:5E:F7:53:9E:20:22:10:4F:86:06:BF:1F:C9:5E
    Signature Algorithm: sha256WithRSAEncryption
    Signature Value:
        76:9d:04:a8:96:d8:27:61:3c:23:ea:34:c3:64:81:2e:c6:53:
        c3:09:ad:6e:85:ee:f7:10:45:19:1e:35:00:37:55:97:cf:ac:
        3b:4e:39:8c:4d:77:85:14:3a:79:2a:4a:4f:73:8a:a6:d8:36:
        f7:12:7a:3f:a1:ee:b0:c3:32:fe:af:70:1b:e4:71:d2:66:1c:
        61:54:86:e9:63:42:a0:58:7a:67:7f:77:2b:28:22:f6:74:bd:
        a8:76:85:5e:5f:00:16:3f:0e:89:cd:25:ab:3d:e3:18:bb:31:
        13:06:4c:13:e4:27:94:77:bd:b7:73:9e:55:55:fd:1d:f9:54:
        30:62:24:01:37:53:68:c6:ed:5f:9b:ea:b8:d5:7c:c4:61:68:
        ab:21:c7:97:84:4e:76:ab:01:0f:e9:42:42:a1:06:17:ee:f6:
        c9:9b:a5:77:d6:22:ff:c6:9b:7e:93:93:d4:82:d5:7d:bb:73:
        19:ad:c5:af:d8:f7:ac:8b:28:f5:60:bc:1a:3d:56:8b:14:92:
        0a:0b:22:2a:0e:ae:d7:66:00:12:7d:04:58:a2:d1:f8:47:5d:
        43:7f:23:fc:e5:8d:94:40:76:bb:34:31:5a:09:33:e4:48:df:
        35:ce:b6:8e:77:f4:0c:67:a8:08:da:dd:bd:60:e4:52:78:66:
        a9:3f:59:36
-----BEGIN CERTIFICATE-----
MIIDYjCCAkqgAwIBAgIUE9tYNUvEx85yNvZrf3duASEbefcwDQYJKoZIhvcNAQEL
BQAwOTELMAkGA1UEBhMCQVUxFzAVBgNVBAoMDkRvZGd5IEJyb3RoZXJzMREwDwYD
VQQDDAhEb2RneSBDQTAeFw0yNDA4MjcxNTE4MTFaFw0yNTA4MjcxNTE4MTFaME4x
CzAJBgNVBAYTAkFVMRcwFQYDVQQKDA5Eb2RneSBCcm90aGVyczESMBAGA1UEAwwJ
QnJvdGhlciAxMRIwEAYDVQQDDAlCcm90aGVyIDIwggEiMA0GCSqGSIb3DQEBAQUA
A4IBDwAwggEKAoIBAQCo/4lYYYWu3tssD9Vz++K3qBt6dWAr1H08c3a1rt6TL38k
kG3JHPSKOM2fooAWVsu0LLuT5Rcf/w3GQ/4xNPgo2HXpo7uIgu+jcuJTYgVFTeAx
l++qnRDSWA2eBp4yuxsIVl1lDz9mjsI2oBH/wFk1/Ukc3RxCMwZ4rgQ4I+XndWfT
lK1aqUAfrFkQ9QzBZK1KxMY1U7OWaoIbFYvRmavknm+UqtKW5Vf7jJFkijwkFsbS
Gb6CYBM7YrDtPh2zyvlr3zG5ep5LR2inKcc/SuIiJ7TvkGPX79ByST5brbkb1Ctv
hmjd1XMSuEPJ3EEPoqNGT4tniIQPYf55NB9KiR+3AgMBAAGjTTBLMAkGA1UdEwQC
MAAwHQYDVR0OBBYEFOeb4iqtimw6y3ZR5Y4HmCKX4XOiMB8GA1UdIwQYMBaAFLQR
M/HX4l73U54gIhBPhga/H8leMA0GCSqGSIb3DQEBCwUAA4IBAQB2nQSoltgnYTwj
6jTDZIEuxlPDCa1uhe73EEUZHjUAN1WXz6w7TjmMTXeFFDp5KkpPc4qm2Db3Eno/
oe6wwzL+r3Ab5HHSZhxhVIbpY0KgWHpnf3crKCL2dL2odoVeXwAWPw6JzSWrPeMY
uzETBkwT5CeUd723c55VVf0d+VQwYiQBN1Noxu1fm+q41XzEYWirIceXhE52qwEP
6UJCoQYX7vbJm6V31iL/xpt+k5PUgtV9u3MZrcWv2Pesiyj1YLwaPVaLFJIKCyIq
Dq7XZgASfQRYotH4R11DfyP85Y2UQHa7NDFaCTPkSN81zraOd/QMZ6gI2t29YORS
eGapP1k2
-----END CERTIFICATE-----
