Certificate:
    Data:
        Version: 3 (0x2)
        Serial Number:
            19:5a:3c:54:a5:37:6d:d0:6b:a6:93:61:42:60:27:c9:9e:53:af:40
        Signature Algorithm: sha1WithRSAEncryption
        Issuer: C=AU, O=Dodgy Brothers, CN=Dodgy CA
        Validity
            Not Before: Aug 27 15:18:11 2024 GMT
            Not After : Aug 27 15:18:11 2027 GMT
        Subject: C=AU, O=Dodgy Brothers, CN=Dodgy CA
        Subject Public Key Info:
            Public Key Algorithm: rsaEncryption
                Public-Key: (2048 bit)
                Modulus:
                    00:96:9d:a4:3d:00:4b:1c:5f:c6:cb:dd:8f:d2:31:
                    b2:88:15:cc:c4:86:2c:5c:e2:69:8b:84:f4:a7:a3:
                    53:df:91:e3:bf:51:89:fb:f0:7c:10:0d:3b:ad:ac:
                    35:62:75:f5:7f:ff:f4:6e:54:8f:05:a6:92:23:b3:
                    9f:59:39:d0:39:18:b0:10:40:de:62:73:8a:4e:b0:
                    8e:df:dc:e7:c9:41:22:54:84:80:08:29:bc:35:3c:
                    86:df:30:de:dd:b4:24:ff:7e:62:a5:c0:7a:e8:2a:
                    16:3f:d6:97:da:c5:42:db:2f:69:64:91:cb:08:d7:
                    56:5a:79:7f:1b:84:41:e9:4d:9d:77:09:10:a8:6c:
                    29:33:44:c6:c0:54:65:e6:e8:e3:f2:75:05:6a:64:
                    95:6c:c0:f4:fd:25:61:6e:48:36:f0:c0:03:07:05:
                    d6:7c:e5:11:fd:18:e8:4a:2d:d3:72:0c:37:28:36:
                    31:31:38:85:e8:71:8d:d8:02:49:c8:bc:19:89:c5:
                    8a:b1:3f:a2:35:ea:aa:90:1c:64:68:7b:af:67:6a:
                    5a:06:54:0f:50:e1:f9:b4:f6:be:3a:d4:ce:3f:1e:
                    4c:7d:c6:77:32:3e:a2:58:ed:db:dd:74:d8:92:14:
                    6a:a8:f7:cb:34:58:91:a8:7c:14:b1:7d:08:b3:4d:
                    b1:47
                Exponent: 65537 (0x10001)
        X509v3 extensions:
            X509v3 Subject Key Identifier: 
                B4:11:33:F1:D7:E2:5E:F7:53:9E:20:22:10:4F:86:06:BF:1F:C9:5E
            X509v3 Authority Key Identifier: 
                keyid:B4:11:33:F1:D7:E2:5E:F7:53:9E:20:22:10:4F:86:06:BF:1F:C9:5E
                DirName:/C=AU/O=Dodgy Brothers/CN=Dodgy CA
                serial:19:5A:3C:54:A5:37:6D:D0:6B:A6:93:61:42:60:27:C9:9E:53:AF:40
            X509v3 Basic Constraints: critical
                CA:TRUE, pathlen:1
            X509v3 Key Usage: 
                Certificate Sign, CRL Sign
            X509v3 Issuer Alternative Name: 
                <EMPTY>

    Signature Algorithm: sha1WithRSAEncryption
    Signature Value:
        48:14:c0:e1:c4:19:86:58:dc:95:92:4f:c3:99:2b:52:14:14:
        fa:b7:6c:b7:99:09:36:ff:d4:a1:78:1c:8d:a7:3a:58:d7:4d:
        f8:07:6d:c7:40:7a:b9:0b:c2:f7:06:84:6e:19:49:03:fd:bd:
        07:83:be:81:ca:1d:1f:73:3b:33:72:fe:56:13:7c:44:5e:77:
        c6:e9:97:c1:2b:16:1d:6f:9f:08:b1:4f:96:3b:e3:46:76:de:
        d4:f5:e6:95:fd:31:68:b5:30:37:52:c2:8e:32:65:df:49:05:
        51:ee:c4:1f:4c:13:f0:0b:41:26:a6:36:ff:16:bf:b4:2c:c0:
        8d:0a:f1:20:6f:ed:3a:61:61:bf:3e:f9:eb:e3:87:9e:30:2d:
        81:96:ea:4c:f4:2e:b6:95:cb:be:93:f0:2a:5e:86:a2:3b:43:
        b9:63:41:d0:78:66:c6:1f:b3:11:9f:9c:d5:7c:bf:51:62:d1:
        7a:73:df:d9:c6:5f:65:c4:cd:42:71:0d:df:43:c9:3f:48:cd:
        58:a9:82:63:e5:51:3e:db:4b:c2:5b:98:5c:67:d1:f0:c7:c0:
        c6:6f:6e:9d:cd:5b:67:19:84:cb:ce:bb:88:75:56:25:33:a1:
        4b:a3:9b:e2:f1:03:b7:f9:9e:24:ea:51:7b:6a:43:fa:56:1e:
        21:9f:bb:2c
-----BEGIN CERTIFICATE-----
MIIDxTCCAq2gAwIBAgIUGVo8VKU3bdBrppNhQmAnyZ5Tr0AwDQYJKoZIhvcNAQEF
BQAwOTELMAkGA1UEBhMCQVUxFzAVBgNVBAoMDkRvZGd5IEJyb3RoZXJzMREwDwYD
VQQDDAhEb2RneSBDQTAeFw0yNDA4MjcxNTE4MTFaFw0yNzA4MjcxNTE4MTFaMDkx
CzAJBgNVBAYTAkFVMRcwFQYDVQQKDA5Eb2RneSBCcm90aGVyczERMA8GA1UEAwwI
RG9kZ3kgQ0EwggEiMA0GCSqGSIb3DQEBAQUAA4IBDwAwggEKAoIBAQCWnaQ9AEsc
X8bL3Y/SMbKIFczEhixc4mmLhPSno1PfkeO/UYn78HwQDTutrDVidfV///RuVI8F
ppIjs59ZOdA5GLAQQN5ic4pOsI7f3OfJQSJUhIAIKbw1PIbfMN7dtCT/fmKlwHro
KhY/1pfaxULbL2lkkcsI11ZaeX8bhEHpTZ13CRCobCkzRMbAVGXm6OPydQVqZJVs
wPT9JWFuSDbwwAMHBdZ85RH9GOhKLdNyDDcoNjExOIXocY3YAknIvBmJxYqxP6I1
6qqQHGRoe69naloGVA9Q4fm09r461M4/Hkx9xncyPqJY7dvddNiSFGqo98s0WJGo
fBSxfQizTbFHAgMBAAGjgcQwgcEwHQYDVR0OBBYEFLQRM/HX4l73U54gIhBPhga/
H8leMHQGA1UdIwRtMGuAFLQRM/HX4l73U54gIhBPhga/H8leoT2kOzA5MQswCQYD
VQQGEwJBVTEXMBUGA1UECgwORG9kZ3kgQnJvdGhlcnMxETAPBgNVBAMMCERvZGd5
IENBghQZWjxUpTdt0Gumk2FCYCfJnlOvQDASBgNVHRMBAf8ECDAGAQH/AgEBMAsG
A1UdDwQEAwIBBjAJBgNVHRIEAjAAMA0GCSqGSIb3DQEBBQUAA4IBAQBIFMDhxBmG
WNyVkk/DmStSFBT6t2y3mQk2/9SheByNpzpY1034B23HQHq5C8L3BoRuGUkD/b0H
g76Byh0fczszcv5WE3xEXnfG6ZfBKxYdb58IsU+WO+NGdt7U9eaV/TFotTA3UsKO
MmXfSQVR7sQfTBPwC0Empjb/Fr+0LMCNCvEgb+06YWG/Pvnr44eeMC2BlupM9C62
lcu+k/AqXoaiO0O5Y0HQeGbGH7MRn5zVfL9RYtF6c9/Zxl9lxM1CcQ3fQ8k/SM1Y
qYJj5VE+20vCW5hcZ9Hwx8DGb26dzVtnGYTLzruIdVYlM6FLo5vi8QO3+Z4k6lF7
akP6Vh4hn7ss
-----END CERTIFICATE-----
