Certificate:
    Data:
        Version: 3 (0x2)
        Serial Number:
            1b:d3:e1:d7:5a:41:b6:0e:8b:bc:ef:92:99:ee:10:cc:fc:4c:d0:fa
        Signature Algorithm: sha1WithRSAEncryption
        Issuer: C=AU, O=Dodgy Brothers, CN=Dodgy CA
        Validity
            Not Before: Aug 12 04:13:29 2024 GMT
            Not After : Aug 12 04:13:29 2027 GMT
        Subject: C=AU, O=Dodgy Brothers, CN=Dodgy CA
        Subject Public Key Info:
            Public Key Algorithm: rsaEncryption
                Public-Key: (2048 bit)
                Modulus:
                    00:96:9d:a4:3d:00:4b:1c:5f:c6:cb:dd:8f:d2:31:
                    b2:88:15:cc:c4:86:2c:5c:e2:69:8b:84:f4:a7:a3:
                    53:df:91:e3:bf:51:89:fb:f0:7c:10:0d:3b:ad:ac:
                    35:62:75:f5:7f:ff:f4:6e:54:8f:05:a6:92:23:b3:
                    9f:59:39:d0:39:18:b0:10:40:de:62:73:8a:4e:b0:
                    8e:df:dc:e7:c9:41:22:54:84:80:08:29:bc:35:3c:
                    86:df:30:de:dd:b4:24:ff:7e:62:a5:c0:7a:e8:2a:
                    16:3f:d6:97:da:c5:42:db:2f:69:64:91:cb:08:d7:
                    56:5a:79:7f:1b:84:41:e9:4d:9d:77:09:10:a8:6c:
                    29:33:44:c6:c0:54:65:e6:e8:e3:f2:75:05:6a:64:
                    95:6c:c0:f4:fd:25:61:6e:48:36:f0:c0:03:07:05:
                    d6:7c:e5:11:fd:18:e8:4a:2d:d3:72:0c:37:28:36:
                    31:31:38:85:e8:71:8d:d8:02:49:c8:bc:19:89:c5:
                    8a:b1:3f:a2:35:ea:aa:90:1c:64:68:7b:af:67:6a:
                    5a:06:54:0f:50:e1:f9:b4:f6:be:3a:d4:ce:3f:1e:
                    4c:7d:c6:77:32:3e:a2:58:ed:db:dd:74:d8:92:14:
                    6a:a8:f7:cb:34:58:91:a8:7c:14:b1:7d:08:b3:4d:
                    b1:47
                Exponent: 65537 (0x10001)
        X509v3 extensions:
            X509v3 Subject Key Identifier: 
                B4:11:33:F1:D7:E2:5E:F7:53:9E:20:22:10:4F:86:06:BF:1F:C9:5E
            X509v3 Authority Key Identifier: 
                keyid:B4:11:33:F1:D7:E2:5E:F7:53:9E:20:22:10:4F:86:06:BF:1F:C9:5E
                DirName:/C=AU/O=Dodgy Brothers/CN=Dodgy CA
                serial:1B:D3:E1:D7:5A:41:B6:0E:8B:BC:EF:92:99:EE:10:CC:FC:4C:D0:FA
            X509v3 Basic Constraints: critical
                CA:TRUE, pathlen:1
            X509v3 Key Usage: 
                Certificate Sign, CRL Sign
            X509v3 Issuer Alternative Name: 
                <EMPTY>

    Signature Algorithm: sha1WithRSAEncryption
    Signature Value:
        1b:2c:d5:fd:d3:31:8c:02:9c:18:be:08:bb:62:ee:04:2d:e5:
        47:f5:b2:d7:bd:f7:96:bc:93:24:35:cf:e2:19:27:26:ee:f2:
        5f:1a:ef:e6:ed:3c:11:f9:bc:f9:44:71:e3:ff:e5:25:83:20:
        f9:94:b7:8a:cf:5b:e5:f8:ce:a5:c5:eb:23:bc:e8:26:b5:d0:
        f7:b3:6b:05:f9:ed:66:2b:f9:69:7f:b3:9d:d2:8d:30:71:1c:
        0c:14:65:1e:77:c2:8d:c7:8b:93:cc:70:f3:3b:b9:89:26:c6:
        9e:53:5a:74:66:d2:b2:77:89:be:c8:6c:4b:23:ee:9a:0c:6d:
        bb:f4:63:ac:90:92:c4:bc:95:5b:53:00:17:96:27:b0:fd:9a:
        cd:db:39:15:76:2a:b0:ba:b6:59:35:83:1c:d6:6c:94:74:4f:
        bf:58:2f:42:eb:fb:34:b7:5b:a7:70:89:ad:5c:4f:20:6d:12:
        b5:6b:1f:8d:a7:3c:75:c5:a3:ac:f1:3b:d7:e5:db:4b:90:b2:
        4c:47:61:c8:d1:93:0f:58:a6:69:18:36:5b:55:19:df:a2:6d:
        d2:83:5f:9c:db:0d:cb:02:66:2a:23:78:58:5a:fa:6c:7d:9f:
        44:10:b8:dd:e0:c2:1b:f6:db:75:08:2f:ac:96:ee:e5:1a:93:
        af:c1:53:e9
-----BEGIN CERTIFICATE-----
MIIDxTCCAq2gAwIBAgIUG9Ph11pBtg6LvO+Sme4QzPxM0PowDQYJKoZIhvcNAQEF
BQAwOTELMAkGA1UEBhMCQVUxFzAVBgNVBAoMDkRvZGd5IEJyb3RoZXJzMREwDwYD
VQQDDAhEb2RneSBDQTAeFw0yNDA4MTIwNDEzMjlaFw0yNzA4MTIwNDEzMjlaMDkx
CzAJBgNVBAYTAkFVMRcwFQYDVQQKDA5Eb2RneSBCcm90aGVyczERMA8GA1UEAwwI
RG9kZ3kgQ0EwggEiMA0GCSqGSIb3DQEBAQUAA4IBDwAwggEKAoIBAQCWnaQ9AEsc
X8bL3Y/SMbKIFczEhixc4mmLhPSno1PfkeO/UYn78HwQDTutrDVidfV///RuVI8F
ppIjs59ZOdA5GLAQQN5ic4pOsI7f3OfJQSJUhIAIKbw1PIbfMN7dtCT/fmKlwHro
KhY/1pfaxULbL2lkkcsI11ZaeX8bhEHpTZ13CRCobCkzRMbAVGXm6OPydQVqZJVs
wPT9JWFuSDbwwAMHBdZ85RH9GOhKLdNyDDcoNjExOIXocY3YAknIvBmJxYqxP6I1
6qqQHGRoe69naloGVA9Q4fm09r461M4/Hkx9xncyPqJY7dvddNiSFGqo98s0WJGo
fBSxfQizTbFHAgMBAAGjgcQwgcEwHQYDVR0OBBYEFLQRM/HX4l73U54gIhBPhga/
H8leMHQGA1UdIwRtMGuAFLQRM/HX4l73U54gIhBPhga/H8leoT2kOzA5MQswCQYD
VQQGEwJBVTEXMBUGA1UECgwORG9kZ3kgQnJvdGhlcnMxETAPBgNVBAMMCERvZGd5
IENBghQb0+HXWkG2Dou875KZ7hDM/EzQ+jASBgNVHRMBAf8ECDAGAQH/AgEBMAsG
A1UdDwQEAwIBBjAJBgNVHRIEAjAAMA0GCSqGSIb3DQEBBQUAA4IBAQAbLNX90zGM
ApwYvgi7Yu4ELeVH9bLXvfeWvJMkNc/iGScm7vJfGu/m7TwR+bz5RHHj/+UlgyD5
lLeKz1vl+M6lxesjvOgmtdD3s2sF+e1mK/lpf7Od0o0wcRwMFGUed8KNx4uTzHDz
O7mJJsaeU1p0ZtKyd4m+yGxLI+6aDG279GOskJLEvJVbUwAXliew/ZrN2zkVdiqw
urZZNYMc1myUdE+/WC9C6/s0t1uncImtXE8gbRK1ax+Npzx1xaOs8TvX5dtLkLJM
R2HI0ZMPWKZpGDZbVRnfom3Sg1+c2w3LAmYqI3hYWvpsfZ9EELjd4MIb9tt1CC+s
lu7lGpOvwVPp
-----END CERTIFICATE-----
