Certificate:
    Data:
        Version: 3 (0x2)
        Serial Number:
            33:a2:16:6c:56:01:7d:20:55:ad:3f:86:0b:fd:a9:0e:3c:58:b1:04
        Signature Algorithm: sha1WithRSAEncryption
        Issuer: C=AU, O=Dodgy Brothers, CN=Dodgy CA
        Validity
            Not Before: Aug 12 03:08:50 2024 GMT
            Not After : Aug 12 03:08:50 2027 GMT
        Subject: C=AU, O=Dodgy Brothers, CN=Dodgy CA
        Subject Public Key Info:
            Public Key Algorithm: rsaEncryption
                Public-Key: (2048 bit)
                Modulus:
                    00:96:9d:a4:3d:00:4b:1c:5f:c6:cb:dd:8f:d2:31:
                    b2:88:15:cc:c4:86:2c:5c:e2:69:8b:84:f4:a7:a3:
                    53:df:91:e3:bf:51:89:fb:f0:7c:10:0d:3b:ad:ac:
                    35:62:75:f5:7f:ff:f4:6e:54:8f:05:a6:92:23:b3:
                    9f:59:39:d0:39:18:b0:10:40:de:62:73:8a:4e:b0:
                    8e:df:dc:e7:c9:41:22:54:84:80:08:29:bc:35:3c:
                    86:df:30:de:dd:b4:24:ff:7e:62:a5:c0:7a:e8:2a:
                    16:3f:d6:97:da:c5:42:db:2f:69:64:91:cb:08:d7:
                    56:5a:79:7f:1b:84:41:e9:4d:9d:77:09:10:a8:6c:
                    29:33:44:c6:c0:54:65:e6:e8:e3:f2:75:05:6a:64:
                    95:6c:c0:f4:fd:25:61:6e:48:36:f0:c0:03:07:05:
                    d6:7c:e5:11:fd:18:e8:4a:2d:d3:72:0c:37:28:36:
                    31:31:38:85:e8:71:8d:d8:02:49:c8:bc:19:89:c5:
                    8a:b1:3f:a2:35:ea:aa:90:1c:64:68:7b:af:67:6a:
                    5a:06:54:0f:50:e1:f9:b4:f6:be:3a:d4:ce:3f:1e:
                    4c:7d:c6:77:32:3e:a2:58:ed:db:dd:74:d8:92:14:
                    6a:a8:f7:cb:34:58:91:a8:7c:14:b1:7d:08:b3:4d:
                    b1:47
                Exponent: 65537 (0x10001)
        X509v3 extensions:
            X509v3 Subject Key Identifier: 
                B4:11:33:F1:D7:E2:5E:F7:53:9E:20:22:10:4F:86:06:BF:1F:C9:5E
            X509v3 Authority Key Identifier: 
                keyid:B4:11:33:F1:D7:E2:5E:F7:53:9E:20:22:10:4F:86:06:BF:1F:C9:5E
                DirName:/C=AU/O=Dodgy Brothers/CN=Dodgy CA
                serial:33:A2:16:6C:56:01:7D:20:55:AD:3F:86:0B:FD:A9:0E:3C:58:B1:04
            X509v3 Basic Constraints: critical
                CA:TRUE, pathlen:1
            X509v3 Key Usage: 
                Certificate Sign, CRL Sign
            X509v3 Issuer Alternative Name: 
                <EMPTY>

    Signature Algorithm: sha1WithRSAEncryption
    Signature Value:
        2f:4e:dc:c0:5c:58:ca:0c:bd:5e:64:7e:99:1d:24:39:2c:60:
        bc:f0:9a:50:bf:1d:4c:94:12:e8:77:14:72:f2:a0:47:83:c0:
        85:2b:7e:bb:e2:c3:ea:d8:d6:85:89:0f:9e:93:d3:aa:45:dc:
        7c:fb:0b:d4:4e:65:a4:ce:8e:33:8e:f4:ff:f7:a3:27:37:59:
        15:2d:6d:b6:f2:60:54:76:43:6b:48:d2:2b:af:4f:e3:98:1a:
        38:4e:63:db:d6:b9:24:b9:c9:f5:51:25:be:5f:44:eb:57:e4:
        c0:95:2b:4e:a0:c0:56:a3:89:45:f3:74:e8:b3:83:6b:e4:66:
        9f:94:05:93:c7:6e:aa:0f:8e:fd:33:fb:76:52:fc:94:5b:dc:
        5c:04:a4:69:83:dc:4d:6e:1b:1d:f7:ac:a2:78:69:68:c8:60:
        95:dd:d8:d3:16:8a:eb:00:2f:8c:cd:79:71:8e:1f:7e:47:7f:
        63:eb:ea:d7:b4:50:31:05:01:63:ef:a7:36:0f:48:1c:bf:29:
        f2:12:37:68:f3:34:65:c4:25:6e:69:f0:80:4c:14:c5:98:a4:
        28:57:94:77:0d:13:d6:c1:ce:b4:c1:c2:e7:9d:93:63:8c:a3:
        c2:96:38:27:64:67:8a:bc:8f:54:c9:7f:27:ba:6b:38:50:d7:
        52:20:53:cc
-----BEGIN CERTIFICATE-----
MIIDxTCCAq2gAwIBAgIUM6IWbFYBfSBVrT+GC/2pDjxYsQQwDQYJKoZIhvcNAQEF
BQAwOTELMAkGA1UEBhMCQVUxFzAVBgNVBAoMDkRvZGd5IEJyb3RoZXJzMREwDwYD
VQQDDAhEb2RneSBDQTAeFw0yNDA4MTIwMzA4NTBaFw0yNzA4MTIwMzA4NTBaMDkx
CzAJBgNVBAYTAkFVMRcwFQYDVQQKDA5Eb2RneSBCcm90aGVyczERMA8GA1UEAwwI
RG9kZ3kgQ0EwggEiMA0GCSqGSIb3DQEBAQUAA4IBDwAwggEKAoIBAQCWnaQ9AEsc
X8bL3Y/SMbKIFczEhixc4mmLhPSno1PfkeO/UYn78HwQDTutrDVidfV///RuVI8F
ppIjs59ZOdA5GLAQQN5ic4pOsI7f3OfJQSJUhIAIKbw1PIbfMN7dtCT/fmKlwHro
KhY/1pfaxULbL2lkkcsI11ZaeX8bhEHpTZ13CRCobCkzRMbAVGXm6OPydQVqZJVs
wPT9JWFuSDbwwAMHBdZ85RH9GOhKLdNyDDcoNjExOIXocY3YAknIvBmJxYqxP6I1
6qqQHGRoe69naloGVA9Q4fm09r461M4/Hkx9xncyPqJY7dvddNiSFGqo98s0WJGo
fBSxfQizTbFHAgMBAAGjgcQwgcEwHQYDVR0OBBYEFLQRM/HX4l73U54gIhBPhga/
H8leMHQGA1UdIwRtMGuAFLQRM/HX4l73U54gIhBPhga/H8leoT2kOzA5MQswCQYD
VQQGEwJBVTEXMBUGA1UECgwORG9kZ3kgQnJvdGhlcnMxETAPBgNVBAMMCERvZGd5
IENBghQzohZsVgF9IFWtP4YL/akOPFixBDASBgNVHRMBAf8ECDAGAQH/AgEBMAsG
A1UdDwQEAwIBBjAJBgNVHRIEAjAAMA0GCSqGSIb3DQEBBQUAA4IBAQAvTtzAXFjK
DL1eZH6ZHSQ5LGC88JpQvx1MlBLodxRy8qBHg8CFK3674sPq2NaFiQ+ek9OqRdx8
+wvUTmWkzo4zjvT/96MnN1kVLW228mBUdkNrSNIrr0/jmBo4TmPb1rkkucn1USW+
X0TrV+TAlStOoMBWo4lF83Tos4Nr5GaflAWTx26qD479M/t2UvyUW9xcBKRpg9xN
bhsd96yieGloyGCV3djTForrAC+MzXlxjh9+R39j6+rXtFAxBQFj76c2D0gcvyny
Ejdo8zRlxCVuafCATBTFmKQoV5R3DRPWwc60wcLnnZNjjKPCljgnZGeKvI9UyX8n
ums4UNdSIFPM
-----END CERTIFICATE-----
