Certificate:
    Data:
        Version: 3 (0x2)
        Serial Number:
            33:c7:6d:37:49:2e:af:be:86:69:0b:f7:cd:60:28:54:c2:7b:2f:53
        Signature Algorithm: sha1WithRSAEncryption
        Issuer: C=AU, O=Dodgy Brothers, CN=Dodgy CA
        Validity
            Not Before: Aug 12 04:13:30 2024 GMT
            Not After : Aug 12 04:13:30 2025 GMT
        Subject: CN=x509-check-test
        Subject Public Key Info:
            Public Key Algorithm: rsaEncryption
                Public-Key: (2048 bit)
                Modulus:
                    00:9d:ea:3a:60:16:23:3f:65:6e:9d:08:99:44:23:
                    19:8a:93:ba:c7:ec:c4:4b:f7:7c:16:df:6a:39:76:
                    e4:f0:b5:3d:5c:b3:fc:be:ca:57:de:cb:49:79:b5:
                    80:73:18:cc:63:50:f3:5e:60:64:c1:aa:2b:b3:ea:
                    e7:95:c8:cb:db:7b:7c:32:99:73:e9:fb:3c:e8:6a:
                    ad:e2:7f:72:72:71:bf:b5:82:ea:d2:ca:24:29:17:
                    a4:f5:3c:b9:9f:24:38:10:41:3d:17:9c:8e:ea:47:
                    01:c8:e4:52:53:bc:a3:3d:9a:9b:f7:88:aa:21:06:
                    c7:93:fd:af:32:7d:d9:36:ef:31:58:ad:23:19:8d:
                    f6:aa:65:cf:b4:6b:5f:1b:1e:2f:d2:80:d3:77:e8:
                    b8:fe:be:73:dc:b3:60:f3:4b:cc:a6:04:9d:74:66:
                    ae:a2:73:2e:b1:2f:7d:2c:1c:32:8f:38:a2:ab:0f:
                    cf:84:27:ab:2e:52:6e:42:a4:b2:f8:37:a8:cf:3a:
                    69:3d:0e:3e:d7:42:fd:98:c2:85:f6:4b:46:2c:e9:
                    d1:69:1e:e1:81:27:53:67:80:15:bf:d1:99:bd:a2:
                    c7:83:3b:1c:6a:a6:53:c6:21:86:bc:9c:de:c1:22:
                    b4:f0:00:91:21:92:62:93:12:2f:4f:f0:03:c8:8b:
                    a0:d5
                Exponent: 65537 (0x10001)
        X509v3 extensions:
            X509v3 Subject Key Identifier: 
                BF:D8:68:6F:B9:F3:A1:9A:3C:92:2E:40:E7:F8:72:A8:92:89:37:7E
            X509v3 Authority Key Identifier: 
                B4:11:33:F1:D7:E2:5E:F7:53:9E:20:22:10:4F:86:06:BF:1F:C9:5E
    Signature Algorithm: sha1WithRSAEncryption
    Signature Value:
        21:d8:a1:e0:37:99:80:07:1e:7d:e6:52:ed:cd:6e:c4:27:e9:
        23:71:6e:2a:62:82:22:28:57:f2:1d:5f:78:22:eb:26:c8:45:
        b8:e9:5d:30:1c:9e:15:5d:9f:6a:a5:ca:8f:45:7f:05:21:1f:
        54:cc:df:bc:1b:2e:fa:36:9f:08:df:ab:5e:c4:d9:6e:df:af:
        ee:97:af:49:ad:b7:d7:4e:a6:d9:44:43:4a:f0:19:93:47:61:
        96:3e:36:58:ec:e3:b1:27:b3:1c:0a:72:e6:28:7c:e1:39:d5:
        09:9d:52:b6:b0:b1:4e:89:64:2c:d3:2c:e4:5c:ea:57:e1:88:
        00:cf:66:7c:5a:f2:2b:b7:ff:18:7d:86:82:5b:a0:6f:be:ee:
        f6:a0:60:e5:09:48:f2:96:9c:a1:44:b0:03:d6:4b:09:2a:cd:
        11:6f:08:7d:a4:fd:55:0e:8d:d0:34:50:38:96:fd:a5:7f:52:
        ab:d3:0d:60:56:8c:02:8e:56:c7:73:13:3a:69:54:17:ef:22:
        0a:9c:ec:58:29:a5:c4:48:5f:58:2b:cc:6f:a1:42:63:0f:4f:
        17:14:33:ae:1a:18:d3:e8:d7:78:cd:32:72:80:1a:24:98:3e:
        1d:c2:29:41:0b:a9:cb:56:83:66:bd:34:66:d7:29:1f:f8:df:
        dd:3b:dd:db
-----BEGIN CERTIFICATE-----
MIIDIzCCAgugAwIBAgIUM8dtN0kur76GaQv3zWAoVMJ7L1MwDQYJKoZIhvcNAQEF
BQAwOTELMAkGA1UEBhMCQVUxFzAVBgNVBAoMDkRvZGd5IEJyb3RoZXJzMREwDwYD
VQQDDAhEb2RneSBDQTAeFw0yNDA4MTIwNDEzMzBaFw0yNTA4MTIwNDEzMzBaMBox
GDAWBgNVBAMMD3g1MDktY2hlY2stdGVzdDCCASIwDQYJKoZIhvcNAQEBBQADggEP
ADCCAQoCggEBAJ3qOmAWIz9lbp0ImUQjGYqTusfsxEv3fBbfajl25PC1PVyz/L7K
V97LSXm1gHMYzGNQ815gZMGqK7Pq55XIy9t7fDKZc+n7POhqreJ/cnJxv7WC6tLK
JCkXpPU8uZ8kOBBBPRecjupHAcjkUlO8oz2am/eIqiEGx5P9rzJ92TbvMVitIxmN
9qplz7RrXxseL9KA03fouP6+c9yzYPNLzKYEnXRmrqJzLrEvfSwcMo84oqsPz4Qn
qy5SbkKksvg3qM86aT0OPtdC/ZjChfZLRizp0Wke4YEnU2eAFb/Rmb2ix4M7HGqm
U8Yhhryc3sEitPAAkSGSYpMSL0/wA8iLoNUCAwEAAaNCMEAwHQYDVR0OBBYEFL/Y
aG+586GaPJIuQOf4cqiSiTd+MB8GA1UdIwQYMBaAFLQRM/HX4l73U54gIhBPhga/
H8leMA0GCSqGSIb3DQEBBQUAA4IBAQAh2KHgN5mABx595lLtzW7EJ+kjcW4qYoIi
KFfyHV94IusmyEW46V0wHJ4VXZ9qpcqPRX8FIR9UzN+8Gy76Np8I36texNlu36/u
l69JrbfXTqbZRENK8BmTR2GWPjZY7OOxJ7McCnLmKHzhOdUJnVK2sLFOiWQs0yzk
XOpX4YgAz2Z8WvIrt/8YfYaCW6Bvvu72oGDlCUjylpyhRLAD1ksJKs0Rbwh9pP1V
Do3QNFA4lv2lf1Kr0w1gVowCjlbHcxM6aVQX7yIKnOxYKaXESF9YK8xvoUJjD08X
FDOuGhjT6Nd4zTJygBokmD4dwilBC6nLVoNmvTRm1ykf+N/dO93b
-----END CERTIFICATE-----
