Certificate:
    Data:
        Version: 3 (0x2)
        Serial Number:
            33:c7:6d:37:49:2e:af:be:86:69:0b:f7:cd:60:28:54:c2:7b:2f:55
        Signature Algorithm: sha1WithRSAEncryption
        Issuer: C=AU, O=Dodgy Brothers, CN=Dodgy CA
        Validity
            Not Before: Aug 12 04:13:30 2024 GMT
            Not After : Aug 12 04:13:30 2025 GMT
        Subject: C=AU, O=Dodgy Brothers, CN=Brother 1, CN=lastupdate_invalid
        Subject Public Key Info:
            Public Key Algorithm: rsaEncryption
                Public-Key: (2048 bit)
                Modulus:
                    00:be:95:86:fa:71:4c:6a:ea:51:98:50:4b:99:a1:
                    2c:66:15:f3:60:f3:e1:ff:69:fb:ce:48:01:1d:fe:
                    e1:2c:38:b0:e3:bd:8f:4b:48:a7:7e:3a:c6:73:e3:
                    ab:bf:e1:da:6e:96:f5:fe:c3:e4:b4:a8:ad:bc:56:
                    34:d4:96:25:74:27:c3:10:db:35:10:25:1c:8e:4b:
                    81:9b:fb:42:04:7c:6f:3d:e2:38:6c:0e:e4:2e:8e:
                    2a:18:6d:30:cd:67:2a:23:6b:37:cf:05:9f:cc:b7:
                    59:58:7f:ba:c4:0a:3f:8c:a4:ad:cb:98:9c:c0:f2:
                    8f:69:67:0f:c1:4e:33:cf:fc:85:5e:bb:5e:cf:93:
                    b0:cf:d9:f4:52:79:87:b1:f8:4d:15:68:65:d5:b7:
                    19:08:63:7f:5e:b1:34:ad:05:8f:5a:f0:e4:e1:8f:
                    25:f2:5c:5c:61:95:b0:56:2d:31:2b:08:65:79:e5:
                    b1:3b:9d:3e:b9:52:4b:ac:5d:c4:58:66:85:8d:81:
                    b3:04:28:f4:3f:2f:ac:92:01:62:d5:fd:8e:0b:da:
                    02:0c:7a:c7:6e:09:1c:ac:1c:b2:4c:d7:54:b8:26:
                    33:b2:5f:14:f3:b1:f9:3d:62:4d:40:99:6b:b6:e7:
                    89:58:97:d6:d4:4d:ea:4b:68:52:f3:3c:a8:b1:35:
                    88:db
                Exponent: 65537 (0x10001)
        X509v3 extensions:
            X509v3 Subject Key Identifier: 
                A1:DF:33:C3:CF:3E:53:41:A7:68:44:CC:AA:19:E1:84:C9:0D:BC:C6
            X509v3 Authority Key Identifier: 
                keyid:B4:11:33:F1:D7:E2:5E:F7:53:9E:20:22:10:4F:86:06:BF:1F:C9:5E
                DirName:/C=AU/O=Dodgy Brothers/CN=Dodgy CA
                serial:1B:D3:E1:D7:5A:41:B6:0E:8B:BC:EF:92:99:EE:10:CC:FC:4C:D0:FA
            X509v3 Basic Constraints: critical
                CA:TRUE, pathlen:1
            X509v3 Key Usage: 
                Certificate Sign, CRL Sign
            X509v3 Issuer Alternative Name: 
                <EMPTY>

    Signature Algorithm: sha1WithRSAEncryption
    Signature Value:
        25:b4:c5:71:0d:67:f0:6e:1f:e8:d5:56:1a:e3:d0:c3:7f:4a:
        54:19:fe:dc:09:1d:7c:27:83:70:cb:20:24:f6:76:be:51:cf:
        a1:36:d9:7b:01:f3:9c:8c:b2:62:03:ba:17:2a:b3:44:d4:a4:
        93:d9:40:35:1c:09:cb:87:2b:62:f2:8e:7c:46:ac:13:4b:26:
        43:dd:b0:8a:2c:bd:c3:35:72:84:a1:04:a0:a5:f6:c1:8f:c2:
        17:ae:80:c9:f3:19:8b:59:8f:31:ab:f1:6c:77:cf:a9:fe:5e:
        44:8d:44:55:fb:54:3a:a2:4e:dd:0b:3d:56:cf:27:39:87:70:
        69:7f:af:d7:0c:68:e4:ae:14:cf:7b:35:25:cf:95:c8:13:78:
        3f:a9:aa:9f:68:c5:d2:6b:89:c8:16:40:28:12:6a:1a:5d:18:
        91:a0:cb:df:1e:77:64:be:b7:bd:34:26:b3:4b:38:ab:ce:cd:
        96:8b:ab:9c:00:d6:47:62:ea:8c:76:9b:63:1e:23:29:83:e4:
        03:23:f1:02:c3:0e:7e:df:cb:70:30:0e:be:31:10:33:f3:8e:
        2e:61:92:cc:04:c1:64:18:59:ae:a1:a7:36:76:04:bc:be:f7:
        37:13:67:3d:83:ad:f5:07:78:ec:e5:48:c1:c2:dd:7c:9c:e9:
        54:02:c5:c6
-----BEGIN CERTIFICATE-----
MIID4zCCAsugAwIBAgIUM8dtN0kur76GaQv3zWAoVMJ7L1UwDQYJKoZIhvcNAQEF
BQAwOTELMAkGA1UEBhMCQVUxFzAVBgNVBAoMDkRvZGd5IEJyb3RoZXJzMREwDwYD
VQQDDAhEb2RneSBDQTAeFw0yNDA4MTIwNDEzMzBaFw0yNTA4MTIwNDEzMzBaMFcx
CzAJBgNVBAYTAkFVMRcwFQYDVQQKDA5Eb2RneSBCcm90aGVyczESMBAGA1UEAwwJ
QnJvdGhlciAxMRswGQYDVQQDDBJsYXN0dXBkYXRlX2ludmFsaWQwggEiMA0GCSqG
SIb3DQEBAQUAA4IBDwAwggEKAoIBAQC+lYb6cUxq6lGYUEuZoSxmFfNg8+H/afvO
SAEd/uEsOLDjvY9LSKd+OsZz46u/4dpulvX+w+S0qK28VjTUliV0J8MQ2zUQJRyO
S4Gb+0IEfG894jhsDuQujioYbTDNZyojazfPBZ/Mt1lYf7rECj+MpK3LmJzA8o9p
Zw/BTjPP/IVeu17Pk7DP2fRSeYex+E0VaGXVtxkIY39esTStBY9a8OThjyXyXFxh
lbBWLTErCGV55bE7nT65UkusXcRYZoWNgbMEKPQ/L6ySAWLV/Y4L2gIMesduCRys
HLJM11S4JjOyXxTzsfk9Yk1AmWu254lYl9bUTepLaFLzPKixNYjbAgMBAAGjgcQw
gcEwHQYDVR0OBBYEFKHfM8PPPlNBp2hEzKoZ4YTJDbzGMHQGA1UdIwRtMGuAFLQR
M/HX4l73U54gIhBPhga/H8leoT2kOzA5MQswCQYDVQQGEwJBVTEXMBUGA1UECgwO
RG9kZ3kgQnJvdGhlcnMxETAPBgNVBAMMCERvZGd5IENBghQb0+HXWkG2Dou875KZ
7hDM/EzQ+jASBgNVHRMBAf8ECDAGAQH/AgEBMAsGA1UdDwQEAwIBBjAJBgNVHRIE
AjAAMA0GCSqGSIb3DQEBBQUAA4IBAQAltMVxDWfwbh/o1VYa49DDf0pUGf7cCR18
J4NwyyAk9na+Uc+hNtl7AfOcjLJiA7oXKrNE1KST2UA1HAnLhyti8o58RqwTSyZD
3bCKLL3DNXKEoQSgpfbBj8IXroDJ8xmLWY8xq/Fsd8+p/l5EjURV+1Q6ok7dCz1W
zyc5h3Bpf6/XDGjkrhTPezUlz5XIE3g/qaqfaMXSa4nIFkAoEmoaXRiRoMvfHndk
vre9NCazSzirzs2Wi6ucANZHYuqMdptjHiMpg+QDI/ECww5+38twMA6+MRAz844u
YZLMBMFkGFmuoac2dgS8vvc3E2c9g631B3js5UjBwt18nOlUAsXG
-----END CERTIFICATE-----
