Certificate:
    Data:
        Version: 3 (0x2)
        Serial Number:
            33:c7:6d:37:49:2e:af:be:86:69:0b:f7:cd:60:28:54:c2:7b:2f:59
        Signature Algorithm: sha1WithRSAEncryption
        Issuer: C=AU, O=Dodgy Brothers, CN=Dodgy CA
        Validity
            Not Before: Aug 12 04:13:31 2024 GMT
            Not After : Aug 12 04:13:31 2025 GMT
        Subject: C=AU, O=Dodgy Brothers, CN=Brother 1, CN=nextupdate_utctime
        Subject Public Key Info:
            Public Key Algorithm: rsaEncryption
                Public-Key: (2048 bit)
                Modulus:
                    00:be:95:86:fa:71:4c:6a:ea:51:98:50:4b:99:a1:
                    2c:66:15:f3:60:f3:e1:ff:69:fb:ce:48:01:1d:fe:
                    e1:2c:38:b0:e3:bd:8f:4b:48:a7:7e:3a:c6:73:e3:
                    ab:bf:e1:da:6e:96:f5:fe:c3:e4:b4:a8:ad:bc:56:
                    34:d4:96:25:74:27:c3:10:db:35:10:25:1c:8e:4b:
                    81:9b:fb:42:04:7c:6f:3d:e2:38:6c:0e:e4:2e:8e:
                    2a:18:6d:30:cd:67:2a:23:6b:37:cf:05:9f:cc:b7:
                    59:58:7f:ba:c4:0a:3f:8c:a4:ad:cb:98:9c:c0:f2:
                    8f:69:67:0f:c1:4e:33:cf:fc:85:5e:bb:5e:cf:93:
                    b0:cf:d9:f4:52:79:87:b1:f8:4d:15:68:65:d5:b7:
                    19:08:63:7f:5e:b1:34:ad:05:8f:5a:f0:e4:e1:8f:
                    25:f2:5c:5c:61:95:b0:56:2d:31:2b:08:65:79:e5:
                    b1:3b:9d:3e:b9:52:4b:ac:5d:c4:58:66:85:8d:81:
                    b3:04:28:f4:3f:2f:ac:92:01:62:d5:fd:8e:0b:da:
                    02:0c:7a:c7:6e:09:1c:ac:1c:b2:4c:d7:54:b8:26:
                    33:b2:5f:14:f3:b1:f9:3d:62:4d:40:99:6b:b6:e7:
                    89:58:97:d6:d4:4d:ea:4b:68:52:f3:3c:a8:b1:35:
                    88:db
                Exponent: 65537 (0x10001)
        X509v3 extensions:
            X509v3 Subject Key Identifier: 
                A1:DF:33:C3:CF:3E:53:41:A7:68:44:CC:AA:19:E1:84:C9:0D:BC:C6
            X509v3 Authority Key Identifier: 
                keyid:B4:11:33:F1:D7:E2:5E:F7:53:9E:20:22:10:4F:86:06:BF:1F:C9:5E
                DirName:/C=AU/O=Dodgy Brothers/CN=Dodgy CA
                serial:1B:D3:E1:D7:5A:41:B6:0E:8B:BC:EF:92:99:EE:10:CC:FC:4C:D0:FA
            X509v3 Basic Constraints: critical
                CA:TRUE, pathlen:1
            X509v3 Key Usage: 
                Certificate Sign, CRL Sign
            X509v3 Issuer Alternative Name: 
                <EMPTY>

    Signature Algorithm: sha1WithRSAEncryption
    Signature Value:
        0a:a0:cd:67:8c:53:dc:75:dc:74:29:10:9a:8d:72:83:2e:b6:
        05:b1:fe:d5:b1:15:1e:f9:12:40:a8:9f:3b:43:ae:77:88:c9:
        c1:64:ce:9c:b8:57:c8:02:e1:a0:36:e1:64:19:eb:80:bf:ca:
        15:71:e1:52:a8:11:4c:da:8a:0e:27:08:02:a7:d7:fc:4d:de:
        48:4a:9a:ab:fd:7b:c9:35:58:20:8f:02:71:01:27:1d:07:4a:
        c9:c4:09:d5:ae:1c:d4:ce:73:83:ab:0f:8b:4a:e1:62:13:60:
        d8:40:b6:16:a9:bc:a4:48:99:eb:5b:2e:84:6c:70:0e:fc:f1:
        64:54:de:16:d9:8b:59:41:f3:28:18:e8:bf:de:4c:12:2e:30:
        e8:aa:b4:a8:1a:69:b1:3e:7a:5e:1d:c1:a0:8a:52:f0:36:20:
        aa:6a:d1:41:ba:2f:e9:28:6c:e7:01:0a:d7:56:75:87:a9:d1:
        12:49:94:d5:6f:d1:f9:d4:b8:ed:4d:f6:81:8b:f0:3c:ad:c3:
        05:35:be:da:4c:c3:52:8b:16:aa:b7:d7:b6:43:6c:65:4e:62:
        d0:e1:d6:0d:a5:ec:88:51:9d:dd:f5:17:5d:48:f9:4c:70:1d:
        be:66:a5:25:ae:c0:75:05:98:0f:1d:bf:3b:93:b7:f6:6f:dc:
        40:46:f1:d3
-----BEGIN CERTIFICATE-----
MIID4zCCAsugAwIBAgIUM8dtN0kur76GaQv3zWAoVMJ7L1kwDQYJKoZIhvcNAQEF
BQAwOTELMAkGA1UEBhMCQVUxFzAVBgNVBAoMDkRvZGd5IEJyb3RoZXJzMREwDwYD
VQQDDAhEb2RneSBDQTAeFw0yNDA4MTIwNDEzMzFaFw0yNTA4MTIwNDEzMzFaMFcx
CzAJBgNVBAYTAkFVMRcwFQYDVQQKDA5Eb2RneSBCcm90aGVyczESMBAGA1UEAwwJ
QnJvdGhlciAxMRswGQYDVQQDDBJuZXh0dXBkYXRlX3V0Y3RpbWUwggEiMA0GCSqG
SIb3DQEBAQUAA4IBDwAwggEKAoIBAQC+lYb6cUxq6lGYUEuZoSxmFfNg8+H/afvO
SAEd/uEsOLDjvY9LSKd+OsZz46u/4dpulvX+w+S0qK28VjTUliV0J8MQ2zUQJRyO
S4Gb+0IEfG894jhsDuQujioYbTDNZyojazfPBZ/Mt1lYf7rECj+MpK3LmJzA8o9p
Zw/BTjPP/IVeu17Pk7DP2fRSeYex+E0VaGXVtxkIY39esTStBY9a8OThjyXyXFxh
lbBWLTErCGV55bE7nT65UkusXcRYZoWNgbMEKPQ/L6ySAWLV/Y4L2gIMesduCRys
HLJM11S4JjOyXxTzsfk9Yk1AmWu254lYl9bUTepLaFLzPKixNYjbAgMBAAGjgcQw
gcEwHQYDVR0OBBYEFKHfM8PPPlNBp2hEzKoZ4YTJDbzGMHQGA1UdIwRtMGuAFLQR
M/HX4l73U54gIhBPhga/H8leoT2kOzA5MQswCQYDVQQGEwJBVTEXMBUGA1UECgwO
RG9kZ3kgQnJvdGhlcnMxETAPBgNVBAMMCERvZGd5IENBghQb0+HXWkG2Dou875KZ
7hDM/EzQ+jASBgNVHRMBAf8ECDAGAQH/AgEBMAsGA1UdDwQEAwIBBjAJBgNVHRIE
AjAAMA0GCSqGSIb3DQEBBQUAA4IBAQAKoM1njFPcddx0KRCajXKDLrYFsf7VsRUe
+RJAqJ87Q653iMnBZM6cuFfIAuGgNuFkGeuAv8oVceFSqBFM2ooOJwgCp9f8Td5I
Spqr/XvJNVggjwJxAScdB0rJxAnVrhzUznODqw+LSuFiE2DYQLYWqbykSJnrWy6E
bHAO/PFkVN4W2YtZQfMoGOi/3kwSLjDoqrSoGmmxPnpeHcGgilLwNiCqatFBui/p
KGznAQrXVnWHqdESSZTVb9H51LjtTfaBi/A8rcMFNb7aTMNSixaqt9e2Q2xlTmLQ
4dYNpeyIUZ3d9RddSPlMcB2+ZqUlrsB1BZgPHb87k7f2b9xARvHT
-----END CERTIFICATE-----
