Certificate:
    Data:
        Version: 3 (0x2)
        Serial Number:
            33:c7:6d:37:49:2e:af:be:86:69:0b:f7:cd:60:28:54:c2:7b:2f:57
        Signature Algorithm: sha1WithRSAEncryption
        Issuer: C=AU, O=Dodgy Brothers, CN=Dodgy CA
        Validity
            Not Before: Aug 12 04:13:31 2024 GMT
            Not After : Aug 12 04:13:31 2025 GMT
        Subject: C=AU, O=Dodgy Brothers, CN=Brother 1, CN=lastupdate_generalizedtime
        Subject Public Key Info:
            Public Key Algorithm: rsaEncryption
                Public-Key: (2048 bit)
                Modulus:
                    00:be:95:86:fa:71:4c:6a:ea:51:98:50:4b:99:a1:
                    2c:66:15:f3:60:f3:e1:ff:69:fb:ce:48:01:1d:fe:
                    e1:2c:38:b0:e3:bd:8f:4b:48:a7:7e:3a:c6:73:e3:
                    ab:bf:e1:da:6e:96:f5:fe:c3:e4:b4:a8:ad:bc:56:
                    34:d4:96:25:74:27:c3:10:db:35:10:25:1c:8e:4b:
                    81:9b:fb:42:04:7c:6f:3d:e2:38:6c:0e:e4:2e:8e:
                    2a:18:6d:30:cd:67:2a:23:6b:37:cf:05:9f:cc:b7:
                    59:58:7f:ba:c4:0a:3f:8c:a4:ad:cb:98:9c:c0:f2:
                    8f:69:67:0f:c1:4e:33:cf:fc:85:5e:bb:5e:cf:93:
                    b0:cf:d9:f4:52:79:87:b1:f8:4d:15:68:65:d5:b7:
                    19:08:63:7f:5e:b1:34:ad:05:8f:5a:f0:e4:e1:8f:
                    25:f2:5c:5c:61:95:b0:56:2d:31:2b:08:65:79:e5:
                    b1:3b:9d:3e:b9:52:4b:ac:5d:c4:58:66:85:8d:81:
                    b3:04:28:f4:3f:2f:ac:92:01:62:d5:fd:8e:0b:da:
                    02:0c:7a:c7:6e:09:1c:ac:1c:b2:4c:d7:54:b8:26:
                    33:b2:5f:14:f3:b1:f9:3d:62:4d:40:99:6b:b6:e7:
                    89:58:97:d6:d4:4d:ea:4b:68:52:f3:3c:a8:b1:35:
                    88:db
                Exponent: 65537 (0x10001)
        X509v3 extensions:
            X509v3 Subject Key Identifier: 
                A1:DF:33:C3:CF:3E:53:41:A7:68:44:CC:AA:19:E1:84:C9:0D:BC:C6
            X509v3 Authority Key Identifier: 
                keyid:B4:11:33:F1:D7:E2:5E:F7:53:9E:20:22:10:4F:86:06:BF:1F:C9:5E
                DirName:/C=AU/O=Dodgy Brothers/CN=Dodgy CA
                serial:1B:D3:E1:D7:5A:41:B6:0E:8B:BC:EF:92:99:EE:10:CC:FC:4C:D0:FA
            X509v3 Basic Constraints: critical
                CA:TRUE, pathlen:1
            X509v3 Key Usage: 
                Certificate Sign, CRL Sign
            X509v3 Issuer Alternative Name: 
                <EMPTY>

    Signature Algorithm: sha1WithRSAEncryption
    Signature Value:
        7e:82:f6:52:3b:8c:16:6c:d4:50:1b:0c:6c:df:66:e1:91:54:
        5d:4f:24:db:cb:31:76:c1:64:79:9b:7f:a9:b5:47:5f:b8:68:
        a8:d4:ef:46:27:1a:54:24:b6:e0:de:e6:90:0c:cd:9f:ea:78:
        f7:ae:98:21:5c:f4:40:3f:8e:22:d2:2e:41:c3:35:fa:1e:57:
        bc:68:37:07:b3:d1:51:a0:98:6f:d6:ec:97:df:38:1b:e6:db:
        0a:44:d1:9f:f8:7d:b5:49:a0:eb:61:36:c7:9a:ef:a8:73:9e:
        b1:e7:6e:59:c6:56:40:49:aa:d1:cd:e4:95:c9:d0:35:12:12:
        07:b8:e5:e9:06:5c:51:33:5e:d3:f6:81:4e:e6:b7:4d:3c:07:
        b8:7b:db:e9:30:20:4a:e4:04:ca:c1:d7:af:a4:70:3e:3a:17:
        80:4b:59:13:37:49:ea:8e:61:77:87:4f:45:e2:58:0e:40:69:
        18:b8:9c:93:82:b7:dc:a9:40:c2:21:19:01:89:36:bc:dc:db:
        f2:4f:28:44:c9:90:5a:60:df:b4:7d:3e:cd:07:00:f1:08:35:
        7f:b9:65:53:03:a5:84:39:64:1a:25:ad:4e:8f:8c:8f:4e:77:
        bb:d0:2a:76:8a:2d:39:6c:8c:22:de:e8:fa:9e:fa:7c:10:8f:
        74:59:d8:fb
-----BEGIN CERTIFICATE-----
MIID6zCCAtOgAwIBAgIUM8dtN0kur76GaQv3zWAoVMJ7L1cwDQYJKoZIhvcNAQEF
BQAwOTELMAkGA1UEBhMCQVUxFzAVBgNVBAoMDkRvZGd5IEJyb3RoZXJzMREwDwYD
VQQDDAhEb2RneSBDQTAeFw0yNDA4MTIwNDEzMzFaFw0yNTA4MTIwNDEzMzFaMF8x
CzAJBgNVBAYTAkFVMRcwFQYDVQQKDA5Eb2RneSBCcm90aGVyczESMBAGA1UEAwwJ
QnJvdGhlciAxMSMwIQYDVQQDDBpsYXN0dXBkYXRlX2dlbmVyYWxpemVkdGltZTCC
ASIwDQYJKoZIhvcNAQEBBQADggEPADCCAQoCggEBAL6VhvpxTGrqUZhQS5mhLGYV
82Dz4f9p+85IAR3+4Sw4sOO9j0tIp346xnPjq7/h2m6W9f7D5LSorbxWNNSWJXQn
wxDbNRAlHI5LgZv7QgR8bz3iOGwO5C6OKhhtMM1nKiNrN88Fn8y3WVh/usQKP4yk
rcuYnMDyj2lnD8FOM8/8hV67Xs+TsM/Z9FJ5h7H4TRVoZdW3GQhjf16xNK0Fj1rw
5OGPJfJcXGGVsFYtMSsIZXnlsTudPrlSS6xdxFhmhY2BswQo9D8vrJIBYtX9jgva
Agx6x24JHKwcskzXVLgmM7JfFPOx+T1iTUCZa7bniViX1tRN6ktoUvM8qLE1iNsC
AwEAAaOBxDCBwTAdBgNVHQ4EFgQUod8zw88+U0GnaETMqhnhhMkNvMYwdAYDVR0j
BG0wa4AUtBEz8dfiXvdTniAiEE+GBr8fyV6hPaQ7MDkxCzAJBgNVBAYTAkFVMRcw
FQYDVQQKDA5Eb2RneSBCcm90aGVyczERMA8GA1UEAwwIRG9kZ3kgQ0GCFBvT4dda
QbYOi7zvkpnuEMz8TND6MBIGA1UdEwEB/wQIMAYBAf8CAQEwCwYDVR0PBAQDAgEG
MAkGA1UdEgQCMAAwDQYJKoZIhvcNAQEFBQADggEBAH6C9lI7jBZs1FAbDGzfZuGR
VF1PJNvLMXbBZHmbf6m1R1+4aKjU70YnGlQktuDe5pAMzZ/qePeumCFc9EA/jiLS
LkHDNfoeV7xoNwez0VGgmG/W7JffOBvm2wpE0Z/4fbVJoOthNsea76hznrHnblnG
VkBJqtHN5JXJ0DUSEge45ekGXFEzXtP2gU7mt008B7h72+kwIErkBMrB16+kcD46
F4BLWRM3SeqOYXeHT0XiWA5AaRi4nJOCt9ypQMIhGQGJNrzc2/JPKETJkFpg37R9
Ps0HAPEINX+5ZVMDpYQ5ZBolrU6PjI9Od7vQKnaKLTlsjCLe6Pqe+nwQj3RZ2Ps=
-----END CERTIFICATE-----
