Certificate:
    Data:
        Version: 3 (0x2)
        Serial Number:
            33:c7:6d:37:49:2e:af:be:86:69:0b:f7:cd:60:28:54:c2:7b:2f:5a
        Signature Algorithm: sha1WithRSAEncryption
        Issuer: C=AU, O=Dodgy Brothers, CN=Dodgy CA
        Validity
            Not Before: Aug 12 04:13:32 2024 GMT
            Not After : Aug 12 04:13:32 2025 GMT
        Subject: C=AU, O=Dodgy Brothers, CN=Brother 1, CN=nextupdate_generalizedtime
        Subject Public Key Info:
            Public Key Algorithm: rsaEncryption
                Public-Key: (2048 bit)
                Modulus:
                    00:be:95:86:fa:71:4c:6a:ea:51:98:50:4b:99:a1:
                    2c:66:15:f3:60:f3:e1:ff:69:fb:ce:48:01:1d:fe:
                    e1:2c:38:b0:e3:bd:8f:4b:48:a7:7e:3a:c6:73:e3:
                    ab:bf:e1:da:6e:96:f5:fe:c3:e4:b4:a8:ad:bc:56:
                    34:d4:96:25:74:27:c3:10:db:35:10:25:1c:8e:4b:
                    81:9b:fb:42:04:7c:6f:3d:e2:38:6c:0e:e4:2e:8e:
                    2a:18:6d:30:cd:67:2a:23:6b:37:cf:05:9f:cc:b7:
                    59:58:7f:ba:c4:0a:3f:8c:a4:ad:cb:98:9c:c0:f2:
                    8f:69:67:0f:c1:4e:33:cf:fc:85:5e:bb:5e:cf:93:
                    b0:cf:d9:f4:52:79:87:b1:f8:4d:15:68:65:d5:b7:
                    19:08:63:7f:5e:b1:34:ad:05:8f:5a:f0:e4:e1:8f:
                    25:f2:5c:5c:61:95:b0:56:2d:31:2b:08:65:79:e5:
                    b1:3b:9d:3e:b9:52:4b:ac:5d:c4:58:66:85:8d:81:
                    b3:04:28:f4:3f:2f:ac:92:01:62:d5:fd:8e:0b:da:
                    02:0c:7a:c7:6e:09:1c:ac:1c:b2:4c:d7:54:b8:26:
                    33:b2:5f:14:f3:b1:f9:3d:62:4d:40:99:6b:b6:e7:
                    89:58:97:d6:d4:4d:ea:4b:68:52:f3:3c:a8:b1:35:
                    88:db
                Exponent: 65537 (0x10001)
        X509v3 extensions:
            X509v3 Subject Key Identifier: 
                A1:DF:33:C3:CF:3E:53:41:A7:68:44:CC:AA:19:E1:84:C9:0D:BC:C6
            X509v3 Authority Key Identifier: 
                keyid:B4:11:33:F1:D7:E2:5E:F7:53:9E:20:22:10:4F:86:06:BF:1F:C9:5E
                DirName:/C=AU/O=Dodgy Brothers/CN=Dodgy CA
                serial:1B:D3:E1:D7:5A:41:B6:0E:8B:BC:EF:92:99:EE:10:CC:FC:4C:D0:FA
            X509v3 Basic Constraints: critical
                CA:TRUE, pathlen:1
            X509v3 Key Usage: 
                Certificate Sign, CRL Sign
            X509v3 Issuer Alternative Name: 
                <EMPTY>

    Signature Algorithm: sha1WithRSAEncryption
    Signature Value:
        48:80:0c:09:42:4b:ab:6e:d4:18:20:88:01:a9:b6:2e:95:73:
        f3:0b:0c:a1:48:6a:8f:f3:b7:5b:37:ec:f0:12:93:75:c2:f9:
        b6:14:6a:52:af:1f:25:47:5f:63:1c:cb:03:c1:5c:ec:bf:66:
        51:d8:90:21:c0:08:8e:f3:17:59:1d:29:fe:30:82:d7:2a:28:
        77:5a:27:08:5e:46:9f:b9:4d:17:4d:6b:f2:07:0f:09:fa:c0:
        22:c1:f6:57:ba:3a:06:b3:a8:88:3e:57:f7:cf:dd:54:5f:45:
        cf:92:cb:32:6c:1a:a2:fe:fc:3b:3e:bf:61:43:74:9c:14:3b:
        2b:70:8c:31:90:48:46:9e:4f:97:55:ca:56:ee:d7:a0:90:81:
        e0:0b:0c:04:26:9c:2a:67:dd:9f:22:38:bb:05:b0:8e:25:1e:
        61:bc:03:bd:1b:58:96:45:4c:66:e0:8a:a3:fa:e3:4c:9c:4f:
        55:cb:59:df:cd:ce:be:ea:59:a8:89:1a:e8:05:37:c9:af:6f:
        ff:9d:5b:19:66:d9:b3:99:c6:fa:55:3f:29:93:46:96:25:66:
        67:bc:fb:07:59:4f:4a:fe:dd:ed:30:bb:a1:bb:e3:50:76:c8:
        c9:5f:5c:e8:a2:a0:b5:70:16:a3:33:aa:2b:3e:72:eb:fd:29:
        dd:4f:63:59
-----BEGIN CERTIFICATE-----
MIID6zCCAtOgAwIBAgIUM8dtN0kur76GaQv3zWAoVMJ7L1owDQYJKoZIhvcNAQEF
BQAwOTELMAkGA1UEBhMCQVUxFzAVBgNVBAoMDkRvZGd5IEJyb3RoZXJzMREwDwYD
VQQDDAhEb2RneSBDQTAeFw0yNDA4MTIwNDEzMzJaFw0yNTA4MTIwNDEzMzJaMF8x
CzAJBgNVBAYTAkFVMRcwFQYDVQQKDA5Eb2RneSBCcm90aGVyczESMBAGA1UEAwwJ
QnJvdGhlciAxMSMwIQYDVQQDDBpuZXh0dXBkYXRlX2dlbmVyYWxpemVkdGltZTCC
ASIwDQYJKoZIhvcNAQEBBQADggEPADCCAQoCggEBAL6VhvpxTGrqUZhQS5mhLGYV
82Dz4f9p+85IAR3+4Sw4sOO9j0tIp346xnPjq7/h2m6W9f7D5LSorbxWNNSWJXQn
wxDbNRAlHI5LgZv7QgR8bz3iOGwO5C6OKhhtMM1nKiNrN88Fn8y3WVh/usQKP4yk
rcuYnMDyj2lnD8FOM8/8hV67Xs+TsM/Z9FJ5h7H4TRVoZdW3GQhjf16xNK0Fj1rw
5OGPJfJcXGGVsFYtMSsIZXnlsTudPrlSS6xdxFhmhY2BswQo9D8vrJIBYtX9jgva
Agx6x24JHKwcskzXVLgmM7JfFPOx+T1iTUCZa7bniViX1tRN6ktoUvM8qLE1iNsC
AwEAAaOBxDCBwTAdBgNVHQ4EFgQUod8zw88+U0GnaETMqhnhhMkNvMYwdAYDVR0j
BG0wa4AUtBEz8dfiXvdTniAiEE+GBr8fyV6hPaQ7MDkxCzAJBgNVBAYTAkFVMRcw
FQYDVQQKDA5Eb2RneSBCcm90aGVyczERMA8GA1UEAwwIRG9kZ3kgQ0GCFBvT4dda
QbYOi7zvkpnuEMz8TND6MBIGA1UdEwEB/wQIMAYBAf8CAQEwCwYDVR0PBAQDAgEG
MAkGA1UdEgQCMAAwDQYJKoZIhvcNAQEFBQADggEBAEiADAlCS6tu1BggiAGpti6V
c/MLDKFIao/zt1s37PASk3XC+bYUalKvHyVHX2McywPBXOy/ZlHYkCHACI7zF1kd
Kf4wgtcqKHdaJwheRp+5TRdNa/IHDwn6wCLB9le6OgazqIg+V/fP3VRfRc+SyzJs
GqL+/Ds+v2FDdJwUOytwjDGQSEaeT5dVylbu16CQgeALDAQmnCpn3Z8iOLsFsI4l
HmG8A70bWJZFTGbgiqP640ycT1XLWd/Nzr7qWaiJGugFN8mvb/+dWxlm2bOZxvpV
PymTRpYlZme8+wdZT0r+3e0wu6G741B2yMlfXOiioLVwFqMzqis+cuv9Kd1PY1k=
-----END CERTIFICATE-----
