Certificate:
    Data:
        Version: 3 (0x2)
        Serial Number:
            33:c7:6d:37:49:2e:af:be:86:69:0b:f7:cd:60:28:54:c2:7b:2f:54
        Signature Algorithm: sha1WithRSAEncryption
        Issuer: C=AU, O=Dodgy Brothers, CN=Dodgy CA
        Validity
            Not Before: Aug 12 04:13:30 2024 GMT
            Not After : Aug 12 04:13:30 2025 GMT
        Subject: C=AU, O=Dodgy Brothers, CN=Brother 1, CN=notimes
        Subject Public Key Info:
            Public Key Algorithm: rsaEncryption
                Public-Key: (2048 bit)
                Modulus:
                    00:be:95:86:fa:71:4c:6a:ea:51:98:50:4b:99:a1:
                    2c:66:15:f3:60:f3:e1:ff:69:fb:ce:48:01:1d:fe:
                    e1:2c:38:b0:e3:bd:8f:4b:48:a7:7e:3a:c6:73:e3:
                    ab:bf:e1:da:6e:96:f5:fe:c3:e4:b4:a8:ad:bc:56:
                    34:d4:96:25:74:27:c3:10:db:35:10:25:1c:8e:4b:
                    81:9b:fb:42:04:7c:6f:3d:e2:38:6c:0e:e4:2e:8e:
                    2a:18:6d:30:cd:67:2a:23:6b:37:cf:05:9f:cc:b7:
                    59:58:7f:ba:c4:0a:3f:8c:a4:ad:cb:98:9c:c0:f2:
                    8f:69:67:0f:c1:4e:33:cf:fc:85:5e:bb:5e:cf:93:
                    b0:cf:d9:f4:52:79:87:b1:f8:4d:15:68:65:d5:b7:
                    19:08:63:7f:5e:b1:34:ad:05:8f:5a:f0:e4:e1:8f:
                    25:f2:5c:5c:61:95:b0:56:2d:31:2b:08:65:79:e5:
                    b1:3b:9d:3e:b9:52:4b:ac:5d:c4:58:66:85:8d:81:
                    b3:04:28:f4:3f:2f:ac:92:01:62:d5:fd:8e:0b:da:
                    02:0c:7a:c7:6e:09:1c:ac:1c:b2:4c:d7:54:b8:26:
                    33:b2:5f:14:f3:b1:f9:3d:62:4d:40:99:6b:b6:e7:
                    89:58:97:d6:d4:4d:ea:4b:68:52:f3:3c:a8:b1:35:
                    88:db
                Exponent: 65537 (0x10001)
        X509v3 extensions:
            X509v3 Subject Key Identifier: 
                A1:DF:33:C3:CF:3E:53:41:A7:68:44:CC:AA:19:E1:84:C9:0D:BC:C6
            X509v3 Authority Key Identifier: 
                keyid:B4:11:33:F1:D7:E2:5E:F7:53:9E:20:22:10:4F:86:06:BF:1F:C9:5E
                DirName:/C=AU/O=Dodgy Brothers/CN=Dodgy CA
                serial:1B:D3:E1:D7:5A:41:B6:0E:8B:BC:EF:92:99:EE:10:CC:FC:4C:D0:FA
            X509v3 Basic Constraints: critical
                CA:TRUE, pathlen:1
            X509v3 Key Usage: 
                Certificate Sign, CRL Sign
            X509v3 Issuer Alternative Name: 
                <EMPTY>

    Signature Algorithm: sha1WithRSAEncryption
    Signature Value:
        81:11:a8:11:ac:3c:bf:36:e2:3f:b4:f2:4c:23:35:ff:94:07:
        2a:5b:5e:c9:3e:dd:bc:6f:16:d9:e7:d2:78:99:07:36:b5:f3:
        ad:2a:8f:42:a1:ec:76:0f:86:c9:bd:f7:95:ae:a3:de:42:26:
        a2:f4:2a:84:8f:44:e3:14:70:99:49:9b:cb:d3:59:a3:dd:e3:
        93:ae:91:0d:b4:51:6b:aa:e2:33:ab:c5:af:6f:ca:c7:dd:8d:
        23:81:7f:ba:65:5f:5a:4b:dd:49:92:98:ea:8d:11:09:31:0d:
        b0:e1:3c:ec:a3:52:4e:ac:1f:55:02:32:59:95:56:7f:fb:a4:
        91:25:95:1b:4c:fb:c4:c6:5d:31:b1:42:cd:a1:4a:37:fd:41:
        24:42:12:fc:ab:69:34:6f:18:25:f9:b7:47:30:3b:fe:a6:b0:
        2c:d1:d1:a8:04:67:c7:59:f3:28:a2:39:a1:a6:58:07:70:6c:
        64:75:6c:50:a9:af:b5:ac:6b:cb:e8:48:b6:43:89:a5:03:15:
        59:9d:6d:ca:1d:ae:df:98:c5:fe:59:8c:40:d0:70:2c:51:0b:
        e9:af:37:fd:01:e6:1f:2d:9a:1b:af:73:49:bc:65:43:94:9f:
        df:00:81:74:12:15:99:a1:d3:eb:25:3f:0d:bb:7c:6d:28:f1:
        76:a4:02:5d
-----BEGIN CERTIFICATE-----
MIID2DCCAsCgAwIBAgIUM8dtN0kur76GaQv3zWAoVMJ7L1QwDQYJKoZIhvcNAQEF
BQAwOTELMAkGA1UEBhMCQVUxFzAVBgNVBAoMDkRvZGd5IEJyb3RoZXJzMREwDwYD
VQQDDAhEb2RneSBDQTAeFw0yNDA4MTIwNDEzMzBaFw0yNTA4MTIwNDEzMzBaMEwx
CzAJBgNVBAYTAkFVMRcwFQYDVQQKDA5Eb2RneSBCcm90aGVyczESMBAGA1UEAwwJ
QnJvdGhlciAxMRAwDgYDVQQDDAdub3RpbWVzMIIBIjANBgkqhkiG9w0BAQEFAAOC
AQ8AMIIBCgKCAQEAvpWG+nFMaupRmFBLmaEsZhXzYPPh/2n7zkgBHf7hLDiw472P
S0infjrGc+Orv+Habpb1/sPktKitvFY01JYldCfDENs1ECUcjkuBm/tCBHxvPeI4
bA7kLo4qGG0wzWcqI2s3zwWfzLdZWH+6xAo/jKSty5icwPKPaWcPwU4zz/yFXrte
z5Owz9n0UnmHsfhNFWhl1bcZCGN/XrE0rQWPWvDk4Y8l8lxcYZWwVi0xKwhleeWx
O50+uVJLrF3EWGaFjYGzBCj0Py+skgFi1f2OC9oCDHrHbgkcrByyTNdUuCYzsl8U
87H5PWJNQJlrtueJWJfW1E3qS2hS8zyosTWI2wIDAQABo4HEMIHBMB0GA1UdDgQW
BBSh3zPDzz5TQadoRMyqGeGEyQ28xjB0BgNVHSMEbTBrgBS0ETPx1+Je91OeICIQ
T4YGvx/JXqE9pDswOTELMAkGA1UEBhMCQVUxFzAVBgNVBAoMDkRvZGd5IEJyb3Ro
ZXJzMREwDwYDVQQDDAhEb2RneSBDQYIUG9Ph11pBtg6LvO+Sme4QzPxM0PowEgYD
VR0TAQH/BAgwBgEB/wIBATALBgNVHQ8EBAMCAQYwCQYDVR0SBAIwADANBgkqhkiG
9w0BAQUFAAOCAQEAgRGoEaw8vzbiP7TyTCM1/5QHKlteyT7dvG8W2efSeJkHNrXz
rSqPQqHsdg+Gyb33la6j3kImovQqhI9E4xRwmUmby9NZo93jk66RDbRRa6riM6vF
r2/Kx92NI4F/umVfWkvdSZKY6o0RCTENsOE87KNSTqwfVQIyWZVWf/ukkSWVG0z7
xMZdMbFCzaFKN/1BJEIS/KtpNG8YJfm3RzA7/qawLNHRqARnx1nzKKI5oaZYB3Bs
ZHVsUKmvtaxry+hItkOJpQMVWZ1tyh2u35jF/lmMQNBwLFEL6a83/QHmHy2aG69z
SbxlQ5Sf3wCBdBIVmaHT6yU/Dbt8bSjxdqQCXQ==
-----END CERTIFICATE-----
