Certificate:
    Data:
        Version: 3 (0x2)
        Serial Number:
            33:c7:6d:37:49:2e:af:be:86:69:0b:f7:cd:60:28:54:c2:7b:2f:5c
        Signature Algorithm: sha1WithRSAEncryption
        Issuer: C=AU, O=Dodgy Brothers, CN=Dodgy CA
        Validity
            Not Before: Aug 12 04:13:32 2024 GMT
            Not After : Aug 12 04:13:32 2025 GMT
        Subject: C=AU, O=Dodgy Brothers, CN=Brother 1, CN=both_generalizedtime
        Subject Public Key Info:
            Public Key Algorithm: rsaEncryption
                Public-Key: (2048 bit)
                Modulus:
                    00:be:95:86:fa:71:4c:6a:ea:51:98:50:4b:99:a1:
                    2c:66:15:f3:60:f3:e1:ff:69:fb:ce:48:01:1d:fe:
                    e1:2c:38:b0:e3:bd:8f:4b:48:a7:7e:3a:c6:73:e3:
                    ab:bf:e1:da:6e:96:f5:fe:c3:e4:b4:a8:ad:bc:56:
                    34:d4:96:25:74:27:c3:10:db:35:10:25:1c:8e:4b:
                    81:9b:fb:42:04:7c:6f:3d:e2:38:6c:0e:e4:2e:8e:
                    2a:18:6d:30:cd:67:2a:23:6b:37:cf:05:9f:cc:b7:
                    59:58:7f:ba:c4:0a:3f:8c:a4:ad:cb:98:9c:c0:f2:
                    8f:69:67:0f:c1:4e:33:cf:fc:85:5e:bb:5e:cf:93:
                    b0:cf:d9:f4:52:79:87:b1:f8:4d:15:68:65:d5:b7:
                    19:08:63:7f:5e:b1:34:ad:05:8f:5a:f0:e4:e1:8f:
                    25:f2:5c:5c:61:95:b0:56:2d:31:2b:08:65:79:e5:
                    b1:3b:9d:3e:b9:52:4b:ac:5d:c4:58:66:85:8d:81:
                    b3:04:28:f4:3f:2f:ac:92:01:62:d5:fd:8e:0b:da:
                    02:0c:7a:c7:6e:09:1c:ac:1c:b2:4c:d7:54:b8:26:
                    33:b2:5f:14:f3:b1:f9:3d:62:4d:40:99:6b:b6:e7:
                    89:58:97:d6:d4:4d:ea:4b:68:52:f3:3c:a8:b1:35:
                    88:db
                Exponent: 65537 (0x10001)
        X509v3 extensions:
            X509v3 Subject Key Identifier: 
                A1:DF:33:C3:CF:3E:53:41:A7:68:44:CC:AA:19:E1:84:C9:0D:BC:C6
            X509v3 Authority Key Identifier: 
                keyid:B4:11:33:F1:D7:E2:5E:F7:53:9E:20:22:10:4F:86:06:BF:1F:C9:5E
                DirName:/C=AU/O=Dodgy Brothers/CN=Dodgy CA
                serial:1B:D3:E1:D7:5A:41:B6:0E:8B:BC:EF:92:99:EE:10:CC:FC:4C:D0:FA
            X509v3 Basic Constraints: critical
                CA:TRUE, pathlen:1
            X509v3 Key Usage: 
                Certificate Sign, CRL Sign
            X509v3 Issuer Alternative Name: 
                <EMPTY>

    Signature Algorithm: sha1WithRSAEncryption
    Signature Value:
        63:15:29:95:7c:b2:c2:37:7f:ea:81:b2:7e:b2:89:d6:ee:c9:
        57:d0:7f:29:93:86:6d:cf:43:09:b3:e7:bd:3b:c1:43:2e:9e:
        29:e3:22:d4:4c:ad:79:32:43:b2:95:c1:05:c9:a0:36:b4:57:
        46:92:c0:5c:2f:d0:10:a9:fd:e7:39:55:52:3c:b8:0f:1d:cd:
        0d:de:f2:fe:90:0a:9b:67:be:42:7c:a0:b2:52:86:bc:98:6a:
        99:c7:8d:ed:af:c6:90:0f:58:63:28:f6:5d:8c:b4:53:4b:d0:
        e8:5a:63:67:cf:d6:6d:9d:6a:45:96:cc:04:c9:82:d0:7b:b4:
        72:2c:3c:77:e2:b7:94:b6:f6:19:f5:2c:b5:f5:fc:71:ba:99:
        82:64:af:17:f5:3e:d0:f7:a7:56:6c:db:ec:31:6e:f6:0a:31:
        4b:5e:ea:20:2b:e3:8b:60:f6:95:1d:31:26:19:f3:ba:c6:1e:
        41:1b:aa:5b:b9:f8:04:29:8d:76:1e:06:34:1e:e0:33:ce:b0:
        c9:12:a9:6e:dc:68:b2:8f:b7:70:0f:fb:9d:9c:6c:c1:28:bf:
        3f:63:fb:c8:bd:60:c6:3c:de:4c:19:39:2f:84:ac:88:e6:a8:
        47:56:cd:dc:73:ae:11:5a:99:95:af:e8:98:8e:89:02:37:b7:
        77:dc:aa:36
-----BEGIN CERTIFICATE-----
MIID5TCCAs2gAwIBAgIUM8dtN0kur76GaQv3zWAoVMJ7L1wwDQYJKoZIhvcNAQEF
BQAwOTELMAkGA1UEBhMCQVUxFzAVBgNVBAoMDkRvZGd5IEJyb3RoZXJzMREwDwYD
VQQDDAhEb2RneSBDQTAeFw0yNDA4MTIwNDEzMzJaFw0yNTA4MTIwNDEzMzJaMFkx
CzAJBgNVBAYTAkFVMRcwFQYDVQQKDA5Eb2RneSBCcm90aGVyczESMBAGA1UEAwwJ
QnJvdGhlciAxMR0wGwYDVQQDDBRib3RoX2dlbmVyYWxpemVkdGltZTCCASIwDQYJ
KoZIhvcNAQEBBQADggEPADCCAQoCggEBAL6VhvpxTGrqUZhQS5mhLGYV82Dz4f9p
+85IAR3+4Sw4sOO9j0tIp346xnPjq7/h2m6W9f7D5LSorbxWNNSWJXQnwxDbNRAl
HI5LgZv7QgR8bz3iOGwO5C6OKhhtMM1nKiNrN88Fn8y3WVh/usQKP4ykrcuYnMDy
j2lnD8FOM8/8hV67Xs+TsM/Z9FJ5h7H4TRVoZdW3GQhjf16xNK0Fj1rw5OGPJfJc
XGGVsFYtMSsIZXnlsTudPrlSS6xdxFhmhY2BswQo9D8vrJIBYtX9jgvaAgx6x24J
HKwcskzXVLgmM7JfFPOx+T1iTUCZa7bniViX1tRN6ktoUvM8qLE1iNsCAwEAAaOB
xDCBwTAdBgNVHQ4EFgQUod8zw88+U0GnaETMqhnhhMkNvMYwdAYDVR0jBG0wa4AU
tBEz8dfiXvdTniAiEE+GBr8fyV6hPaQ7MDkxCzAJBgNVBAYTAkFVMRcwFQYDVQQK
DA5Eb2RneSBCcm90aGVyczERMA8GA1UEAwwIRG9kZ3kgQ0GCFBvT4ddaQbYOi7zv
kpnuEMz8TND6MBIGA1UdEwEB/wQIMAYBAf8CAQEwCwYDVR0PBAQDAgEGMAkGA1Ud
EgQCMAAwDQYJKoZIhvcNAQEFBQADggEBAGMVKZV8ssI3f+qBsn6yidbuyVfQfymT
hm3PQwmz5707wUMuninjItRMrXkyQ7KVwQXJoDa0V0aSwFwv0BCp/ec5VVI8uA8d
zQ3e8v6QCptnvkJ8oLJShryYapnHje2vxpAPWGMo9l2MtFNL0OhaY2fP1m2dakWW
zATJgtB7tHIsPHfit5S29hn1LLX1/HG6mYJkrxf1PtD3p1Zs2+wxbvYKMUte6iAr
44tg9pUdMSYZ87rGHkEbqlu5+AQpjXYeBjQe4DPOsMkSqW7caLKPt3AP+52cbMEo
vz9j+8i9YMY83kwZOS+ErIjmqEdWzdxzrhFamZWv6JiOiQI3t3fcqjY=
-----END CERTIFICATE-----
