Certificate:
    Data:
        Version: 3 (0x2)
        Serial Number:
            33:c7:6d:37:49:2e:af:be:86:69:0b:f7:cd:60:28:54:c2:7b:2f:56
        Signature Algorithm: sha1WithRSAEncryption
        Issuer: C=AU, O=Dodgy Brothers, CN=Dodgy CA
        Validity
            Not Before: Aug 12 04:13:31 2024 GMT
            Not After : Aug 12 04:13:31 2025 GMT
        Subject: C=AU, O=Dodgy Brothers, CN=Brother 1, CN=lastupdate_utctime
        Subject Public Key Info:
            Public Key Algorithm: rsaEncryption
                Public-Key: (2048 bit)
                Modulus:
                    00:be:95:86:fa:71:4c:6a:ea:51:98:50:4b:99:a1:
                    2c:66:15:f3:60:f3:e1:ff:69:fb:ce:48:01:1d:fe:
                    e1:2c:38:b0:e3:bd:8f:4b:48:a7:7e:3a:c6:73:e3:
                    ab:bf:e1:da:6e:96:f5:fe:c3:e4:b4:a8:ad:bc:56:
                    34:d4:96:25:74:27:c3:10:db:35:10:25:1c:8e:4b:
                    81:9b:fb:42:04:7c:6f:3d:e2:38:6c:0e:e4:2e:8e:
                    2a:18:6d:30:cd:67:2a:23:6b:37:cf:05:9f:cc:b7:
                    59:58:7f:ba:c4:0a:3f:8c:a4:ad:cb:98:9c:c0:f2:
                    8f:69:67:0f:c1:4e:33:cf:fc:85:5e:bb:5e:cf:93:
                    b0:cf:d9:f4:52:79:87:b1:f8:4d:15:68:65:d5:b7:
                    19:08:63:7f:5e:b1:34:ad:05:8f:5a:f0:e4:e1:8f:
                    25:f2:5c:5c:61:95:b0:56:2d:31:2b:08:65:79:e5:
                    b1:3b:9d:3e:b9:52:4b:ac:5d:c4:58:66:85:8d:81:
                    b3:04:28:f4:3f:2f:ac:92:01:62:d5:fd:8e:0b:da:
                    02:0c:7a:c7:6e:09:1c:ac:1c:b2:4c:d7:54:b8:26:
                    33:b2:5f:14:f3:b1:f9:3d:62:4d:40:99:6b:b6:e7:
                    89:58:97:d6:d4:4d:ea:4b:68:52:f3:3c:a8:b1:35:
                    88:db
                Exponent: 65537 (0x10001)
        X509v3 extensions:
            X509v3 Subject Key Identifier: 
                A1:DF:33:C3:CF:3E:53:41:A7:68:44:CC:AA:19:E1:84:C9:0D:BC:C6
            X509v3 Authority Key Identifier: 
                keyid:B4:11:33:F1:D7:E2:5E:F7:53:9E:20:22:10:4F:86:06:BF:1F:C9:5E
                DirName:/C=AU/O=Dodgy Brothers/CN=Dodgy CA
                serial:1B:D3:E1:D7:5A:41:B6:0E:8B:BC:EF:92:99:EE:10:CC:FC:4C:D0:FA
            X509v3 Basic Constraints: critical
                CA:TRUE, pathlen:1
            X509v3 Key Usage: 
                Certificate Sign, CRL Sign
            X509v3 Issuer Alternative Name: 
                <EMPTY>

    Signature Algorithm: sha1WithRSAEncryption
    Signature Value:
        61:e5:85:24:60:74:ca:9a:0d:df:52:af:d6:20:6e:8a:d3:96:
        10:d9:2f:03:9d:07:2f:86:cd:d7:5b:68:53:d4:85:2b:5b:dd:
        fb:7f:dd:10:44:b6:6d:2b:a1:9c:e0:da:53:70:b6:9e:c9:93:
        da:b4:18:e9:f2:0c:69:9c:2f:b4:8a:53:48:cf:92:68:97:ea:
        01:3c:9d:3e:d4:89:18:06:ac:92:35:61:89:f4:af:db:d2:65:
        7e:32:99:f3:f0:80:f7:45:cb:29:e0:da:a8:b0:c7:b9:63:7f:
        22:d6:db:ad:b9:69:1f:5c:c9:dc:fd:40:61:b0:db:c4:fb:6c:
        cc:50:e1:ce:f5:f0:e2:f8:bd:63:43:74:1f:6e:dd:8f:ae:dd:
        9a:29:eb:cd:e2:e9:15:f1:4a:5d:f2:23:21:d5:df:d3:da:84:
        a7:3f:ab:d0:f0:b2:0b:cf:fa:46:f0:39:e2:d9:8f:80:22:ac:
        13:d5:8a:3a:68:a1:fc:b6:8a:8e:00:08:6b:0f:73:22:9c:cb:
        0e:24:97:79:fa:ac:9c:9d:5b:9e:03:34:c6:56:b0:be:6e:10:
        3c:85:d1:f3:45:98:fc:03:b4:5e:69:f9:04:62:4f:2c:f9:e8:
        c8:8b:fa:99:1f:c9:a6:14:f4:4d:59:17:0e:21:e2:ad:1c:de:
        15:84:b3:a4
-----BEGIN CERTIFICATE-----
MIID4zCCAsugAwIBAgIUM8dtN0kur76GaQv3zWAoVMJ7L1YwDQYJKoZIhvcNAQEF
BQAwOTELMAkGA1UEBhMCQVUxFzAVBgNVBAoMDkRvZGd5IEJyb3RoZXJzMREwDwYD
VQQDDAhEb2RneSBDQTAeFw0yNDA4MTIwNDEzMzFaFw0yNTA4MTIwNDEzMzFaMFcx
CzAJBgNVBAYTAkFVMRcwFQYDVQQKDA5Eb2RneSBCcm90aGVyczESMBAGA1UEAwwJ
QnJvdGhlciAxMRswGQYDVQQDDBJsYXN0dXBkYXRlX3V0Y3RpbWUwggEiMA0GCSqG
SIb3DQEBAQUAA4IBDwAwggEKAoIBAQC+lYb6cUxq6lGYUEuZoSxmFfNg8+H/afvO
SAEd/uEsOLDjvY9LSKd+OsZz46u/4dpulvX+w+S0qK28VjTUliV0J8MQ2zUQJRyO
S4Gb+0IEfG894jhsDuQujioYbTDNZyojazfPBZ/Mt1lYf7rECj+MpK3LmJzA8o9p
Zw/BTjPP/IVeu17Pk7DP2fRSeYex+E0VaGXVtxkIY39esTStBY9a8OThjyXyXFxh
lbBWLTErCGV55bE7nT65UkusXcRYZoWNgbMEKPQ/L6ySAWLV/Y4L2gIMesduCRys
HLJM11S4JjOyXxTzsfk9Yk1AmWu254lYl9bUTepLaFLzPKixNYjbAgMBAAGjgcQw
gcEwHQYDVR0OBBYEFKHfM8PPPlNBp2hEzKoZ4YTJDbzGMHQGA1UdIwRtMGuAFLQR
M/HX4l73U54gIhBPhga/H8leoT2kOzA5MQswCQYDVQQGEwJBVTEXMBUGA1UECgwO
RG9kZ3kgQnJvdGhlcnMxETAPBgNVBAMMCERvZGd5IENBghQb0+HXWkG2Dou875KZ
7hDM/EzQ+jASBgNVHRMBAf8ECDAGAQH/AgEBMAsGA1UdDwQEAwIBBjAJBgNVHRIE
AjAAMA0GCSqGSIb3DQEBBQUAA4IBAQBh5YUkYHTKmg3fUq/WIG6K05YQ2S8DnQcv
hs3XW2hT1IUrW937f90QRLZtK6Gc4NpTcLaeyZPatBjp8gxpnC+0ilNIz5Jol+oB
PJ0+1IkYBqySNWGJ9K/b0mV+Mpnz8ID3Rcsp4NqosMe5Y38i1tutuWkfXMnc/UBh
sNvE+2zMUOHO9fDi+L1jQ3Qfbt2Prt2aKevN4ukV8Upd8iMh1d/T2oSnP6vQ8LIL
z/pG8Dni2Y+AIqwT1Yo6aKH8toqOAAhrD3MinMsOJJd5+qycnVueAzTGVrC+bhA8
hdHzRZj8A7ReafkEYk8s+ejIi/qZH8mmFPRNWRcOIeKtHN4VhLOk
-----END CERTIFICATE-----
