Certificate:
    Data:
        Version: 3 (0x2)
        Serial Number:
            33:c7:6d:37:49:2e:af:be:86:69:0b:f7:cd:60:28:54:c2:7b:2f:5b
        Signature Algorithm: sha1WithRSAEncryption
        Issuer: C=AU, O=Dodgy Brothers, CN=Dodgy CA
        Validity
            Not Before: Aug 12 04:13:32 2024 GMT
            Not After : Aug 12 04:13:32 2025 GMT
        Subject: C=AU, O=Dodgy Brothers, CN=Brother 1, CN=both_utctime
        Subject Public Key Info:
            Public Key Algorithm: rsaEncryption
                Public-Key: (2048 bit)
                Modulus:
                    00:be:95:86:fa:71:4c:6a:ea:51:98:50:4b:99:a1:
                    2c:66:15:f3:60:f3:e1:ff:69:fb:ce:48:01:1d:fe:
                    e1:2c:38:b0:e3:bd:8f:4b:48:a7:7e:3a:c6:73:e3:
                    ab:bf:e1:da:6e:96:f5:fe:c3:e4:b4:a8:ad:bc:56:
                    34:d4:96:25:74:27:c3:10:db:35:10:25:1c:8e:4b:
                    81:9b:fb:42:04:7c:6f:3d:e2:38:6c:0e:e4:2e:8e:
                    2a:18:6d:30:cd:67:2a:23:6b:37:cf:05:9f:cc:b7:
                    59:58:7f:ba:c4:0a:3f:8c:a4:ad:cb:98:9c:c0:f2:
                    8f:69:67:0f:c1:4e:33:cf:fc:85:5e:bb:5e:cf:93:
                    b0:cf:d9:f4:52:79:87:b1:f8:4d:15:68:65:d5:b7:
                    19:08:63:7f:5e:b1:34:ad:05:8f:5a:f0:e4:e1:8f:
                    25:f2:5c:5c:61:95:b0:56:2d:31:2b:08:65:79:e5:
                    b1:3b:9d:3e:b9:52:4b:ac:5d:c4:58:66:85:8d:81:
                    b3:04:28:f4:3f:2f:ac:92:01:62:d5:fd:8e:0b:da:
                    02:0c:7a:c7:6e:09:1c:ac:1c:b2:4c:d7:54:b8:26:
                    33:b2:5f:14:f3:b1:f9:3d:62:4d:40:99:6b:b6:e7:
                    89:58:97:d6:d4:4d:ea:4b:68:52:f3:3c:a8:b1:35:
                    88:db
                Exponent: 65537 (0x10001)
        X509v3 extensions:
            X509v3 Subject Key Identifier: 
                A1:DF:33:C3:CF:3E:53:41:A7:68:44:CC:AA:19:E1:84:C9:0D:BC:C6
            X509v3 Authority Key Identifier: 
                keyid:B4:11:33:F1:D7:E2:5E:F7:53:9E:20:22:10:4F:86:06:BF:1F:C9:5E
                DirName:/C=AU/O=Dodgy Brothers/CN=Dodgy CA
                serial:1B:D3:E1:D7:5A:41:B6:0E:8B:BC:EF:92:99:EE:10:CC:FC:4C:D0:FA
            X509v3 Basic Constraints: critical
                CA:TRUE, pathlen:1
            X509v3 Key Usage: 
                Certificate Sign, CRL Sign
            X509v3 Issuer Alternative Name: 
                <EMPTY>

    Signature Algorithm: sha1WithRSAEncryption
    Signature Value:
        64:ae:bb:d9:75:3d:92:77:19:e1:09:b9:12:f5:64:76:08:7f:
        69:cb:98:07:cf:45:55:98:2b:a7:5b:96:90:72:45:b4:d4:57:
        9e:a8:09:21:6e:3f:b9:a1:c8:99:db:06:25:1d:8b:8c:e7:f3:
        ab:8b:38:8c:61:8a:6e:8d:1c:61:fd:b6:0a:ed:80:8e:5a:0e:
        31:2f:ca:55:68:0a:ab:9e:c9:52:e8:95:ee:7f:2e:cc:3f:b6:
        bd:ce:dc:f2:11:b8:a1:bb:13:5c:69:ad:32:f7:21:7b:5e:ed:
        66:c8:a5:05:7e:e1:1c:f8:8d:3b:dd:c9:3b:10:0c:b4:cd:2a:
        69:88:49:99:f9:77:37:e7:dc:b4:7c:a8:f3:03:d8:86:57:5c:
        ce:3a:17:8f:03:f6:0a:70:02:53:ce:fe:f0:ad:36:2c:be:aa:
        86:34:d2:1c:8b:0f:04:6a:92:6e:9f:4f:07:49:e9:5e:f6:77:
        e4:15:32:26:28:75:d6:02:4a:ee:38:23:bb:df:ec:0e:ee:aa:
        cc:d0:b4:65:c9:c6:45:8c:35:67:04:f8:e5:cc:71:6c:06:02:
        dd:85:ac:02:8a:41:0e:f3:48:b1:1a:52:7a:37:2f:67:82:b7:
        4c:35:37:6a:2c:4d:18:51:ab:30:13:31:4c:bd:4f:e5:c9:18:
        ab:3e:d4:60
-----BEGIN CERTIFICATE-----
MIID3TCCAsWgAwIBAgIUM8dtN0kur76GaQv3zWAoVMJ7L1swDQYJKoZIhvcNAQEF
BQAwOTELMAkGA1UEBhMCQVUxFzAVBgNVBAoMDkRvZGd5IEJyb3RoZXJzMREwDwYD
VQQDDAhEb2RneSBDQTAeFw0yNDA4MTIwNDEzMzJaFw0yNTA4MTIwNDEzMzJaMFEx
CzAJBgNVBAYTAkFVMRcwFQYDVQQKDA5Eb2RneSBCcm90aGVyczESMBAGA1UEAwwJ
QnJvdGhlciAxMRUwEwYDVQQDDAxib3RoX3V0Y3RpbWUwggEiMA0GCSqGSIb3DQEB
AQUAA4IBDwAwggEKAoIBAQC+lYb6cUxq6lGYUEuZoSxmFfNg8+H/afvOSAEd/uEs
OLDjvY9LSKd+OsZz46u/4dpulvX+w+S0qK28VjTUliV0J8MQ2zUQJRyOS4Gb+0IE
fG894jhsDuQujioYbTDNZyojazfPBZ/Mt1lYf7rECj+MpK3LmJzA8o9pZw/BTjPP
/IVeu17Pk7DP2fRSeYex+E0VaGXVtxkIY39esTStBY9a8OThjyXyXFxhlbBWLTEr
CGV55bE7nT65UkusXcRYZoWNgbMEKPQ/L6ySAWLV/Y4L2gIMesduCRysHLJM11S4
JjOyXxTzsfk9Yk1AmWu254lYl9bUTepLaFLzPKixNYjbAgMBAAGjgcQwgcEwHQYD
VR0OBBYEFKHfM8PPPlNBp2hEzKoZ4YTJDbzGMHQGA1UdIwRtMGuAFLQRM/HX4l73
U54gIhBPhga/H8leoT2kOzA5MQswCQYDVQQGEwJBVTEXMBUGA1UECgwORG9kZ3kg
QnJvdGhlcnMxETAPBgNVBAMMCERvZGd5IENBghQb0+HXWkG2Dou875KZ7hDM/EzQ
+jASBgNVHRMBAf8ECDAGAQH/AgEBMAsGA1UdDwQEAwIBBjAJBgNVHRIEAjAAMA0G
CSqGSIb3DQEBBQUAA4IBAQBkrrvZdT2SdxnhCbkS9WR2CH9py5gHz0VVmCunW5aQ
ckW01FeeqAkhbj+5ociZ2wYlHYuM5/OriziMYYpujRxh/bYK7YCOWg4xL8pVaAqr
nslS6JXufy7MP7a9ztzyEbihuxNcaa0y9yF7Xu1myKUFfuEc+I073ck7EAy0zSpp
iEmZ+Xc359y0fKjzA9iGV1zOOhePA/YKcAJTzv7wrTYsvqqGNNIciw8EapJun08H
Sele9nfkFTImKHXWAkruOCO73+wO7qrM0LRlycZFjDVnBPjlzHFsBgLdhawCikEO
80ixGlJ6Ny9ngrdMNTdqLE0YUaswEzFMvU/lyRirPtRg
-----END CERTIFICATE-----
