Certificate:
    Data:
        Version: 3 (0x2)
        Serial Number:
            33:c7:6d:37:49:2e:af:be:86:69:0b:f7:cd:60:28:54:c2:7b:2f:51
        Signature Algorithm: sha256WithRSAEncryption
        Issuer: C=AU, O=Dodgy Brothers, CN=Dodgy CA
        Validity
            Not Before: Aug 12 04:13:29 2024 GMT
            Not After : Aug 12 04:13:29 2025 GMT
        Subject: C=AU, O=Dodgy Brothers, CN=Brother 1, CN=Brother 2
        Subject Public Key Info:
            Public Key Algorithm: rsaEncryption
                Public-Key: (2048 bit)
                Modulus:
                    00:a8:ff:89:58:61:85:ae:de:db:2c:0f:d5:73:fb:
                    e2:b7:a8:1b:7a:75:60:2b:d4:7d:3c:73:76:b5:ae:
                    de:93:2f:7f:24:90:6d:c9:1c:f4:8a:38:cd:9f:a2:
                    80:16:56:cb:b4:2c:bb:93:e5:17:1f:ff:0d:c6:43:
                    fe:31:34:f8:28:d8:75:e9:a3:bb:88:82:ef:a3:72:
                    e2:53:62:05:45:4d:e0:31:97:ef:aa:9d:10:d2:58:
                    0d:9e:06:9e:32:bb:1b:08:56:5d:65:0f:3f:66:8e:
                    c2:36:a0:11:ff:c0:59:35:fd:49:1c:dd:1c:42:33:
                    06:78:ae:04:38:23:e5:e7:75:67:d3:94:ad:5a:a9:
                    40:1f:ac:59:10:f5:0c:c1:64:ad:4a:c4:c6:35:53:
                    b3:96:6a:82:1b:15:8b:d1:99:ab:e4:9e:6f:94:aa:
                    d2:96:e5:57:fb:8c:91:64:8a:3c:24:16:c6:d2:19:
                    be:82:60:13:3b:62:b0:ed:3e:1d:b3:ca:f9:6b:df:
                    31:b9:7a:9e:4b:47:68:a7:29:c7:3f:4a:e2:22:27:
                    b4:ef:90:63:d7:ef:d0:72:49:3e:5b:ad:b9:1b:d4:
                    2b:6f:86:68:dd:d5:73:12:b8:43:c9:dc:41:0f:a2:
                    a3:46:4f:8b:67:88:84:0f:61:fe:79:34:1f:4a:89:
                    1f:b7
                Exponent: 65537 (0x10001)
        X509v3 extensions:
            X509v3 Basic Constraints: 
                CA:FALSE
            X509v3 Subject Key Identifier: 
                E7:9B:E2:2A:AD:8A:6C:3A:CB:76:51:E5:8E:07:98:22:97:E1:73:A2
            X509v3 Authority Key Identifier: 
                B4:11:33:F1:D7:E2:5E:F7:53:9E:20:22:10:4F:86:06:BF:1F:C9:5E
    Signature Algorithm: sha256WithRSAEncryption
    Signature Value:
        64:80:3a:be:b9:12:55:58:03:d1:bc:96:05:89:d6:ea:4f:aa:
        30:e2:33:de:a4:81:df:6e:09:39:59:84:9d:39:4c:ac:97:36:
        18:1c:96:6b:a6:4f:8d:e5:69:ac:cf:fd:f9:9f:ca:0b:99:af:
        18:2b:73:d6:b0:b8:e4:43:34:ec:90:a8:36:ab:d0:b7:82:28:
        64:3e:27:3d:86:61:26:c8:c8:3b:4e:33:03:6f:7f:c5:59:90:
        b4:0c:7e:cf:4e:32:7c:9a:4f:60:32:27:6b:07:9e:7b:93:ad:
        dd:72:1d:1f:5b:c2:9d:b9:6e:06:fb:14:08:9b:32:9a:91:17:
        58:8a:9c:46:29:e3:81:d6:de:8e:06:44:d8:6d:6e:c0:dc:18:
        48:99:a7:28:0d:1e:0d:65:b1:c4:2e:19:ff:a5:a7:42:fb:97:
        29:30:ed:de:ab:34:b6:77:51:93:16:c7:68:8a:5c:ed:10:94:
        f0:8a:65:6e:8e:37:fe:8b:1b:2f:57:96:09:43:c2:91:de:66:
        c9:cd:e3:76:e2:11:12:38:45:62:0f:04:70:60:a4:be:58:48:
        ad:7b:5a:e2:01:69:59:44:0f:2e:d8:97:87:c2:c6:b1:37:c2:
        43:f7:f8:2b:b4:07:bd:2d:42:68:7a:42:15:be:1c:f0:72:12:
        2d:ca:de:53
-----BEGIN CERTIFICATE-----
MIIDYjCCAkqgAwIBAgIUM8dtN0kur76GaQv3zWAoVMJ7L1EwDQYJKoZIhvcNAQEL
BQAwOTELMAkGA1UEBhMCQVUxFzAVBgNVBAoMDkRvZGd5IEJyb3RoZXJzMREwDwYD
VQQDDAhEb2RneSBDQTAeFw0yNDA4MTIwNDEzMjlaFw0yNTA4MTIwNDEzMjlaME4x
CzAJBgNVBAYTAkFVMRcwFQYDVQQKDA5Eb2RneSBCcm90aGVyczESMBAGA1UEAwwJ
QnJvdGhlciAxMRIwEAYDVQQDDAlCcm90aGVyIDIwggEiMA0GCSqGSIb3DQEBAQUA
A4IBDwAwggEKAoIBAQCo/4lYYYWu3tssD9Vz++K3qBt6dWAr1H08c3a1rt6TL38k
kG3JHPSKOM2fooAWVsu0LLuT5Rcf/w3GQ/4xNPgo2HXpo7uIgu+jcuJTYgVFTeAx
l++qnRDSWA2eBp4yuxsIVl1lDz9mjsI2oBH/wFk1/Ukc3RxCMwZ4rgQ4I+XndWfT
lK1aqUAfrFkQ9QzBZK1KxMY1U7OWaoIbFYvRmavknm+UqtKW5Vf7jJFkijwkFsbS
Gb6CYBM7YrDtPh2zyvlr3zG5ep5LR2inKcc/SuIiJ7TvkGPX79ByST5brbkb1Ctv
hmjd1XMSuEPJ3EEPoqNGT4tniIQPYf55NB9KiR+3AgMBAAGjTTBLMAkGA1UdEwQC
MAAwHQYDVR0OBBYEFOeb4iqtimw6y3ZR5Y4HmCKX4XOiMB8GA1UdIwQYMBaAFLQR
M/HX4l73U54gIhBPhga/H8leMA0GCSqGSIb3DQEBCwUAA4IBAQBkgDq+uRJVWAPR
vJYFidbqT6ow4jPepIHfbgk5WYSdOUyslzYYHJZrpk+N5Wmsz/35n8oLma8YK3PW
sLjkQzTskKg2q9C3gihkPic9hmEmyMg7TjMDb3/FWZC0DH7PTjJ8mk9gMidrB557
k63dch0fW8KduW4G+xQImzKakRdYipxGKeOB1t6OBkTYbW7A3BhImacoDR4NZbHE
Lhn/padC+5cpMO3eqzS2d1GTFsdoilztEJTwimVujjf+ixsvV5YJQ8KR3mbJzeN2
4hESOEViDwRwYKS+WEite1riAWlZRA8u2JeHwsaxN8JD9/grtAe9LUJoekIVvhzw
chItyt5T
-----END CERTIFICATE-----
