Certificate:
    Data:
        Version: 3 (0x2)
        Serial Number:
            33:c7:6d:37:49:2e:af:be:86:69:0b:f7:cd:60:28:54:c2:7b:2f:58
        Signature Algorithm: sha1WithRSAEncryption
        Issuer: C=AU, O=Dodgy Brothers, CN=Dodgy CA
        Validity
            Not Before: Aug 12 04:13:31 2024 GMT
            Not After : Aug 12 04:13:31 2025 GMT
        Subject: C=AU, O=Dodgy Brothers, CN=Brother 1, CN=nextupdate_invalid
        Subject Public Key Info:
            Public Key Algorithm: rsaEncryption
                Public-Key: (2048 bit)
                Modulus:
                    00:be:95:86:fa:71:4c:6a:ea:51:98:50:4b:99:a1:
                    2c:66:15:f3:60:f3:e1:ff:69:fb:ce:48:01:1d:fe:
                    e1:2c:38:b0:e3:bd:8f:4b:48:a7:7e:3a:c6:73:e3:
                    ab:bf:e1:da:6e:96:f5:fe:c3:e4:b4:a8:ad:bc:56:
                    34:d4:96:25:74:27:c3:10:db:35:10:25:1c:8e:4b:
                    81:9b:fb:42:04:7c:6f:3d:e2:38:6c:0e:e4:2e:8e:
                    2a:18:6d:30:cd:67:2a:23:6b:37:cf:05:9f:cc:b7:
                    59:58:7f:ba:c4:0a:3f:8c:a4:ad:cb:98:9c:c0:f2:
                    8f:69:67:0f:c1:4e:33:cf:fc:85:5e:bb:5e:cf:93:
                    b0:cf:d9:f4:52:79:87:b1:f8:4d:15:68:65:d5:b7:
                    19:08:63:7f:5e:b1:34:ad:05:8f:5a:f0:e4:e1:8f:
                    25:f2:5c:5c:61:95:b0:56:2d:31:2b:08:65:79:e5:
                    b1:3b:9d:3e:b9:52:4b:ac:5d:c4:58:66:85:8d:81:
                    b3:04:28:f4:3f:2f:ac:92:01:62:d5:fd:8e:0b:da:
                    02:0c:7a:c7:6e:09:1c:ac:1c:b2:4c:d7:54:b8:26:
                    33:b2:5f:14:f3:b1:f9:3d:62:4d:40:99:6b:b6:e7:
                    89:58:97:d6:d4:4d:ea:4b:68:52:f3:3c:a8:b1:35:
                    88:db
                Exponent: 65537 (0x10001)
        X509v3 extensions:
            X509v3 Subject Key Identifier: 
                A1:DF:33:C3:CF:3E:53:41:A7:68:44:CC:AA:19:E1:84:C9:0D:BC:C6
            X509v3 Authority Key Identifier: 
                keyid:B4:11:33:F1:D7:E2:5E:F7:53:9E:20:22:10:4F:86:06:BF:1F:C9:5E
                DirName:/C=AU/O=Dodgy Brothers/CN=Dodgy CA
                serial:1B:D3:E1:D7:5A:41:B6:0E:8B:BC:EF:92:99:EE:10:CC:FC:4C:D0:FA
            X509v3 Basic Constraints: critical
                CA:TRUE, pathlen:1
            X509v3 Key Usage: 
                Certificate Sign, CRL Sign
            X509v3 Issuer Alternative Name: 
                <EMPTY>

    Signature Algorithm: sha1WithRSAEncryption
    Signature Value:
        74:2a:91:32:6f:34:d9:7a:c4:81:a6:be:f2:e4:36:b9:e8:a7:
        d1:bb:fe:a7:b9:46:3a:b2:92:c3:1d:b8:1d:53:24:2c:77:0f:
        93:f2:75:98:c5:c2:f0:e1:69:ce:6b:60:b1:6d:0c:4e:0b:3e:
        0f:11:ad:26:1f:c6:1c:fa:6a:04:70:97:74:ff:47:c3:89:6e:
        37:74:da:bf:76:44:b8:87:6c:e7:58:c4:a0:7a:80:93:f0:15:
        a3:a7:ff:68:f0:98:b7:17:55:1c:e9:81:0e:a9:39:42:2c:87:
        9e:a5:19:4f:d4:90:c3:ed:e5:9a:8c:dd:db:b5:25:d3:19:79:
        66:2e:68:c0:6b:41:b0:b1:b7:ec:97:bd:d0:a6:d4:86:7a:32:
        2c:b8:6e:13:fd:bf:0f:d5:39:37:25:99:ce:a9:73:98:1f:ed:
        65:b0:69:16:11:4f:6c:ef:85:18:09:04:bb:bc:e8:23:a3:93:
        c1:ab:3e:c7:39:e4:ad:c7:b4:0c:35:c7:35:d1:9b:e9:bd:95:
        31:6c:86:37:a2:c1:9c:c6:08:c0:67:8b:7d:da:7c:8c:27:17:
        2e:f2:c1:05:b1:7d:d1:7f:5f:70:83:6a:ce:ec:bd:a5:58:22:
        7e:8f:23:9a:ee:ab:19:75:61:64:04:3e:f5:4e:ea:bf:12:28:
        a1:3f:f4:35
-----BEGIN CERTIFICATE-----
MIID4zCCAsugAwIBAgIUM8dtN0kur76GaQv3zWAoVMJ7L1gwDQYJKoZIhvcNAQEF
BQAwOTELMAkGA1UEBhMCQVUxFzAVBgNVBAoMDkRvZGd5IEJyb3RoZXJzMREwDwYD
VQQDDAhEb2RneSBDQTAeFw0yNDA4MTIwNDEzMzFaFw0yNTA4MTIwNDEzMzFaMFcx
CzAJBgNVBAYTAkFVMRcwFQYDVQQKDA5Eb2RneSBCcm90aGVyczESMBAGA1UEAwwJ
QnJvdGhlciAxMRswGQYDVQQDDBJuZXh0dXBkYXRlX2ludmFsaWQwggEiMA0GCSqG
SIb3DQEBAQUAA4IBDwAwggEKAoIBAQC+lYb6cUxq6lGYUEuZoSxmFfNg8+H/afvO
SAEd/uEsOLDjvY9LSKd+OsZz46u/4dpulvX+w+S0qK28VjTUliV0J8MQ2zUQJRyO
S4Gb+0IEfG894jhsDuQujioYbTDNZyojazfPBZ/Mt1lYf7rECj+MpK3LmJzA8o9p
Zw/BTjPP/IVeu17Pk7DP2fRSeYex+E0VaGXVtxkIY39esTStBY9a8OThjyXyXFxh
lbBWLTErCGV55bE7nT65UkusXcRYZoWNgbMEKPQ/L6ySAWLV/Y4L2gIMesduCRys
HLJM11S4JjOyXxTzsfk9Yk1AmWu254lYl9bUTepLaFLzPKixNYjbAgMBAAGjgcQw
gcEwHQYDVR0OBBYEFKHfM8PPPlNBp2hEzKoZ4YTJDbzGMHQGA1UdIwRtMGuAFLQR
M/HX4l73U54gIhBPhga/H8leoT2kOzA5MQswCQYDVQQGEwJBVTEXMBUGA1UECgwO
RG9kZ3kgQnJvdGhlcnMxETAPBgNVBAMMCERvZGd5IENBghQb0+HXWkG2Dou875KZ
7hDM/EzQ+jASBgNVHRMBAf8ECDAGAQH/AgEBMAsGA1UdDwQEAwIBBjAJBgNVHRIE
AjAAMA0GCSqGSIb3DQEBBQUAA4IBAQB0KpEybzTZesSBpr7y5Da56KfRu/6nuUY6
spLDHbgdUyQsdw+T8nWYxcLw4WnOa2CxbQxOCz4PEa0mH8Yc+moEcJd0/0fDiW43
dNq/dkS4h2znWMSgeoCT8BWjp/9o8Ji3F1Uc6YEOqTlCLIeepRlP1JDD7eWajN3b
tSXTGXlmLmjAa0Gwsbfsl73QptSGejIsuG4T/b8P1Tk3JZnOqXOYH+1lsGkWEU9s
74UYCQS7vOgjo5PBqz7HOeStx7QMNcc10ZvpvZUxbIY3osGcxgjAZ4t92nyMJxcu
8sEFsX3Rf19wg2rO7L2lWCJ+jyOa7qsZdWFkBD71Tuq/EiihP/Q1
-----END CERTIFICATE-----
