Certificate:
    Data:
        Version: 3 (0x2)
        Serial Number:
            4a:f4:77:b4:19:d0:73:45:6e:b1:18:0a:3a:49:cb:48:e1:f7:54:9b
        Signature Algorithm: sha1WithRSAEncryption
        Issuer: C=AU, O=Dodgy Brothers, CN=Dodgy CA
        Validity
            Not Before: Aug 19 05:44:45 2024 GMT
            Not After : Aug 19 05:44:45 2025 GMT
        Subject: C=AU, O=Dodgy Brothers, CN=Brother 1, CN=lastupdate_generalizedtime
        Subject Public Key Info:
            Public Key Algorithm: rsaEncryption
                Public-Key: (2048 bit)
                Modulus:
                    00:be:95:86:fa:71:4c:6a:ea:51:98:50:4b:99:a1:
                    2c:66:15:f3:60:f3:e1:ff:69:fb:ce:48:01:1d:fe:
                    e1:2c:38:b0:e3:bd:8f:4b:48:a7:7e:3a:c6:73:e3:
                    ab:bf:e1:da:6e:96:f5:fe:c3:e4:b4:a8:ad:bc:56:
                    34:d4:96:25:74:27:c3:10:db:35:10:25:1c:8e:4b:
                    81:9b:fb:42:04:7c:6f:3d:e2:38:6c:0e:e4:2e:8e:
                    2a:18:6d:30:cd:67:2a:23:6b:37:cf:05:9f:cc:b7:
                    59:58:7f:ba:c4:0a:3f:8c:a4:ad:cb:98:9c:c0:f2:
                    8f:69:67:0f:c1:4e:33:cf:fc:85:5e:bb:5e:cf:93:
                    b0:cf:d9:f4:52:79:87:b1:f8:4d:15:68:65:d5:b7:
                    19:08:63:7f:5e:b1:34:ad:05:8f:5a:f0:e4:e1:8f:
                    25:f2:5c:5c:61:95:b0:56:2d:31:2b:08:65:79:e5:
                    b1:3b:9d:3e:b9:52:4b:ac:5d:c4:58:66:85:8d:81:
                    b3:04:28:f4:3f:2f:ac:92:01:62:d5:fd:8e:0b:da:
                    02:0c:7a:c7:6e:09:1c:ac:1c:b2:4c:d7:54:b8:26:
                    33:b2:5f:14:f3:b1:f9:3d:62:4d:40:99:6b:b6:e7:
                    89:58:97:d6:d4:4d:ea:4b:68:52:f3:3c:a8:b1:35:
                    88:db
                Exponent: 65537 (0x10001)
        X509v3 extensions:
            X509v3 Subject Key Identifier: 
                A1:DF:33:C3:CF:3E:53:41:A7:68:44:CC:AA:19:E1:84:C9:0D:BC:C6
            X509v3 Authority Key Identifier: 
                keyid:B4:11:33:F1:D7:E2:5E:F7:53:9E:20:22:10:4F:86:06:BF:1F:C9:5E
                DirName:/C=AU/O=Dodgy Brothers/CN=Dodgy CA
                serial:4E:53:0D:DE:C4:67:FD:9A:AC:57:01:4D:8D:9A:54:BA:E2:A3:B6:4C
            X509v3 Basic Constraints: critical
                CA:TRUE, pathlen:1
            X509v3 Key Usage: 
                Certificate Sign, CRL Sign
            X509v3 Issuer Alternative Name: 
                <EMPTY>

    Signature Algorithm: sha1WithRSAEncryption
    Signature Value:
        93:8e:18:32:74:17:be:dc:0e:67:01:fb:f9:09:98:5f:1b:43:
        0a:64:00:85:14:1b:8b:43:ed:cc:f3:b5:e0:38:b6:a8:38:a6:
        13:7e:77:73:8c:3a:b3:1c:b7:e1:f7:11:19:2c:8f:ac:59:b5:
        ec:d1:a3:72:57:e0:a9:da:b8:96:48:b3:f1:6d:11:5d:d3:23:
        ac:1f:bc:1b:f6:a3:32:4e:2b:90:21:5e:58:57:2a:42:a8:7c:
        d6:1f:47:3e:1e:02:23:f9:4c:d3:e4:64:ed:50:ae:bd:3a:13:
        d4:52:48:13:70:76:2b:f0:54:3b:66:9d:30:c4:1d:2b:6a:37:
        b1:54:d5:df:20:88:95:9c:27:78:88:13:de:ec:09:e8:48:c6:
        0f:22:1d:d8:16:b9:44:95:03:ed:fd:a8:96:aa:7b:21:57:ff:
        35:05:03:36:f7:34:7e:5a:af:a2:22:a5:e3:21:22:19:ec:c2:
        bd:c5:be:78:94:5f:3a:e2:a7:de:85:61:ae:0b:82:46:db:be:
        55:28:1f:23:d8:e3:23:90:f0:1b:28:42:2a:e2:58:66:fa:2d:
        fe:bb:57:8a:34:cb:b7:09:65:82:93:ee:c2:6c:50:50:e3:ef:
        36:60:2b:bf:7a:4b:51:14:bf:05:9b:54:57:7d:15:58:71:67:
        73:a4:1d:c3
-----BEGIN CERTIFICATE-----
MIID6zCCAtOgAwIBAgIUSvR3tBnQc0VusRgKOknLSOH3VJswDQYJKoZIhvcNAQEF
BQAwOTELMAkGA1UEBhMCQVUxFzAVBgNVBAoMDkRvZGd5IEJyb3RoZXJzMREwDwYD
VQQDDAhEb2RneSBDQTAeFw0yNDA4MTkwNTQ0NDVaFw0yNTA4MTkwNTQ0NDVaMF8x
CzAJBgNVBAYTAkFVMRcwFQYDVQQKDA5Eb2RneSBCcm90aGVyczESMBAGA1UEAwwJ
QnJvdGhlciAxMSMwIQYDVQQDDBpsYXN0dXBkYXRlX2dlbmVyYWxpemVkdGltZTCC
ASIwDQYJKoZIhvcNAQEBBQADggEPADCCAQoCggEBAL6VhvpxTGrqUZhQS5mhLGYV
82Dz4f9p+85IAR3+4Sw4sOO9j0tIp346xnPjq7/h2m6W9f7D5LSorbxWNNSWJXQn
wxDbNRAlHI5LgZv7QgR8bz3iOGwO5C6OKhhtMM1nKiNrN88Fn8y3WVh/usQKP4yk
rcuYnMDyj2lnD8FOM8/8hV67Xs+TsM/Z9FJ5h7H4TRVoZdW3GQhjf16xNK0Fj1rw
5OGPJfJcXGGVsFYtMSsIZXnlsTudPrlSS6xdxFhmhY2BswQo9D8vrJIBYtX9jgva
Agx6x24JHKwcskzXVLgmM7JfFPOx+T1iTUCZa7bniViX1tRN6ktoUvM8qLE1iNsC
AwEAAaOBxDCBwTAdBgNVHQ4EFgQUod8zw88+U0GnaETMqhnhhMkNvMYwdAYDVR0j
BG0wa4AUtBEz8dfiXvdTniAiEE+GBr8fyV6hPaQ7MDkxCzAJBgNVBAYTAkFVMRcw
FQYDVQQKDA5Eb2RneSBCcm90aGVyczERMA8GA1UEAwwIRG9kZ3kgQ0GCFE5TDd7E
Z/2arFcBTY2aVLrio7ZMMBIGA1UdEwEB/wQIMAYBAf8CAQEwCwYDVR0PBAQDAgEG
MAkGA1UdEgQCMAAwDQYJKoZIhvcNAQEFBQADggEBAJOOGDJ0F77cDmcB+/kJmF8b
QwpkAIUUG4tD7czzteA4tqg4phN+d3OMOrMct+H3ERksj6xZtezRo3JX4KnauJZI
s/FtEV3TI6wfvBv2ozJOK5AhXlhXKkKofNYfRz4eAiP5TNPkZO1Qrr06E9RSSBNw
divwVDtmnTDEHStqN7FU1d8giJWcJ3iIE97sCehIxg8iHdgWuUSVA+39qJaqeyFX
/zUFAzb3NH5ar6IipeMhIhnswr3FvniUXzrip96FYa4LgkbbvlUoHyPY4yOQ8Bso
QiriWGb6Lf67V4o0y7cJZYKT7sJsUFDj7zZgK796S1EUvwWbVFd9FVhxZ3OkHcM=
-----END CERTIFICATE-----
