Certificate:
    Data:
        Version: 3 (0x2)
        Serial Number:
            4a:f4:77:b4:19:d0:73:45:6e:b1:18:0a:3a:49:cb:48:e1:f7:54:9c
        Signature Algorithm: sha1WithRSAEncryption
        Issuer: C=AU, O=Dodgy Brothers, CN=Dodgy CA
        Validity
            Not Before: Aug 19 05:44:45 2024 GMT
            Not After : Aug 19 05:44:45 2025 GMT
        Subject: C=AU, O=Dodgy Brothers, CN=Brother 1, CN=nextupdate_invalid
        Subject Public Key Info:
            Public Key Algorithm: rsaEncryption
                Public-Key: (2048 bit)
                Modulus:
                    00:be:95:86:fa:71:4c:6a:ea:51:98:50:4b:99:a1:
                    2c:66:15:f3:60:f3:e1:ff:69:fb:ce:48:01:1d:fe:
                    e1:2c:38:b0:e3:bd:8f:4b:48:a7:7e:3a:c6:73:e3:
                    ab:bf:e1:da:6e:96:f5:fe:c3:e4:b4:a8:ad:bc:56:
                    34:d4:96:25:74:27:c3:10:db:35:10:25:1c:8e:4b:
                    81:9b:fb:42:04:7c:6f:3d:e2:38:6c:0e:e4:2e:8e:
                    2a:18:6d:30:cd:67:2a:23:6b:37:cf:05:9f:cc:b7:
                    59:58:7f:ba:c4:0a:3f:8c:a4:ad:cb:98:9c:c0:f2:
                    8f:69:67:0f:c1:4e:33:cf:fc:85:5e:bb:5e:cf:93:
                    b0:cf:d9:f4:52:79:87:b1:f8:4d:15:68:65:d5:b7:
                    19:08:63:7f:5e:b1:34:ad:05:8f:5a:f0:e4:e1:8f:
                    25:f2:5c:5c:61:95:b0:56:2d:31:2b:08:65:79:e5:
                    b1:3b:9d:3e:b9:52:4b:ac:5d:c4:58:66:85:8d:81:
                    b3:04:28:f4:3f:2f:ac:92:01:62:d5:fd:8e:0b:da:
                    02:0c:7a:c7:6e:09:1c:ac:1c:b2:4c:d7:54:b8:26:
                    33:b2:5f:14:f3:b1:f9:3d:62:4d:40:99:6b:b6:e7:
                    89:58:97:d6:d4:4d:ea:4b:68:52:f3:3c:a8:b1:35:
                    88:db
                Exponent: 65537 (0x10001)
        X509v3 extensions:
            X509v3 Subject Key Identifier: 
                A1:DF:33:C3:CF:3E:53:41:A7:68:44:CC:AA:19:E1:84:C9:0D:BC:C6
            X509v3 Authority Key Identifier: 
                keyid:B4:11:33:F1:D7:E2:5E:F7:53:9E:20:22:10:4F:86:06:BF:1F:C9:5E
                DirName:/C=AU/O=Dodgy Brothers/CN=Dodgy CA
                serial:4E:53:0D:DE:C4:67:FD:9A:AC:57:01:4D:8D:9A:54:BA:E2:A3:B6:4C
            X509v3 Basic Constraints: critical
                CA:TRUE, pathlen:1
            X509v3 Key Usage: 
                Certificate Sign, CRL Sign
            X509v3 Issuer Alternative Name: 
                <EMPTY>

    Signature Algorithm: sha1WithRSAEncryption
    Signature Value:
        05:ae:01:c1:23:b9:13:2f:81:c1:87:f7:fa:80:8d:22:d9:83:
        4a:cb:07:a5:0e:99:cb:af:3c:22:ce:4a:fd:54:d3:76:d5:7c:
        fd:da:42:c0:61:ce:50:fb:20:f3:9d:ea:a5:36:6e:4a:0a:73:
        b2:ce:1a:42:b6:de:d2:ad:a0:b1:34:50:22:71:23:e6:bf:a7:
        75:03:ac:46:64:f7:d8:22:66:57:93:52:0b:c6:0c:77:28:5b:
        43:34:e2:0f:5e:c3:76:cc:bd:4b:3f:e5:3c:80:81:07:c9:27:
        be:de:8f:3a:d8:99:be:54:f6:a5:b7:22:8f:55:a8:fe:63:ba:
        53:5a:86:81:2d:ba:c8:d0:10:73:c5:78:3a:a8:f1:93:fe:6d:
        ee:90:2b:c1:48:82:20:73:2c:6b:20:72:2c:9e:55:56:e1:d5:
        da:96:6c:0e:26:7a:d3:40:e9:05:34:48:ee:e7:29:a5:dc:2d:
        13:90:75:05:75:71:9e:9c:9a:71:40:d9:00:86:aa:72:c6:d6:
        62:f2:4e:6a:9c:86:22:c2:df:61:71:b8:b5:33:f8:de:74:89:
        50:b4:72:d4:79:4a:0c:72:39:4a:0f:7b:0a:1b:7f:44:ba:e8:
        9c:f8:43:68:81:6b:60:fc:a5:e7:5c:c5:94:63:9b:1d:e6:5e:
        35:65:f8:87
-----BEGIN CERTIFICATE-----
MIID4zCCAsugAwIBAgIUSvR3tBnQc0VusRgKOknLSOH3VJwwDQYJKoZIhvcNAQEF
BQAwOTELMAkGA1UEBhMCQVUxFzAVBgNVBAoMDkRvZGd5IEJyb3RoZXJzMREwDwYD
VQQDDAhEb2RneSBDQTAeFw0yNDA4MTkwNTQ0NDVaFw0yNTA4MTkwNTQ0NDVaMFcx
CzAJBgNVBAYTAkFVMRcwFQYDVQQKDA5Eb2RneSBCcm90aGVyczESMBAGA1UEAwwJ
QnJvdGhlciAxMRswGQYDVQQDDBJuZXh0dXBkYXRlX2ludmFsaWQwggEiMA0GCSqG
SIb3DQEBAQUAA4IBDwAwggEKAoIBAQC+lYb6cUxq6lGYUEuZoSxmFfNg8+H/afvO
SAEd/uEsOLDjvY9LSKd+OsZz46u/4dpulvX+w+S0qK28VjTUliV0J8MQ2zUQJRyO
S4Gb+0IEfG894jhsDuQujioYbTDNZyojazfPBZ/Mt1lYf7rECj+MpK3LmJzA8o9p
Zw/BTjPP/IVeu17Pk7DP2fRSeYex+E0VaGXVtxkIY39esTStBY9a8OThjyXyXFxh
lbBWLTErCGV55bE7nT65UkusXcRYZoWNgbMEKPQ/L6ySAWLV/Y4L2gIMesduCRys
HLJM11S4JjOyXxTzsfk9Yk1AmWu254lYl9bUTepLaFLzPKixNYjbAgMBAAGjgcQw
gcEwHQYDVR0OBBYEFKHfM8PPPlNBp2hEzKoZ4YTJDbzGMHQGA1UdIwRtMGuAFLQR
M/HX4l73U54gIhBPhga/H8leoT2kOzA5MQswCQYDVQQGEwJBVTEXMBUGA1UECgwO
RG9kZ3kgQnJvdGhlcnMxETAPBgNVBAMMCERvZGd5IENBghROUw3exGf9mqxXAU2N
mlS64qO2TDASBgNVHRMBAf8ECDAGAQH/AgEBMAsGA1UdDwQEAwIBBjAJBgNVHRIE
AjAAMA0GCSqGSIb3DQEBBQUAA4IBAQAFrgHBI7kTL4HBh/f6gI0i2YNKywelDpnL
rzwizkr9VNN21Xz92kLAYc5Q+yDzneqlNm5KCnOyzhpCtt7SraCxNFAicSPmv6d1
A6xGZPfYImZXk1ILxgx3KFtDNOIPXsN2zL1LP+U8gIEHySe+3o862Jm+VPaltyKP
Vaj+Y7pTWoaBLbrI0BBzxXg6qPGT/m3ukCvBSIIgcyxrIHIsnlVW4dXalmwOJnrT
QOkFNEju5yml3C0TkHUFdXGenJpxQNkAhqpyxtZi8k5qnIYiwt9hcbi1M/jedIlQ
tHLUeUoMcjlKD3sKG39Euuic+ENogWtg/KXnXMWUY5sd5l41ZfiH
-----END CERTIFICATE-----
