Certificate:
    Data:
        Version: 3 (0x2)
        Serial Number:
            4a:f4:77:b4:19:d0:73:45:6e:b1:18:0a:3a:49:cb:48:e1:f7:54:95
        Signature Algorithm: sha256WithRSAEncryption
        Issuer: C=AU, O=Dodgy Brothers, CN=Dodgy CA
        Validity
            Not Before: Aug 19 05:44:44 2024 GMT
            Not After : Aug 19 05:44:44 2025 GMT
        Subject: C=AU, O=Dodgy Brothers, CN=Brother 1, CN=Brother 2
        Subject Public Key Info:
            Public Key Algorithm: rsaEncryption
                Public-Key: (2048 bit)
                Modulus:
                    00:a8:ff:89:58:61:85:ae:de:db:2c:0f:d5:73:fb:
                    e2:b7:a8:1b:7a:75:60:2b:d4:7d:3c:73:76:b5:ae:
                    de:93:2f:7f:24:90:6d:c9:1c:f4:8a:38:cd:9f:a2:
                    80:16:56:cb:b4:2c:bb:93:e5:17:1f:ff:0d:c6:43:
                    fe:31:34:f8:28:d8:75:e9:a3:bb:88:82:ef:a3:72:
                    e2:53:62:05:45:4d:e0:31:97:ef:aa:9d:10:d2:58:
                    0d:9e:06:9e:32:bb:1b:08:56:5d:65:0f:3f:66:8e:
                    c2:36:a0:11:ff:c0:59:35:fd:49:1c:dd:1c:42:33:
                    06:78:ae:04:38:23:e5:e7:75:67:d3:94:ad:5a:a9:
                    40:1f:ac:59:10:f5:0c:c1:64:ad:4a:c4:c6:35:53:
                    b3:96:6a:82:1b:15:8b:d1:99:ab:e4:9e:6f:94:aa:
                    d2:96:e5:57:fb:8c:91:64:8a:3c:24:16:c6:d2:19:
                    be:82:60:13:3b:62:b0:ed:3e:1d:b3:ca:f9:6b:df:
                    31:b9:7a:9e:4b:47:68:a7:29:c7:3f:4a:e2:22:27:
                    b4:ef:90:63:d7:ef:d0:72:49:3e:5b:ad:b9:1b:d4:
                    2b:6f:86:68:dd:d5:73:12:b8:43:c9:dc:41:0f:a2:
                    a3:46:4f:8b:67:88:84:0f:61:fe:79:34:1f:4a:89:
                    1f:b7
                Exponent: 65537 (0x10001)
        X509v3 extensions:
            X509v3 Basic Constraints: 
                CA:FALSE
            X509v3 Subject Key Identifier: 
                E7:9B:E2:2A:AD:8A:6C:3A:CB:76:51:E5:8E:07:98:22:97:E1:73:A2
            X509v3 Authority Key Identifier: 
                B4:11:33:F1:D7:E2:5E:F7:53:9E:20:22:10:4F:86:06:BF:1F:C9:5E
    Signature Algorithm: sha256WithRSAEncryption
    Signature Value:
        32:dd:c0:22:d7:c3:de:3a:07:16:a3:b6:3a:75:82:bf:0f:92:
        6d:4f:bf:cd:b3:4f:a7:58:9f:59:de:4b:75:f6:99:9a:cc:1e:
        7b:bf:03:ed:62:df:56:8e:d6:85:73:d1:83:05:0d:73:a8:2f:
        ef:3a:1a:82:aa:a9:18:c0:43:6d:5a:b7:63:78:02:fc:2e:19:
        a0:d1:1f:48:e3:77:6b:10:6a:e0:69:b9:ca:9b:6d:29:71:76:
        39:fa:5c:44:0c:21:5e:44:eb:47:f3:d9:db:cd:3f:9d:a7:09:
        bd:12:a9:a1:9b:07:3a:e0:4b:48:c1:8f:8a:0e:1d:7e:b6:49:
        29:f7:11:ce:eb:e9:2a:48:6b:27:0c:f4:c3:ea:d0:5a:f3:56:
        87:e2:7a:40:76:3c:11:21:84:40:d0:7d:58:a6:70:aa:85:47:
        c0:cc:ce:16:a2:1f:d9:9d:57:69:a7:a1:59:43:d7:11:02:91:
        ff:59:5e:15:fc:07:34:0b:1a:2f:2e:a9:b9:71:96:b8:5b:f4:
        1c:3d:97:50:a1:4c:4d:b9:2a:b3:ec:ff:57:fb:0d:32:fe:2c:
        c6:7b:9a:66:7e:21:0a:da:6a:7f:9b:b5:15:e9:d2:1c:57:c9:
        8b:6a:3a:28:3a:d4:86:01:de:fe:46:4e:44:91:39:a2:54:b7:
        8c:03:99:40
-----BEGIN CERTIFICATE-----
MIIDYjCCAkqgAwIBAgIUSvR3tBnQc0VusRgKOknLSOH3VJUwDQYJKoZIhvcNAQEL
BQAwOTELMAkGA1UEBhMCQVUxFzAVBgNVBAoMDkRvZGd5IEJyb3RoZXJzMREwDwYD
VQQDDAhEb2RneSBDQTAeFw0yNDA4MTkwNTQ0NDRaFw0yNTA4MTkwNTQ0NDRaME4x
CzAJBgNVBAYTAkFVMRcwFQYDVQQKDA5Eb2RneSBCcm90aGVyczESMBAGA1UEAwwJ
QnJvdGhlciAxMRIwEAYDVQQDDAlCcm90aGVyIDIwggEiMA0GCSqGSIb3DQEBAQUA
A4IBDwAwggEKAoIBAQCo/4lYYYWu3tssD9Vz++K3qBt6dWAr1H08c3a1rt6TL38k
kG3JHPSKOM2fooAWVsu0LLuT5Rcf/w3GQ/4xNPgo2HXpo7uIgu+jcuJTYgVFTeAx
l++qnRDSWA2eBp4yuxsIVl1lDz9mjsI2oBH/wFk1/Ukc3RxCMwZ4rgQ4I+XndWfT
lK1aqUAfrFkQ9QzBZK1KxMY1U7OWaoIbFYvRmavknm+UqtKW5Vf7jJFkijwkFsbS
Gb6CYBM7YrDtPh2zyvlr3zG5ep5LR2inKcc/SuIiJ7TvkGPX79ByST5brbkb1Ctv
hmjd1XMSuEPJ3EEPoqNGT4tniIQPYf55NB9KiR+3AgMBAAGjTTBLMAkGA1UdEwQC
MAAwHQYDVR0OBBYEFOeb4iqtimw6y3ZR5Y4HmCKX4XOiMB8GA1UdIwQYMBaAFLQR
M/HX4l73U54gIhBPhga/H8leMA0GCSqGSIb3DQEBCwUAA4IBAQAy3cAi18PeOgcW
o7Y6dYK/D5JtT7/Ns0+nWJ9Z3kt19pmazB57vwPtYt9WjtaFc9GDBQ1zqC/vOhqC
qqkYwENtWrdjeAL8Lhmg0R9I43drEGrgabnKm20pcXY5+lxEDCFeROtH89nbzT+d
pwm9Eqmhmwc64EtIwY+KDh1+tkkp9xHO6+kqSGsnDPTD6tBa81aH4npAdjwRIYRA
0H1YpnCqhUfAzM4Woh/ZnVdpp6FZQ9cRApH/WV4V/Ac0CxovLqm5cZa4W/QcPZdQ
oUxNuSqz7P9X+w0y/izGe5pmfiEK2mp/m7UV6dIcV8mLajooOtSGAd7+Rk5EkTmi
VLeMA5lA
-----END CERTIFICATE-----
