Certificate:
    Data:
        Version: 3 (0x2)
        Serial Number:
            4a:f4:77:b4:19:d0:73:45:6e:b1:18:0a:3a:49:cb:48:e1:f7:54:9e
        Signature Algorithm: sha1WithRSAEncryption
        Issuer: C=AU, O=Dodgy Brothers, CN=Dodgy CA
        Validity
            Not Before: Aug 19 05:44:46 2024 GMT
            Not After : Aug 19 05:44:46 2025 GMT
        Subject: C=AU, O=Dodgy Brothers, CN=Brother 1, CN=nextupdate_generalizedtime
        Subject Public Key Info:
            Public Key Algorithm: rsaEncryption
                Public-Key: (2048 bit)
                Modulus:
                    00:be:95:86:fa:71:4c:6a:ea:51:98:50:4b:99:a1:
                    2c:66:15:f3:60:f3:e1:ff:69:fb:ce:48:01:1d:fe:
                    e1:2c:38:b0:e3:bd:8f:4b:48:a7:7e:3a:c6:73:e3:
                    ab:bf:e1:da:6e:96:f5:fe:c3:e4:b4:a8:ad:bc:56:
                    34:d4:96:25:74:27:c3:10:db:35:10:25:1c:8e:4b:
                    81:9b:fb:42:04:7c:6f:3d:e2:38:6c:0e:e4:2e:8e:
                    2a:18:6d:30:cd:67:2a:23:6b:37:cf:05:9f:cc:b7:
                    59:58:7f:ba:c4:0a:3f:8c:a4:ad:cb:98:9c:c0:f2:
                    8f:69:67:0f:c1:4e:33:cf:fc:85:5e:bb:5e:cf:93:
                    b0:cf:d9:f4:52:79:87:b1:f8:4d:15:68:65:d5:b7:
                    19:08:63:7f:5e:b1:34:ad:05:8f:5a:f0:e4:e1:8f:
                    25:f2:5c:5c:61:95:b0:56:2d:31:2b:08:65:79:e5:
                    b1:3b:9d:3e:b9:52:4b:ac:5d:c4:58:66:85:8d:81:
                    b3:04:28:f4:3f:2f:ac:92:01:62:d5:fd:8e:0b:da:
                    02:0c:7a:c7:6e:09:1c:ac:1c:b2:4c:d7:54:b8:26:
                    33:b2:5f:14:f3:b1:f9:3d:62:4d:40:99:6b:b6:e7:
                    89:58:97:d6:d4:4d:ea:4b:68:52:f3:3c:a8:b1:35:
                    88:db
                Exponent: 65537 (0x10001)
        X509v3 extensions:
            X509v3 Subject Key Identifier: 
                A1:DF:33:C3:CF:3E:53:41:A7:68:44:CC:AA:19:E1:84:C9:0D:BC:C6
            X509v3 Authority Key Identifier: 
                keyid:B4:11:33:F1:D7:E2:5E:F7:53:9E:20:22:10:4F:86:06:BF:1F:C9:5E
                DirName:/C=AU/O=Dodgy Brothers/CN=Dodgy CA
                serial:4E:53:0D:DE:C4:67:FD:9A:AC:57:01:4D:8D:9A:54:BA:E2:A3:B6:4C
            X509v3 Basic Constraints: critical
                CA:TRUE, pathlen:1
            X509v3 Key Usage: 
                Certificate Sign, CRL Sign
            X509v3 Issuer Alternative Name: 
                <EMPTY>

    Signature Algorithm: sha1WithRSAEncryption
    Signature Value:
        05:ed:d3:96:bb:49:e6:50:1c:1e:bf:75:95:13:69:76:40:88:
        2e:c4:db:0c:b8:43:fc:a6:27:8c:23:15:f8:2c:f0:6d:ce:00:
        16:fe:8b:75:55:b2:aa:c1:01:15:06:67:f3:fe:90:78:32:ad:
        e5:23:18:95:32:bc:8b:87:c7:4d:54:b2:ac:cb:a7:1e:d1:9b:
        a8:5b:eb:b3:e2:34:20:b3:59:40:0b:e7:99:4c:28:7b:90:9f:
        5d:12:67:8d:6c:e2:5e:a9:de:19:b0:1e:2b:38:9a:6c:1d:62:
        d6:d5:e7:f2:4c:22:d7:e7:21:ba:8e:d3:92:8a:2a:92:2e:c5:
        45:e9:6f:00:a1:c7:21:1b:95:09:40:fd:4b:35:e0:75:2f:6d:
        d3:9c:13:71:33:03:7a:89:b6:2e:db:1b:85:97:86:e8:ee:a2:
        de:8d:32:86:b5:24:86:be:9b:5f:0a:2b:a7:88:17:ff:d1:72:
        2f:86:40:e2:ec:45:fb:ba:bf:b2:51:58:eb:54:3b:01:5f:1b:
        23:5d:06:cb:47:9a:86:a7:48:cf:6a:9a:e0:33:07:64:92:da:
        dd:a6:d5:78:37:9e:33:6a:2b:05:80:b6:8f:f5:87:f8:4e:d9:
        7e:f4:42:bb:89:58:eb:b8:92:37:eb:b3:6b:4e:2d:71:68:36:
        cd:e8:cd:ef
-----BEGIN CERTIFICATE-----
MIID6zCCAtOgAwIBAgIUSvR3tBnQc0VusRgKOknLSOH3VJ4wDQYJKoZIhvcNAQEF
BQAwOTELMAkGA1UEBhMCQVUxFzAVBgNVBAoMDkRvZGd5IEJyb3RoZXJzMREwDwYD
VQQDDAhEb2RneSBDQTAeFw0yNDA4MTkwNTQ0NDZaFw0yNTA4MTkwNTQ0NDZaMF8x
CzAJBgNVBAYTAkFVMRcwFQYDVQQKDA5Eb2RneSBCcm90aGVyczESMBAGA1UEAwwJ
QnJvdGhlciAxMSMwIQYDVQQDDBpuZXh0dXBkYXRlX2dlbmVyYWxpemVkdGltZTCC
ASIwDQYJKoZIhvcNAQEBBQADggEPADCCAQoCggEBAL6VhvpxTGrqUZhQS5mhLGYV
82Dz4f9p+85IAR3+4Sw4sOO9j0tIp346xnPjq7/h2m6W9f7D5LSorbxWNNSWJXQn
wxDbNRAlHI5LgZv7QgR8bz3iOGwO5C6OKhhtMM1nKiNrN88Fn8y3WVh/usQKP4yk
rcuYnMDyj2lnD8FOM8/8hV67Xs+TsM/Z9FJ5h7H4TRVoZdW3GQhjf16xNK0Fj1rw
5OGPJfJcXGGVsFYtMSsIZXnlsTudPrlSS6xdxFhmhY2BswQo9D8vrJIBYtX9jgva
Agx6x24JHKwcskzXVLgmM7JfFPOx+T1iTUCZa7bniViX1tRN6ktoUvM8qLE1iNsC
AwEAAaOBxDCBwTAdBgNVHQ4EFgQUod8zw88+U0GnaETMqhnhhMkNvMYwdAYDVR0j
BG0wa4AUtBEz8dfiXvdTniAiEE+GBr8fyV6hPaQ7MDkxCzAJBgNVBAYTAkFVMRcw
FQYDVQQKDA5Eb2RneSBCcm90aGVyczERMA8GA1UEAwwIRG9kZ3kgQ0GCFE5TDd7E
Z/2arFcBTY2aVLrio7ZMMBIGA1UdEwEB/wQIMAYBAf8CAQEwCwYDVR0PBAQDAgEG
MAkGA1UdEgQCMAAwDQYJKoZIhvcNAQEFBQADggEBAAXt05a7SeZQHB6/dZUTaXZA
iC7E2wy4Q/ymJ4wjFfgs8G3OABb+i3VVsqrBARUGZ/P+kHgyreUjGJUyvIuHx01U
sqzLpx7Rm6hb67PiNCCzWUAL55lMKHuQn10SZ41s4l6p3hmwHis4mmwdYtbV5/JM
ItfnIbqO05KKKpIuxUXpbwChxyEblQlA/Us14HUvbdOcE3EzA3qJti7bG4WXhuju
ot6NMoa1JIa+m18KK6eIF//Rci+GQOLsRfu6v7JRWOtUOwFfGyNdBstHmoanSM9q
muAzB2SS2t2m1Xg3njNqKwWAto/1h/hO2X70QruJWOu4kjfrs2tOLXFoNs3oze8=
-----END CERTIFICATE-----
