Certificate:
    Data:
        Version: 3 (0x2)
        Serial Number:
            4a:f4:77:b4:19:d0:73:45:6e:b1:18:0a:3a:49:cb:48:e1:f7:54:97
        Signature Algorithm: sha1WithRSAEncryption
        Issuer: C=AU, O=Dodgy Brothers, CN=Dodgy CA
        Validity
            Not Before: Aug 19 05:44:45 2024 GMT
            Not After : Aug 19 05:44:45 2025 GMT
        Subject: CN=x509-check-test
        Subject Public Key Info:
            Public Key Algorithm: rsaEncryption
                Public-Key: (2048 bit)
                Modulus:
                    00:9d:ea:3a:60:16:23:3f:65:6e:9d:08:99:44:23:
                    19:8a:93:ba:c7:ec:c4:4b:f7:7c:16:df:6a:39:76:
                    e4:f0:b5:3d:5c:b3:fc:be:ca:57:de:cb:49:79:b5:
                    80:73:18:cc:63:50:f3:5e:60:64:c1:aa:2b:b3:ea:
                    e7:95:c8:cb:db:7b:7c:32:99:73:e9:fb:3c:e8:6a:
                    ad:e2:7f:72:72:71:bf:b5:82:ea:d2:ca:24:29:17:
                    a4:f5:3c:b9:9f:24:38:10:41:3d:17:9c:8e:ea:47:
                    01:c8:e4:52:53:bc:a3:3d:9a:9b:f7:88:aa:21:06:
                    c7:93:fd:af:32:7d:d9:36:ef:31:58:ad:23:19:8d:
                    f6:aa:65:cf:b4:6b:5f:1b:1e:2f:d2:80:d3:77:e8:
                    b8:fe:be:73:dc:b3:60:f3:4b:cc:a6:04:9d:74:66:
                    ae:a2:73:2e:b1:2f:7d:2c:1c:32:8f:38:a2:ab:0f:
                    cf:84:27:ab:2e:52:6e:42:a4:b2:f8:37:a8:cf:3a:
                    69:3d:0e:3e:d7:42:fd:98:c2:85:f6:4b:46:2c:e9:
                    d1:69:1e:e1:81:27:53:67:80:15:bf:d1:99:bd:a2:
                    c7:83:3b:1c:6a:a6:53:c6:21:86:bc:9c:de:c1:22:
                    b4:f0:00:91:21:92:62:93:12:2f:4f:f0:03:c8:8b:
                    a0:d5
                Exponent: 65537 (0x10001)
        X509v3 extensions:
            X509v3 Subject Key Identifier: 
                BF:D8:68:6F:B9:F3:A1:9A:3C:92:2E:40:E7:F8:72:A8:92:89:37:7E
            X509v3 Authority Key Identifier: 
                B4:11:33:F1:D7:E2:5E:F7:53:9E:20:22:10:4F:86:06:BF:1F:C9:5E
    Signature Algorithm: sha1WithRSAEncryption
    Signature Value:
        55:16:46:c5:df:c6:b8:38:c6:99:59:b1:cc:c8:b9:b8:80:c4:
        6f:ef:28:d4:6a:5d:4a:d1:a5:e4:25:89:7c:69:d4:de:9d:1e:
        29:ec:8f:c6:ad:5a:c7:0f:43:9e:7d:34:71:0f:19:7f:02:23:
        67:7b:25:b3:16:3e:bd:77:bb:a2:f8:e7:1e:21:4a:88:8a:c5:
        a5:68:92:63:0c:15:fe:5e:7e:3f:27:6c:3d:d6:04:2b:c3:24:
        42:03:24:cf:65:5b:25:66:de:60:d6:af:87:7b:83:7c:bd:70:
        e8:01:73:73:72:8b:11:a4:c4:84:68:a0:f5:7b:ff:4e:4b:14:
        42:3f:b6:23:6d:ce:7e:33:31:30:33:39:f1:21:dd:0c:dc:b0:
        44:ab:fb:de:dc:59:31:8a:d1:2a:bc:79:67:2d:8b:a1:08:da:
        d3:de:56:ff:f5:a0:32:7a:86:69:97:3d:a8:8c:93:25:5b:29:
        68:b6:33:35:10:03:68:65:6e:af:18:71:46:38:2a:d7:7b:d8:
        5a:7e:36:de:9a:48:ec:76:75:4b:73:b2:f5:78:c4:f3:e9:b1:
        81:16:ca:dd:1a:e7:e4:98:e6:ff:3b:59:26:37:d6:bf:42:06:
        aa:8a:56:9b:40:3b:21:7c:9d:51:83:22:2e:eb:2e:ae:56:7e:
        25:6b:dc:98
-----BEGIN CERTIFICATE-----
MIIDIzCCAgugAwIBAgIUSvR3tBnQc0VusRgKOknLSOH3VJcwDQYJKoZIhvcNAQEF
BQAwOTELMAkGA1UEBhMCQVUxFzAVBgNVBAoMDkRvZGd5IEJyb3RoZXJzMREwDwYD
VQQDDAhEb2RneSBDQTAeFw0yNDA4MTkwNTQ0NDVaFw0yNTA4MTkwNTQ0NDVaMBox
GDAWBgNVBAMMD3g1MDktY2hlY2stdGVzdDCCASIwDQYJKoZIhvcNAQEBBQADggEP
ADCCAQoCggEBAJ3qOmAWIz9lbp0ImUQjGYqTusfsxEv3fBbfajl25PC1PVyz/L7K
V97LSXm1gHMYzGNQ815gZMGqK7Pq55XIy9t7fDKZc+n7POhqreJ/cnJxv7WC6tLK
JCkXpPU8uZ8kOBBBPRecjupHAcjkUlO8oz2am/eIqiEGx5P9rzJ92TbvMVitIxmN
9qplz7RrXxseL9KA03fouP6+c9yzYPNLzKYEnXRmrqJzLrEvfSwcMo84oqsPz4Qn
qy5SbkKksvg3qM86aT0OPtdC/ZjChfZLRizp0Wke4YEnU2eAFb/Rmb2ix4M7HGqm
U8Yhhryc3sEitPAAkSGSYpMSL0/wA8iLoNUCAwEAAaNCMEAwHQYDVR0OBBYEFL/Y
aG+586GaPJIuQOf4cqiSiTd+MB8GA1UdIwQYMBaAFLQRM/HX4l73U54gIhBPhga/
H8leMA0GCSqGSIb3DQEBBQUAA4IBAQBVFkbF38a4OMaZWbHMyLm4gMRv7yjUal1K
0aXkJYl8adTenR4p7I/GrVrHD0OefTRxDxl/AiNneyWzFj69d7ui+OceIUqIisWl
aJJjDBX+Xn4/J2w91gQrwyRCAyTPZVslZt5g1q+He4N8vXDoAXNzcosRpMSEaKD1
e/9OSxRCP7Yjbc5+MzEwMznxId0M3LBEq/ve3FkxitEqvHlnLYuhCNrT3lb/9aAy
eoZplz2ojJMlWylotjM1EANoZW6vGHFGOCrXe9hafjbemkjsdnVLc7L1eMTz6bGB
FsrdGufkmOb/O1kmN9a/QgaqilabQDshfJ1RgyIu6y6uVn4la9yY
-----END CERTIFICATE-----
