Certificate:
    Data:
        Version: 3 (0x2)
        Serial Number:
            4a:f4:77:b4:19:d0:73:45:6e:b1:18:0a:3a:49:cb:48:e1:f7:54:9d
        Signature Algorithm: sha1WithRSAEncryption
        Issuer: C=AU, O=Dodgy Brothers, CN=Dodgy CA
        Validity
            Not Before: Aug 19 05:44:46 2024 GMT
            Not After : Aug 19 05:44:46 2025 GMT
        Subject: C=AU, O=Dodgy Brothers, CN=Brother 1, CN=nextupdate_utctime
        Subject Public Key Info:
            Public Key Algorithm: rsaEncryption
                Public-Key: (2048 bit)
                Modulus:
                    00:be:95:86:fa:71:4c:6a:ea:51:98:50:4b:99:a1:
                    2c:66:15:f3:60:f3:e1:ff:69:fb:ce:48:01:1d:fe:
                    e1:2c:38:b0:e3:bd:8f:4b:48:a7:7e:3a:c6:73:e3:
                    ab:bf:e1:da:6e:96:f5:fe:c3:e4:b4:a8:ad:bc:56:
                    34:d4:96:25:74:27:c3:10:db:35:10:25:1c:8e:4b:
                    81:9b:fb:42:04:7c:6f:3d:e2:38:6c:0e:e4:2e:8e:
                    2a:18:6d:30:cd:67:2a:23:6b:37:cf:05:9f:cc:b7:
                    59:58:7f:ba:c4:0a:3f:8c:a4:ad:cb:98:9c:c0:f2:
                    8f:69:67:0f:c1:4e:33:cf:fc:85:5e:bb:5e:cf:93:
                    b0:cf:d9:f4:52:79:87:b1:f8:4d:15:68:65:d5:b7:
                    19:08:63:7f:5e:b1:34:ad:05:8f:5a:f0:e4:e1:8f:
                    25:f2:5c:5c:61:95:b0:56:2d:31:2b:08:65:79:e5:
                    b1:3b:9d:3e:b9:52:4b:ac:5d:c4:58:66:85:8d:81:
                    b3:04:28:f4:3f:2f:ac:92:01:62:d5:fd:8e:0b:da:
                    02:0c:7a:c7:6e:09:1c:ac:1c:b2:4c:d7:54:b8:26:
                    33:b2:5f:14:f3:b1:f9:3d:62:4d:40:99:6b:b6:e7:
                    89:58:97:d6:d4:4d:ea:4b:68:52:f3:3c:a8:b1:35:
                    88:db
                Exponent: 65537 (0x10001)
        X509v3 extensions:
            X509v3 Subject Key Identifier: 
                A1:DF:33:C3:CF:3E:53:41:A7:68:44:CC:AA:19:E1:84:C9:0D:BC:C6
            X509v3 Authority Key Identifier: 
                keyid:B4:11:33:F1:D7:E2:5E:F7:53:9E:20:22:10:4F:86:06:BF:1F:C9:5E
                DirName:/C=AU/O=Dodgy Brothers/CN=Dodgy CA
                serial:4E:53:0D:DE:C4:67:FD:9A:AC:57:01:4D:8D:9A:54:BA:E2:A3:B6:4C
            X509v3 Basic Constraints: critical
                CA:TRUE, pathlen:1
            X509v3 Key Usage: 
                Certificate Sign, CRL Sign
            X509v3 Issuer Alternative Name: 
                <EMPTY>

    Signature Algorithm: sha1WithRSAEncryption
    Signature Value:
        55:7d:25:9e:a3:da:da:8c:ac:27:94:36:b7:6c:4e:c7:88:2c:
        00:76:b5:9c:cb:e8:f2:75:b8:36:be:63:cb:d8:03:d3:60:02:
        30:e3:d6:1a:4d:83:98:a1:61:5c:a7:19:76:02:7e:60:3b:44:
        23:31:f0:4f:1f:b7:08:40:e8:86:f2:aa:ee:01:17:18:82:8a:
        54:72:03:e0:d3:13:48:b8:a5:a4:a4:9f:f4:a2:33:7e:75:8a:
        2c:a9:83:9e:ce:7b:fb:21:c0:92:b1:84:23:73:82:71:0a:04:
        ab:6e:74:60:db:17:84:cc:15:af:36:4b:65:d1:0a:b1:a2:36:
        5e:11:f3:f2:08:91:6c:0e:48:52:6a:6a:bb:7d:54:f3:9b:3d:
        d7:e2:cd:3e:19:5f:b8:07:c6:bf:d3:8a:25:9d:48:b1:71:0b:
        5a:b9:45:49:a2:cd:8d:c3:15:91:15:3e:28:0a:5d:d5:63:1c:
        31:ba:52:44:79:c8:4b:89:fa:e2:a0:64:d0:83:34:15:c2:a2:
        f3:38:ba:cc:a6:38:60:e2:29:81:36:4b:f7:05:34:74:bc:72:
        be:1d:0a:35:d3:4f:fb:51:07:4d:12:2d:c2:2f:e9:5c:50:1c:
        f7:87:87:0c:93:c3:24:21:e8:31:79:2e:d9:03:c6:e1:3a:15:
        e5:3e:ba:25
-----BEGIN CERTIFICATE-----
MIID4zCCAsugAwIBAgIUSvR3tBnQc0VusRgKOknLSOH3VJ0wDQYJKoZIhvcNAQEF
BQAwOTELMAkGA1UEBhMCQVUxFzAVBgNVBAoMDkRvZGd5IEJyb3RoZXJzMREwDwYD
VQQDDAhEb2RneSBDQTAeFw0yNDA4MTkwNTQ0NDZaFw0yNTA4MTkwNTQ0NDZaMFcx
CzAJBgNVBAYTAkFVMRcwFQYDVQQKDA5Eb2RneSBCcm90aGVyczESMBAGA1UEAwwJ
QnJvdGhlciAxMRswGQYDVQQDDBJuZXh0dXBkYXRlX3V0Y3RpbWUwggEiMA0GCSqG
SIb3DQEBAQUAA4IBDwAwggEKAoIBAQC+lYb6cUxq6lGYUEuZoSxmFfNg8+H/afvO
SAEd/uEsOLDjvY9LSKd+OsZz46u/4dpulvX+w+S0qK28VjTUliV0J8MQ2zUQJRyO
S4Gb+0IEfG894jhsDuQujioYbTDNZyojazfPBZ/Mt1lYf7rECj+MpK3LmJzA8o9p
Zw/BTjPP/IVeu17Pk7DP2fRSeYex+E0VaGXVtxkIY39esTStBY9a8OThjyXyXFxh
lbBWLTErCGV55bE7nT65UkusXcRYZoWNgbMEKPQ/L6ySAWLV/Y4L2gIMesduCRys
HLJM11S4JjOyXxTzsfk9Yk1AmWu254lYl9bUTepLaFLzPKixNYjbAgMBAAGjgcQw
gcEwHQYDVR0OBBYEFKHfM8PPPlNBp2hEzKoZ4YTJDbzGMHQGA1UdIwRtMGuAFLQR
M/HX4l73U54gIhBPhga/H8leoT2kOzA5MQswCQYDVQQGEwJBVTEXMBUGA1UECgwO
RG9kZ3kgQnJvdGhlcnMxETAPBgNVBAMMCERvZGd5IENBghROUw3exGf9mqxXAU2N
mlS64qO2TDASBgNVHRMBAf8ECDAGAQH/AgEBMAsGA1UdDwQEAwIBBjAJBgNVHRIE
AjAAMA0GCSqGSIb3DQEBBQUAA4IBAQBVfSWeo9rajKwnlDa3bE7HiCwAdrWcy+jy
dbg2vmPL2APTYAIw49YaTYOYoWFcpxl2An5gO0QjMfBPH7cIQOiG8qruARcYgopU
cgPg0xNIuKWkpJ/0ojN+dYosqYOeznv7IcCSsYQjc4JxCgSrbnRg2xeEzBWvNktl
0QqxojZeEfPyCJFsDkhSamq7fVTzmz3X4s0+GV+4B8a/04olnUixcQtauUVJos2N
wxWRFT4oCl3VYxwxulJEechLifrioGTQgzQVwqLzOLrMpjhg4imBNkv3BTR0vHK+
HQo100/7UQdNEi3CL+lcUBz3h4cMk8MkIegxeS7ZA8bhOhXlProl
-----END CERTIFICATE-----
