Certificate:
    Data:
        Version: 3 (0x2)
        Serial Number:
            4a:f4:77:b4:19:d0:73:45:6e:b1:18:0a:3a:49:cb:48:e1:f7:54:99
        Signature Algorithm: sha1WithRSAEncryption
        Issuer: C=AU, O=Dodgy Brothers, CN=Dodgy CA
        Validity
            Not Before: Aug 19 05:44:45 2024 GMT
            Not After : Aug 19 05:44:45 2025 GMT
        Subject: C=AU, O=Dodgy Brothers, CN=Brother 1, CN=lastupdate_invalid
        Subject Public Key Info:
            Public Key Algorithm: rsaEncryption
                Public-Key: (2048 bit)
                Modulus:
                    00:be:95:86:fa:71:4c:6a:ea:51:98:50:4b:99:a1:
                    2c:66:15:f3:60:f3:e1:ff:69:fb:ce:48:01:1d:fe:
                    e1:2c:38:b0:e3:bd:8f:4b:48:a7:7e:3a:c6:73:e3:
                    ab:bf:e1:da:6e:96:f5:fe:c3:e4:b4:a8:ad:bc:56:
                    34:d4:96:25:74:27:c3:10:db:35:10:25:1c:8e:4b:
                    81:9b:fb:42:04:7c:6f:3d:e2:38:6c:0e:e4:2e:8e:
                    2a:18:6d:30:cd:67:2a:23:6b:37:cf:05:9f:cc:b7:
                    59:58:7f:ba:c4:0a:3f:8c:a4:ad:cb:98:9c:c0:f2:
                    8f:69:67:0f:c1:4e:33:cf:fc:85:5e:bb:5e:cf:93:
                    b0:cf:d9:f4:52:79:87:b1:f8:4d:15:68:65:d5:b7:
                    19:08:63:7f:5e:b1:34:ad:05:8f:5a:f0:e4:e1:8f:
                    25:f2:5c:5c:61:95:b0:56:2d:31:2b:08:65:79:e5:
                    b1:3b:9d:3e:b9:52:4b:ac:5d:c4:58:66:85:8d:81:
                    b3:04:28:f4:3f:2f:ac:92:01:62:d5:fd:8e:0b:da:
                    02:0c:7a:c7:6e:09:1c:ac:1c:b2:4c:d7:54:b8:26:
                    33:b2:5f:14:f3:b1:f9:3d:62:4d:40:99:6b:b6:e7:
                    89:58:97:d6:d4:4d:ea:4b:68:52:f3:3c:a8:b1:35:
                    88:db
                Exponent: 65537 (0x10001)
        X509v3 extensions:
            X509v3 Subject Key Identifier: 
                A1:DF:33:C3:CF:3E:53:41:A7:68:44:CC:AA:19:E1:84:C9:0D:BC:C6
            X509v3 Authority Key Identifier: 
                keyid:B4:11:33:F1:D7:E2:5E:F7:53:9E:20:22:10:4F:86:06:BF:1F:C9:5E
                DirName:/C=AU/O=Dodgy Brothers/CN=Dodgy CA
                serial:4E:53:0D:DE:C4:67:FD:9A:AC:57:01:4D:8D:9A:54:BA:E2:A3:B6:4C
            X509v3 Basic Constraints: critical
                CA:TRUE, pathlen:1
            X509v3 Key Usage: 
                Certificate Sign, CRL Sign
            X509v3 Issuer Alternative Name: 
                <EMPTY>

    Signature Algorithm: sha1WithRSAEncryption
    Signature Value:
        2b:dd:b9:05:5d:d1:04:8e:f0:26:a0:14:47:db:72:e3:52:3a:
        85:65:92:d8:e0:a5:a7:e5:32:96:e5:31:bd:e7:70:a6:e1:2c:
        9e:27:6a:6f:df:4f:ae:f5:90:d6:14:47:fd:50:4a:63:64:d6:
        62:6b:b9:c4:75:74:3f:68:f1:4a:c7:15:f2:92:bd:9d:16:f1:
        c0:64:c0:57:00:bc:9f:7c:d3:5e:12:b0:87:33:8f:4a:bc:ef:
        6d:c3:28:6d:55:47:4a:b3:18:c1:c8:85:27:f3:13:95:92:d2:
        68:e4:7a:a1:e3:a1:5f:32:17:07:dd:49:4e:00:70:0d:92:5f:
        71:fc:33:c1:c2:cf:57:e9:c3:6b:0f:02:ec:48:c6:06:8c:be:
        27:e8:e3:ad:1b:9a:a0:02:09:74:c2:9e:dd:09:bf:da:72:10:
        87:d0:19:cd:65:cd:a9:10:3e:df:e8:6a:07:d1:16:70:c4:07:
        b6:0a:07:7c:1a:b6:25:d1:ea:1f:3b:98:8d:e1:42:19:0d:a3:
        56:01:e8:0e:6a:d9:62:e4:df:14:6b:ae:e5:67:4c:97:f3:21:
        c4:60:4f:1d:d4:5f:95:ec:9d:cc:af:f6:cd:04:04:a5:42:9d:
        13:e7:d5:65:ea:dc:8d:7b:ca:37:90:f1:b5:77:c8:d4:0c:fb:
        01:e4:4f:0a
-----BEGIN CERTIFICATE-----
MIID4zCCAsugAwIBAgIUSvR3tBnQc0VusRgKOknLSOH3VJkwDQYJKoZIhvcNAQEF
BQAwOTELMAkGA1UEBhMCQVUxFzAVBgNVBAoMDkRvZGd5IEJyb3RoZXJzMREwDwYD
VQQDDAhEb2RneSBDQTAeFw0yNDA4MTkwNTQ0NDVaFw0yNTA4MTkwNTQ0NDVaMFcx
CzAJBgNVBAYTAkFVMRcwFQYDVQQKDA5Eb2RneSBCcm90aGVyczESMBAGA1UEAwwJ
QnJvdGhlciAxMRswGQYDVQQDDBJsYXN0dXBkYXRlX2ludmFsaWQwggEiMA0GCSqG
SIb3DQEBAQUAA4IBDwAwggEKAoIBAQC+lYb6cUxq6lGYUEuZoSxmFfNg8+H/afvO
SAEd/uEsOLDjvY9LSKd+OsZz46u/4dpulvX+w+S0qK28VjTUliV0J8MQ2zUQJRyO
S4Gb+0IEfG894jhsDuQujioYbTDNZyojazfPBZ/Mt1lYf7rECj+MpK3LmJzA8o9p
Zw/BTjPP/IVeu17Pk7DP2fRSeYex+E0VaGXVtxkIY39esTStBY9a8OThjyXyXFxh
lbBWLTErCGV55bE7nT65UkusXcRYZoWNgbMEKPQ/L6ySAWLV/Y4L2gIMesduCRys
HLJM11S4JjOyXxTzsfk9Yk1AmWu254lYl9bUTepLaFLzPKixNYjbAgMBAAGjgcQw
gcEwHQYDVR0OBBYEFKHfM8PPPlNBp2hEzKoZ4YTJDbzGMHQGA1UdIwRtMGuAFLQR
M/HX4l73U54gIhBPhga/H8leoT2kOzA5MQswCQYDVQQGEwJBVTEXMBUGA1UECgwO
RG9kZ3kgQnJvdGhlcnMxETAPBgNVBAMMCERvZGd5IENBghROUw3exGf9mqxXAU2N
mlS64qO2TDASBgNVHRMBAf8ECDAGAQH/AgEBMAsGA1UdDwQEAwIBBjAJBgNVHRIE
AjAAMA0GCSqGSIb3DQEBBQUAA4IBAQAr3bkFXdEEjvAmoBRH23LjUjqFZZLY4KWn
5TKW5TG953Cm4SyeJ2pv30+u9ZDWFEf9UEpjZNZia7nEdXQ/aPFKxxXykr2dFvHA
ZMBXALyffNNeErCHM49KvO9twyhtVUdKsxjByIUn8xOVktJo5Hqh46FfMhcH3UlO
AHANkl9x/DPBws9X6cNrDwLsSMYGjL4n6OOtG5qgAgl0wp7dCb/achCH0BnNZc2p
ED7f6GoH0RZwxAe2Cgd8GrYl0eofO5iN4UIZDaNWAegOatli5N8Ua67lZ0yX8yHE
YE8d1F+V7J3Mr/bNBASlQp0T59Vl6tyNe8o3kPG1d8jUDPsB5E8K
-----END CERTIFICATE-----
