Certificate:
    Data:
        Version: 3 (0x2)
        Serial Number:
            4a:f4:77:b4:19:d0:73:45:6e:b1:18:0a:3a:49:cb:48:e1:f7:54:a0
        Signature Algorithm: sha1WithRSAEncryption
        Issuer: C=AU, O=Dodgy Brothers, CN=Dodgy CA
        Validity
            Not Before: Aug 19 05:44:46 2024 GMT
            Not After : Aug 19 05:44:46 2025 GMT
        Subject: C=AU, O=Dodgy Brothers, CN=Brother 1, CN=both_generalizedtime
        Subject Public Key Info:
            Public Key Algorithm: rsaEncryption
                Public-Key: (2048 bit)
                Modulus:
                    00:be:95:86:fa:71:4c:6a:ea:51:98:50:4b:99:a1:
                    2c:66:15:f3:60:f3:e1:ff:69:fb:ce:48:01:1d:fe:
                    e1:2c:38:b0:e3:bd:8f:4b:48:a7:7e:3a:c6:73:e3:
                    ab:bf:e1:da:6e:96:f5:fe:c3:e4:b4:a8:ad:bc:56:
                    34:d4:96:25:74:27:c3:10:db:35:10:25:1c:8e:4b:
                    81:9b:fb:42:04:7c:6f:3d:e2:38:6c:0e:e4:2e:8e:
                    2a:18:6d:30:cd:67:2a:23:6b:37:cf:05:9f:cc:b7:
                    59:58:7f:ba:c4:0a:3f:8c:a4:ad:cb:98:9c:c0:f2:
                    8f:69:67:0f:c1:4e:33:cf:fc:85:5e:bb:5e:cf:93:
                    b0:cf:d9:f4:52:79:87:b1:f8:4d:15:68:65:d5:b7:
                    19:08:63:7f:5e:b1:34:ad:05:8f:5a:f0:e4:e1:8f:
                    25:f2:5c:5c:61:95:b0:56:2d:31:2b:08:65:79:e5:
                    b1:3b:9d:3e:b9:52:4b:ac:5d:c4:58:66:85:8d:81:
                    b3:04:28:f4:3f:2f:ac:92:01:62:d5:fd:8e:0b:da:
                    02:0c:7a:c7:6e:09:1c:ac:1c:b2:4c:d7:54:b8:26:
                    33:b2:5f:14:f3:b1:f9:3d:62:4d:40:99:6b:b6:e7:
                    89:58:97:d6:d4:4d:ea:4b:68:52:f3:3c:a8:b1:35:
                    88:db
                Exponent: 65537 (0x10001)
        X509v3 extensions:
            X509v3 Subject Key Identifier: 
                A1:DF:33:C3:CF:3E:53:41:A7:68:44:CC:AA:19:E1:84:C9:0D:BC:C6
            X509v3 Authority Key Identifier: 
                keyid:B4:11:33:F1:D7:E2:5E:F7:53:9E:20:22:10:4F:86:06:BF:1F:C9:5E
                DirName:/C=AU/O=Dodgy Brothers/CN=Dodgy CA
                serial:4E:53:0D:DE:C4:67:FD:9A:AC:57:01:4D:8D:9A:54:BA:E2:A3:B6:4C
            X509v3 Basic Constraints: critical
                CA:TRUE, pathlen:1
            X509v3 Key Usage: 
                Certificate Sign, CRL Sign
            X509v3 Issuer Alternative Name: 
                <EMPTY>

    Signature Algorithm: sha1WithRSAEncryption
    Signature Value:
        4d:47:da:0e:56:bf:36:55:70:b3:64:85:dd:6d:73:9c:ce:53:
        af:40:1a:17:4d:be:ef:28:9f:5f:76:ab:06:f2:d0:18:b1:db:
        63:5d:42:85:0b:60:8c:d8:10:e6:a6:19:b4:e9:54:ef:07:2f:
        b7:1e:3f:e1:57:f6:e1:00:4c:e2:4e:30:6d:53:c4:a1:6d:52:
        e4:cf:a1:ef:28:a9:e3:87:60:f5:cb:a1:66:54:d5:b5:0b:ec:
        7a:18:fe:ae:70:32:ac:dc:f4:ed:8f:cb:2e:cd:81:87:b6:79:
        34:a1:d0:5e:a9:49:2d:e6:02:60:f7:35:70:22:58:71:d7:96:
        73:96:11:ae:7a:58:e0:1e:f7:9c:bb:7a:b3:20:93:58:4e:b3:
        66:b5:ae:c0:e3:02:40:a3:2c:fe:3c:da:3f:6d:78:f6:f9:9a:
        9e:b5:a5:a7:45:c7:fb:80:e6:80:78:4c:70:dc:bd:50:2a:4e:
        32:ad:b7:93:b8:6f:59:75:32:fc:90:5f:34:15:d7:5e:0e:9a:
        5b:37:27:18:cb:67:e1:49:55:db:ec:bc:bd:9c:ba:3a:b1:2f:
        0f:dc:64:ec:bf:ba:d7:c9:7e:b7:cb:1e:ff:f2:07:9c:25:69:
        c0:fd:d4:83:ab:e3:11:d2:34:de:f4:8e:cc:67:f7:cf:a1:d7:
        8f:f1:41:a7
-----BEGIN CERTIFICATE-----
MIID5TCCAs2gAwIBAgIUSvR3tBnQc0VusRgKOknLSOH3VKAwDQYJKoZIhvcNAQEF
BQAwOTELMAkGA1UEBhMCQVUxFzAVBgNVBAoMDkRvZGd5IEJyb3RoZXJzMREwDwYD
VQQDDAhEb2RneSBDQTAeFw0yNDA4MTkwNTQ0NDZaFw0yNTA4MTkwNTQ0NDZaMFkx
CzAJBgNVBAYTAkFVMRcwFQYDVQQKDA5Eb2RneSBCcm90aGVyczESMBAGA1UEAwwJ
QnJvdGhlciAxMR0wGwYDVQQDDBRib3RoX2dlbmVyYWxpemVkdGltZTCCASIwDQYJ
KoZIhvcNAQEBBQADggEPADCCAQoCggEBAL6VhvpxTGrqUZhQS5mhLGYV82Dz4f9p
+85IAR3+4Sw4sOO9j0tIp346xnPjq7/h2m6W9f7D5LSorbxWNNSWJXQnwxDbNRAl
HI5LgZv7QgR8bz3iOGwO5C6OKhhtMM1nKiNrN88Fn8y3WVh/usQKP4ykrcuYnMDy
j2lnD8FOM8/8hV67Xs+TsM/Z9FJ5h7H4TRVoZdW3GQhjf16xNK0Fj1rw5OGPJfJc
XGGVsFYtMSsIZXnlsTudPrlSS6xdxFhmhY2BswQo9D8vrJIBYtX9jgvaAgx6x24J
HKwcskzXVLgmM7JfFPOx+T1iTUCZa7bniViX1tRN6ktoUvM8qLE1iNsCAwEAAaOB
xDCBwTAdBgNVHQ4EFgQUod8zw88+U0GnaETMqhnhhMkNvMYwdAYDVR0jBG0wa4AU
tBEz8dfiXvdTniAiEE+GBr8fyV6hPaQ7MDkxCzAJBgNVBAYTAkFVMRcwFQYDVQQK
DA5Eb2RneSBCcm90aGVyczERMA8GA1UEAwwIRG9kZ3kgQ0GCFE5TDd7EZ/2arFcB
TY2aVLrio7ZMMBIGA1UdEwEB/wQIMAYBAf8CAQEwCwYDVR0PBAQDAgEGMAkGA1Ud
EgQCMAAwDQYJKoZIhvcNAQEFBQADggEBAE1H2g5WvzZVcLNkhd1tc5zOU69AGhdN
vu8on192qwby0Bix22NdQoULYIzYEOamGbTpVO8HL7ceP+FX9uEATOJOMG1TxKFt
UuTPoe8oqeOHYPXLoWZU1bUL7HoY/q5wMqzc9O2Pyy7NgYe2eTSh0F6pSS3mAmD3
NXAiWHHXlnOWEa56WOAe95y7erMgk1hOs2a1rsDjAkCjLP482j9tePb5mp61padF
x/uA5oB4THDcvVAqTjKtt5O4b1l1MvyQXzQV114Omls3JxjLZ+FJVdvsvL2cujqx
Lw/cZOy/utfJfrfLHv/yB5wlacD91IOr4xHSNN70jsxn98+h14/xQac=
-----END CERTIFICATE-----
