Certificate:
    Data:
        Version: 3 (0x2)
        Serial Number:
            4a:f4:77:b4:19:d0:73:45:6e:b1:18:0a:3a:49:cb:48:e1:f7:54:9a
        Signature Algorithm: sha1WithRSAEncryption
        Issuer: C=AU, O=Dodgy Brothers, CN=Dodgy CA
        Validity
            Not Before: Aug 19 05:44:45 2024 GMT
            Not After : Aug 19 05:44:45 2025 GMT
        Subject: C=AU, O=Dodgy Brothers, CN=Brother 1, CN=lastupdate_utctime
        Subject Public Key Info:
            Public Key Algorithm: rsaEncryption
                Public-Key: (2048 bit)
                Modulus:
                    00:be:95:86:fa:71:4c:6a:ea:51:98:50:4b:99:a1:
                    2c:66:15:f3:60:f3:e1:ff:69:fb:ce:48:01:1d:fe:
                    e1:2c:38:b0:e3:bd:8f:4b:48:a7:7e:3a:c6:73:e3:
                    ab:bf:e1:da:6e:96:f5:fe:c3:e4:b4:a8:ad:bc:56:
                    34:d4:96:25:74:27:c3:10:db:35:10:25:1c:8e:4b:
                    81:9b:fb:42:04:7c:6f:3d:e2:38:6c:0e:e4:2e:8e:
                    2a:18:6d:30:cd:67:2a:23:6b:37:cf:05:9f:cc:b7:
                    59:58:7f:ba:c4:0a:3f:8c:a4:ad:cb:98:9c:c0:f2:
                    8f:69:67:0f:c1:4e:33:cf:fc:85:5e:bb:5e:cf:93:
                    b0:cf:d9:f4:52:79:87:b1:f8:4d:15:68:65:d5:b7:
                    19:08:63:7f:5e:b1:34:ad:05:8f:5a:f0:e4:e1:8f:
                    25:f2:5c:5c:61:95:b0:56:2d:31:2b:08:65:79:e5:
                    b1:3b:9d:3e:b9:52:4b:ac:5d:c4:58:66:85:8d:81:
                    b3:04:28:f4:3f:2f:ac:92:01:62:d5:fd:8e:0b:da:
                    02:0c:7a:c7:6e:09:1c:ac:1c:b2:4c:d7:54:b8:26:
                    33:b2:5f:14:f3:b1:f9:3d:62:4d:40:99:6b:b6:e7:
                    89:58:97:d6:d4:4d:ea:4b:68:52:f3:3c:a8:b1:35:
                    88:db
                Exponent: 65537 (0x10001)
        X509v3 extensions:
            X509v3 Subject Key Identifier: 
                A1:DF:33:C3:CF:3E:53:41:A7:68:44:CC:AA:19:E1:84:C9:0D:BC:C6
            X509v3 Authority Key Identifier: 
                keyid:B4:11:33:F1:D7:E2:5E:F7:53:9E:20:22:10:4F:86:06:BF:1F:C9:5E
                DirName:/C=AU/O=Dodgy Brothers/CN=Dodgy CA
                serial:4E:53:0D:DE:C4:67:FD:9A:AC:57:01:4D:8D:9A:54:BA:E2:A3:B6:4C
            X509v3 Basic Constraints: critical
                CA:TRUE, pathlen:1
            X509v3 Key Usage: 
                Certificate Sign, CRL Sign
            X509v3 Issuer Alternative Name: 
                <EMPTY>

    Signature Algorithm: sha1WithRSAEncryption
    Signature Value:
        45:54:bb:f2:e6:0f:94:57:b8:59:78:ea:2c:6d:4c:e2:e6:cc:
        ba:1b:08:37:7c:1e:38:32:d0:d2:33:41:e7:05:c1:78:02:78:
        64:b0:dc:24:a7:7e:e2:22:bb:d3:90:71:95:9e:de:c1:d1:0e:
        8d:b1:43:c3:90:82:3c:8c:52:90:cd:44:aa:0f:c2:69:0e:47:
        0a:3e:6f:3a:a3:32:aa:18:2a:73:31:b7:ba:a9:c2:bf:eb:1d:
        c1:3b:d3:19:3e:c4:e4:3b:88:45:bc:7b:40:b9:b6:18:fe:58:
        4f:63:cc:9d:31:6d:3c:56:42:7f:74:ad:24:b1:c1:30:d8:42:
        5d:97:83:62:72:04:82:cc:0a:af:5c:9a:a1:69:99:3a:87:b9:
        f0:ca:b7:af:97:ea:4d:cd:e4:ee:10:f9:c6:b6:4e:f9:81:78:
        29:e7:dc:06:a9:6d:11:28:32:a1:11:fa:23:c9:d1:6d:36:01:
        4f:98:fa:ca:b0:ee:50:dd:31:57:a1:af:d3:72:30:c6:9a:19:
        31:9d:b7:4c:a6:9a:19:32:8c:8f:f6:3f:5e:45:58:82:fb:34:
        23:9b:c3:f7:d5:29:30:d5:b9:4e:de:06:43:c2:e2:50:d8:41:
        71:ee:bc:e3:39:ab:90:7c:51:d7:57:4f:e0:f0:f8:a2:ca:50:
        bb:70:ed:51
-----BEGIN CERTIFICATE-----
MIID4zCCAsugAwIBAgIUSvR3tBnQc0VusRgKOknLSOH3VJowDQYJKoZIhvcNAQEF
BQAwOTELMAkGA1UEBhMCQVUxFzAVBgNVBAoMDkRvZGd5IEJyb3RoZXJzMREwDwYD
VQQDDAhEb2RneSBDQTAeFw0yNDA4MTkwNTQ0NDVaFw0yNTA4MTkwNTQ0NDVaMFcx
CzAJBgNVBAYTAkFVMRcwFQYDVQQKDA5Eb2RneSBCcm90aGVyczESMBAGA1UEAwwJ
QnJvdGhlciAxMRswGQYDVQQDDBJsYXN0dXBkYXRlX3V0Y3RpbWUwggEiMA0GCSqG
SIb3DQEBAQUAA4IBDwAwggEKAoIBAQC+lYb6cUxq6lGYUEuZoSxmFfNg8+H/afvO
SAEd/uEsOLDjvY9LSKd+OsZz46u/4dpulvX+w+S0qK28VjTUliV0J8MQ2zUQJRyO
S4Gb+0IEfG894jhsDuQujioYbTDNZyojazfPBZ/Mt1lYf7rECj+MpK3LmJzA8o9p
Zw/BTjPP/IVeu17Pk7DP2fRSeYex+E0VaGXVtxkIY39esTStBY9a8OThjyXyXFxh
lbBWLTErCGV55bE7nT65UkusXcRYZoWNgbMEKPQ/L6ySAWLV/Y4L2gIMesduCRys
HLJM11S4JjOyXxTzsfk9Yk1AmWu254lYl9bUTepLaFLzPKixNYjbAgMBAAGjgcQw
gcEwHQYDVR0OBBYEFKHfM8PPPlNBp2hEzKoZ4YTJDbzGMHQGA1UdIwRtMGuAFLQR
M/HX4l73U54gIhBPhga/H8leoT2kOzA5MQswCQYDVQQGEwJBVTEXMBUGA1UECgwO
RG9kZ3kgQnJvdGhlcnMxETAPBgNVBAMMCERvZGd5IENBghROUw3exGf9mqxXAU2N
mlS64qO2TDASBgNVHRMBAf8ECDAGAQH/AgEBMAsGA1UdDwQEAwIBBjAJBgNVHRIE
AjAAMA0GCSqGSIb3DQEBBQUAA4IBAQBFVLvy5g+UV7hZeOosbUzi5sy6Gwg3fB44
MtDSM0HnBcF4AnhksNwkp37iIrvTkHGVnt7B0Q6NsUPDkII8jFKQzUSqD8JpDkcK
Pm86ozKqGCpzMbe6qcK/6x3BO9MZPsTkO4hFvHtAubYY/lhPY8ydMW08VkJ/dK0k
scEw2EJdl4NicgSCzAqvXJqhaZk6h7nwyrevl+pNzeTuEPnGtk75gXgp59wGqW0R
KDKhEfojydFtNgFPmPrKsO5Q3TFXoa/TcjDGmhkxnbdMppoZMoyP9j9eRViC+zQj
m8P31Skw1blO3gZDwuJQ2EFx7rzjOauQfFHXV0/g8PiiylC7cO1R
-----END CERTIFICATE-----
