Certificate:
    Data:
        Version: 3 (0x2)
        Serial Number:
            4a:f4:77:b4:19:d0:73:45:6e:b1:18:0a:3a:49:cb:48:e1:f7:54:9f
        Signature Algorithm: sha1WithRSAEncryption
        Issuer: C=AU, O=Dodgy Brothers, CN=Dodgy CA
        Validity
            Not Before: Aug 19 05:44:46 2024 GMT
            Not After : Aug 19 05:44:46 2025 GMT
        Subject: C=AU, O=Dodgy Brothers, CN=Brother 1, CN=both_utctime
        Subject Public Key Info:
            Public Key Algorithm: rsaEncryption
                Public-Key: (2048 bit)
                Modulus:
                    00:be:95:86:fa:71:4c:6a:ea:51:98:50:4b:99:a1:
                    2c:66:15:f3:60:f3:e1:ff:69:fb:ce:48:01:1d:fe:
                    e1:2c:38:b0:e3:bd:8f:4b:48:a7:7e:3a:c6:73:e3:
                    ab:bf:e1:da:6e:96:f5:fe:c3:e4:b4:a8:ad:bc:56:
                    34:d4:96:25:74:27:c3:10:db:35:10:25:1c:8e:4b:
                    81:9b:fb:42:04:7c:6f:3d:e2:38:6c:0e:e4:2e:8e:
                    2a:18:6d:30:cd:67:2a:23:6b:37:cf:05:9f:cc:b7:
                    59:58:7f:ba:c4:0a:3f:8c:a4:ad:cb:98:9c:c0:f2:
                    8f:69:67:0f:c1:4e:33:cf:fc:85:5e:bb:5e:cf:93:
                    b0:cf:d9:f4:52:79:87:b1:f8:4d:15:68:65:d5:b7:
                    19:08:63:7f:5e:b1:34:ad:05:8f:5a:f0:e4:e1:8f:
                    25:f2:5c:5c:61:95:b0:56:2d:31:2b:08:65:79:e5:
                    b1:3b:9d:3e:b9:52:4b:ac:5d:c4:58:66:85:8d:81:
                    b3:04:28:f4:3f:2f:ac:92:01:62:d5:fd:8e:0b:da:
                    02:0c:7a:c7:6e:09:1c:ac:1c:b2:4c:d7:54:b8:26:
                    33:b2:5f:14:f3:b1:f9:3d:62:4d:40:99:6b:b6:e7:
                    89:58:97:d6:d4:4d:ea:4b:68:52:f3:3c:a8:b1:35:
                    88:db
                Exponent: 65537 (0x10001)
        X509v3 extensions:
            X509v3 Subject Key Identifier: 
                A1:DF:33:C3:CF:3E:53:41:A7:68:44:CC:AA:19:E1:84:C9:0D:BC:C6
            X509v3 Authority Key Identifier: 
                keyid:B4:11:33:F1:D7:E2:5E:F7:53:9E:20:22:10:4F:86:06:BF:1F:C9:5E
                DirName:/C=AU/O=Dodgy Brothers/CN=Dodgy CA
                serial:4E:53:0D:DE:C4:67:FD:9A:AC:57:01:4D:8D:9A:54:BA:E2:A3:B6:4C
            X509v3 Basic Constraints: critical
                CA:TRUE, pathlen:1
            X509v3 Key Usage: 
                Certificate Sign, CRL Sign
            X509v3 Issuer Alternative Name: 
                <EMPTY>

    Signature Algorithm: sha1WithRSAEncryption
    Signature Value:
        82:d5:ef:93:f6:7f:83:9d:3a:1b:35:6b:27:29:6e:5a:13:97:
        7e:4b:af:d5:3b:24:7d:c7:56:6e:33:ca:88:e3:8c:3b:e2:1e:
        31:38:af:1b:ae:8d:23:7a:e3:12:51:ea:07:27:58:47:20:37:
        d1:a6:19:d4:13:8b:b2:91:5b:a3:78:61:16:58:b7:ef:c1:f1:
        59:d1:90:cd:08:a0:df:e9:4f:7a:71:d8:38:01:0d:af:8d:4d:
        1e:ce:61:2f:30:2d:29:06:8d:9a:f0:c2:65:f4:ae:27:89:f5:
        fd:f6:c4:f2:e3:e1:f3:14:95:fb:a8:33:17:8c:3f:1e:d7:b8:
        17:48:41:8f:9e:54:15:3e:ab:f8:b4:6b:7b:ba:5e:e6:38:14:
        17:12:6f:b3:69:43:dd:12:86:d8:83:22:e3:07:f4:96:a4:17:
        e1:2c:11:57:2a:10:23:5b:08:89:0f:f4:32:f4:68:c6:75:a9:
        d9:2e:22:b7:15:72:dc:0f:cb:cd:87:99:12:34:f1:12:59:4e:
        d4:79:3b:d6:54:4c:20:7c:6b:9f:64:c2:c8:14:78:b4:97:83:
        54:ad:e8:cb:96:7d:a5:ad:40:af:e3:3c:d8:f7:2e:3c:30:7f:
        fe:9a:5b:c2:85:d4:9e:55:44:ba:63:2d:9b:37:d1:e6:8e:da:
        c2:cf:e8:7a
-----BEGIN CERTIFICATE-----
MIID3TCCAsWgAwIBAgIUSvR3tBnQc0VusRgKOknLSOH3VJ8wDQYJKoZIhvcNAQEF
BQAwOTELMAkGA1UEBhMCQVUxFzAVBgNVBAoMDkRvZGd5IEJyb3RoZXJzMREwDwYD
VQQDDAhEb2RneSBDQTAeFw0yNDA4MTkwNTQ0NDZaFw0yNTA4MTkwNTQ0NDZaMFEx
CzAJBgNVBAYTAkFVMRcwFQYDVQQKDA5Eb2RneSBCcm90aGVyczESMBAGA1UEAwwJ
QnJvdGhlciAxMRUwEwYDVQQDDAxib3RoX3V0Y3RpbWUwggEiMA0GCSqGSIb3DQEB
AQUAA4IBDwAwggEKAoIBAQC+lYb6cUxq6lGYUEuZoSxmFfNg8+H/afvOSAEd/uEs
OLDjvY9LSKd+OsZz46u/4dpulvX+w+S0qK28VjTUliV0J8MQ2zUQJRyOS4Gb+0IE
fG894jhsDuQujioYbTDNZyojazfPBZ/Mt1lYf7rECj+MpK3LmJzA8o9pZw/BTjPP
/IVeu17Pk7DP2fRSeYex+E0VaGXVtxkIY39esTStBY9a8OThjyXyXFxhlbBWLTEr
CGV55bE7nT65UkusXcRYZoWNgbMEKPQ/L6ySAWLV/Y4L2gIMesduCRysHLJM11S4
JjOyXxTzsfk9Yk1AmWu254lYl9bUTepLaFLzPKixNYjbAgMBAAGjgcQwgcEwHQYD
VR0OBBYEFKHfM8PPPlNBp2hEzKoZ4YTJDbzGMHQGA1UdIwRtMGuAFLQRM/HX4l73
U54gIhBPhga/H8leoT2kOzA5MQswCQYDVQQGEwJBVTEXMBUGA1UECgwORG9kZ3kg
QnJvdGhlcnMxETAPBgNVBAMMCERvZGd5IENBghROUw3exGf9mqxXAU2NmlS64qO2
TDASBgNVHRMBAf8ECDAGAQH/AgEBMAsGA1UdDwQEAwIBBjAJBgNVHRIEAjAAMA0G
CSqGSIb3DQEBBQUAA4IBAQCC1e+T9n+DnTobNWsnKW5aE5d+S6/VOyR9x1ZuM8qI
44w74h4xOK8bro0jeuMSUeoHJ1hHIDfRphnUE4uykVujeGEWWLfvwfFZ0ZDNCKDf
6U96cdg4AQ2vjU0ezmEvMC0pBo2a8MJl9K4nifX99sTy4+HzFJX7qDMXjD8e17gX
SEGPnlQVPqv4tGt7ul7mOBQXEm+zaUPdEobYgyLjB/SWpBfhLBFXKhAjWwiJD/Qy
9GjGdanZLiK3FXLcD8vNh5kSNPESWU7UeTvWVEwgfGufZMLIFHi0l4NUrejLln2l
rUCv4zzY9y48MH/+mlvChdSeVUS6Yy2bN9HmjtrCz+h6
-----END CERTIFICATE-----
