Certificate:
    Data:
        Version: 3 (0x2)
        Serial Number:
            4a:f4:77:b4:19:d0:73:45:6e:b1:18:0a:3a:49:cb:48:e1:f7:54:98
        Signature Algorithm: sha1WithRSAEncryption
        Issuer: C=AU, O=Dodgy Brothers, CN=Dodgy CA
        Validity
            Not Before: Aug 19 05:44:45 2024 GMT
            Not After : Aug 19 05:44:45 2025 GMT
        Subject: C=AU, O=Dodgy Brothers, CN=Brother 1, CN=notimes
        Subject Public Key Info:
            Public Key Algorithm: rsaEncryption
                Public-Key: (2048 bit)
                Modulus:
                    00:be:95:86:fa:71:4c:6a:ea:51:98:50:4b:99:a1:
                    2c:66:15:f3:60:f3:e1:ff:69:fb:ce:48:01:1d:fe:
                    e1:2c:38:b0:e3:bd:8f:4b:48:a7:7e:3a:c6:73:e3:
                    ab:bf:e1:da:6e:96:f5:fe:c3:e4:b4:a8:ad:bc:56:
                    34:d4:96:25:74:27:c3:10:db:35:10:25:1c:8e:4b:
                    81:9b:fb:42:04:7c:6f:3d:e2:38:6c:0e:e4:2e:8e:
                    2a:18:6d:30:cd:67:2a:23:6b:37:cf:05:9f:cc:b7:
                    59:58:7f:ba:c4:0a:3f:8c:a4:ad:cb:98:9c:c0:f2:
                    8f:69:67:0f:c1:4e:33:cf:fc:85:5e:bb:5e:cf:93:
                    b0:cf:d9:f4:52:79:87:b1:f8:4d:15:68:65:d5:b7:
                    19:08:63:7f:5e:b1:34:ad:05:8f:5a:f0:e4:e1:8f:
                    25:f2:5c:5c:61:95:b0:56:2d:31:2b:08:65:79:e5:
                    b1:3b:9d:3e:b9:52:4b:ac:5d:c4:58:66:85:8d:81:
                    b3:04:28:f4:3f:2f:ac:92:01:62:d5:fd:8e:0b:da:
                    02:0c:7a:c7:6e:09:1c:ac:1c:b2:4c:d7:54:b8:26:
                    33:b2:5f:14:f3:b1:f9:3d:62:4d:40:99:6b:b6:e7:
                    89:58:97:d6:d4:4d:ea:4b:68:52:f3:3c:a8:b1:35:
                    88:db
                Exponent: 65537 (0x10001)
        X509v3 extensions:
            X509v3 Subject Key Identifier: 
                A1:DF:33:C3:CF:3E:53:41:A7:68:44:CC:AA:19:E1:84:C9:0D:BC:C6
            X509v3 Authority Key Identifier: 
                keyid:B4:11:33:F1:D7:E2:5E:F7:53:9E:20:22:10:4F:86:06:BF:1F:C9:5E
                DirName:/C=AU/O=Dodgy Brothers/CN=Dodgy CA
                serial:4E:53:0D:DE:C4:67:FD:9A:AC:57:01:4D:8D:9A:54:BA:E2:A3:B6:4C
            X509v3 Basic Constraints: critical
                CA:TRUE, pathlen:1
            X509v3 Key Usage: 
                Certificate Sign, CRL Sign
            X509v3 Issuer Alternative Name: 
                <EMPTY>

    Signature Algorithm: sha1WithRSAEncryption
    Signature Value:
        51:76:a4:4a:94:b9:19:91:8a:ac:bf:5f:5d:a1:1b:59:03:37:
        50:9f:86:74:9c:3b:3e:d2:01:2f:9d:0d:da:3b:25:78:15:7d:
        6e:f6:5b:f5:e0:02:e0:fe:ed:d0:bb:f6:72:19:45:6f:b8:39:
        69:70:07:c5:14:3f:26:18:03:1b:c9:0e:22:4d:cd:a5:e7:04:
        3f:82:3a:fa:64:bd:72:34:93:4f:cf:2e:06:6b:cc:60:af:ea:
        74:6c:2a:f7:1c:82:69:0b:fe:30:7b:89:28:b4:b4:30:3e:1c:
        73:0e:0e:b1:0d:04:30:3c:42:67:74:fd:4a:58:5c:5a:be:54:
        d7:48:f4:fd:51:5c:af:63:f6:8b:cc:53:07:74:12:8e:ca:89:
        b2:3e:2a:20:7e:3c:0d:69:2d:53:6e:ed:0c:bf:e9:72:20:13:
        47:9c:21:92:c8:81:01:e8:d7:ee:2c:81:55:c4:48:38:ea:80:
        fd:8e:e7:e8:3f:f0:37:9d:e9:aa:f0:49:1e:c1:b6:95:e1:6d:
        c7:8e:39:6e:89:1c:94:a7:f1:e7:6b:b2:de:4d:2c:4e:a0:5d:
        c9:6d:67:4d:11:1b:f8:d5:77:8e:36:89:d9:88:2f:5a:17:c5:
        23:59:70:55:33:de:e0:24:d7:4d:1e:1e:a2:c7:38:7a:fc:b2:
        dd:20:61:11
-----BEGIN CERTIFICATE-----
MIID2DCCAsCgAwIBAgIUSvR3tBnQc0VusRgKOknLSOH3VJgwDQYJKoZIhvcNAQEF
BQAwOTELMAkGA1UEBhMCQVUxFzAVBgNVBAoMDkRvZGd5IEJyb3RoZXJzMREwDwYD
VQQDDAhEb2RneSBDQTAeFw0yNDA4MTkwNTQ0NDVaFw0yNTA4MTkwNTQ0NDVaMEwx
CzAJBgNVBAYTAkFVMRcwFQYDVQQKDA5Eb2RneSBCcm90aGVyczESMBAGA1UEAwwJ
QnJvdGhlciAxMRAwDgYDVQQDDAdub3RpbWVzMIIBIjANBgkqhkiG9w0BAQEFAAOC
AQ8AMIIBCgKCAQEAvpWG+nFMaupRmFBLmaEsZhXzYPPh/2n7zkgBHf7hLDiw472P
S0infjrGc+Orv+Habpb1/sPktKitvFY01JYldCfDENs1ECUcjkuBm/tCBHxvPeI4
bA7kLo4qGG0wzWcqI2s3zwWfzLdZWH+6xAo/jKSty5icwPKPaWcPwU4zz/yFXrte
z5Owz9n0UnmHsfhNFWhl1bcZCGN/XrE0rQWPWvDk4Y8l8lxcYZWwVi0xKwhleeWx
O50+uVJLrF3EWGaFjYGzBCj0Py+skgFi1f2OC9oCDHrHbgkcrByyTNdUuCYzsl8U
87H5PWJNQJlrtueJWJfW1E3qS2hS8zyosTWI2wIDAQABo4HEMIHBMB0GA1UdDgQW
BBSh3zPDzz5TQadoRMyqGeGEyQ28xjB0BgNVHSMEbTBrgBS0ETPx1+Je91OeICIQ
T4YGvx/JXqE9pDswOTELMAkGA1UEBhMCQVUxFzAVBgNVBAoMDkRvZGd5IEJyb3Ro
ZXJzMREwDwYDVQQDDAhEb2RneSBDQYIUTlMN3sRn/ZqsVwFNjZpUuuKjtkwwEgYD
VR0TAQH/BAgwBgEB/wIBATALBgNVHQ8EBAMCAQYwCQYDVR0SBAIwADANBgkqhkiG
9w0BAQUFAAOCAQEAUXakSpS5GZGKrL9fXaEbWQM3UJ+GdJw7PtIBL50N2jsleBV9
bvZb9eAC4P7t0Lv2chlFb7g5aXAHxRQ/JhgDG8kOIk3NpecEP4I6+mS9cjSTT88u
BmvMYK/qdGwq9xyCaQv+MHuJKLS0MD4ccw4OsQ0EMDxCZ3T9SlhcWr5U10j0/VFc
r2P2i8xTB3QSjsqJsj4qIH48DWktU27tDL/pciATR5whksiBAejX7iyBVcRIOOqA
/Y7n6D/wN53pqvBJHsG2leFtx445bokclKfx52uy3k0sTqBdyW1nTREb+NV3jjaJ
2YgvWhfFI1lwVTPe4CTXTR4eosc4evyy3SBhEQ==
-----END CERTIFICATE-----
