Certificate:
    Data:
        Version: 3 (0x2)
        Serial Number:
            4e:53:0d:de:c4:67:fd:9a:ac:57:01:4d:8d:9a:54:ba:e2:a3:b6:4c
        Signature Algorithm: sha1WithRSAEncryption
        Issuer: C=AU, O=Dodgy Brothers, CN=Dodgy CA
        Validity
            Not Before: Aug 19 05:44:44 2024 GMT
            Not After : Aug 19 05:44:44 2027 GMT
        Subject: C=AU, O=Dodgy Brothers, CN=Dodgy CA
        Subject Public Key Info:
            Public Key Algorithm: rsaEncryption
                Public-Key: (2048 bit)
                Modulus:
                    00:96:9d:a4:3d:00:4b:1c:5f:c6:cb:dd:8f:d2:31:
                    b2:88:15:cc:c4:86:2c:5c:e2:69:8b:84:f4:a7:a3:
                    53:df:91:e3:bf:51:89:fb:f0:7c:10:0d:3b:ad:ac:
                    35:62:75:f5:7f:ff:f4:6e:54:8f:05:a6:92:23:b3:
                    9f:59:39:d0:39:18:b0:10:40:de:62:73:8a:4e:b0:
                    8e:df:dc:e7:c9:41:22:54:84:80:08:29:bc:35:3c:
                    86:df:30:de:dd:b4:24:ff:7e:62:a5:c0:7a:e8:2a:
                    16:3f:d6:97:da:c5:42:db:2f:69:64:91:cb:08:d7:
                    56:5a:79:7f:1b:84:41:e9:4d:9d:77:09:10:a8:6c:
                    29:33:44:c6:c0:54:65:e6:e8:e3:f2:75:05:6a:64:
                    95:6c:c0:f4:fd:25:61:6e:48:36:f0:c0:03:07:05:
                    d6:7c:e5:11:fd:18:e8:4a:2d:d3:72:0c:37:28:36:
                    31:31:38:85:e8:71:8d:d8:02:49:c8:bc:19:89:c5:
                    8a:b1:3f:a2:35:ea:aa:90:1c:64:68:7b:af:67:6a:
                    5a:06:54:0f:50:e1:f9:b4:f6:be:3a:d4:ce:3f:1e:
                    4c:7d:c6:77:32:3e:a2:58:ed:db:dd:74:d8:92:14:
                    6a:a8:f7:cb:34:58:91:a8:7c:14:b1:7d:08:b3:4d:
                    b1:47
                Exponent: 65537 (0x10001)
        X509v3 extensions:
            X509v3 Subject Key Identifier: 
                B4:11:33:F1:D7:E2:5E:F7:53:9E:20:22:10:4F:86:06:BF:1F:C9:5E
            X509v3 Authority Key Identifier: 
                keyid:B4:11:33:F1:D7:E2:5E:F7:53:9E:20:22:10:4F:86:06:BF:1F:C9:5E
                DirName:/C=AU/O=Dodgy Brothers/CN=Dodgy CA
                serial:4E:53:0D:DE:C4:67:FD:9A:AC:57:01:4D:8D:9A:54:BA:E2:A3:B6:4C
            X509v3 Basic Constraints: critical
                CA:TRUE, pathlen:1
            X509v3 Key Usage: 
                Certificate Sign, CRL Sign
            X509v3 Issuer Alternative Name: 
                <EMPTY>

    Signature Algorithm: sha1WithRSAEncryption
    Signature Value:
        04:2f:3a:15:1f:88:78:ac:b9:86:41:ca:f1:4a:2d:5b:86:57:
        81:79:e1:d7:70:54:a6:f3:1e:0f:5c:83:4d:53:4d:38:ba:e9:
        a3:d9:91:20:c1:ac:b9:73:88:3a:13:a9:18:af:6a:78:f4:1c:
        87:d2:69:25:2a:72:67:2c:1f:e0:d4:ea:ea:f9:53:63:21:73:
        b4:77:18:a2:3a:07:ea:c5:49:21:fb:24:96:1c:41:59:63:75:
        b9:64:3d:2c:c2:41:75:04:62:e2:bd:6b:71:ed:42:00:e9:a6:
        23:3e:2f:51:88:87:b7:46:5b:66:58:f2:b0:99:19:3e:29:dd:
        11:35:3d:64:47:7f:e4:d1:ab:66:30:4d:64:7a:a5:08:10:a0:
        11:f7:16:ee:74:b9:0b:cd:3d:78:6d:fc:a6:b7:94:88:19:76:
        6d:f4:05:92:02:05:8c:ce:81:1f:33:88:44:7b:c4:5e:ee:cd:
        2f:9e:62:71:a3:47:07:03:76:26:d3:bb:90:bb:4a:51:f8:39:
        b6:b4:47:90:e4:83:ed:ea:fe:d8:27:e6:7f:f7:d8:1f:35:66:
        f3:56:19:1f:8c:c7:bd:7a:21:2b:b2:78:ad:6e:9b:57:06:28:
        ad:3e:8c:cb:74:62:dc:b2:72:e8:a0:e5:7c:8b:8c:4d:75:08:
        11:43:88:39
-----BEGIN CERTIFICATE-----
MIIDxTCCAq2gAwIBAgIUTlMN3sRn/ZqsVwFNjZpUuuKjtkwwDQYJKoZIhvcNAQEF
BQAwOTELMAkGA1UEBhMCQVUxFzAVBgNVBAoMDkRvZGd5IEJyb3RoZXJzMREwDwYD
VQQDDAhEb2RneSBDQTAeFw0yNDA4MTkwNTQ0NDRaFw0yNzA4MTkwNTQ0NDRaMDkx
CzAJBgNVBAYTAkFVMRcwFQYDVQQKDA5Eb2RneSBCcm90aGVyczERMA8GA1UEAwwI
RG9kZ3kgQ0EwggEiMA0GCSqGSIb3DQEBAQUAA4IBDwAwggEKAoIBAQCWnaQ9AEsc
X8bL3Y/SMbKIFczEhixc4mmLhPSno1PfkeO/UYn78HwQDTutrDVidfV///RuVI8F
ppIjs59ZOdA5GLAQQN5ic4pOsI7f3OfJQSJUhIAIKbw1PIbfMN7dtCT/fmKlwHro
KhY/1pfaxULbL2lkkcsI11ZaeX8bhEHpTZ13CRCobCkzRMbAVGXm6OPydQVqZJVs
wPT9JWFuSDbwwAMHBdZ85RH9GOhKLdNyDDcoNjExOIXocY3YAknIvBmJxYqxP6I1
6qqQHGRoe69naloGVA9Q4fm09r461M4/Hkx9xncyPqJY7dvddNiSFGqo98s0WJGo
fBSxfQizTbFHAgMBAAGjgcQwgcEwHQYDVR0OBBYEFLQRM/HX4l73U54gIhBPhga/
H8leMHQGA1UdIwRtMGuAFLQRM/HX4l73U54gIhBPhga/H8leoT2kOzA5MQswCQYD
VQQGEwJBVTEXMBUGA1UECgwORG9kZ3kgQnJvdGhlcnMxETAPBgNVBAMMCERvZGd5
IENBghROUw3exGf9mqxXAU2NmlS64qO2TDASBgNVHRMBAf8ECDAGAQH/AgEBMAsG
A1UdDwQEAwIBBjAJBgNVHRIEAjAAMA0GCSqGSIb3DQEBBQUAA4IBAQAELzoVH4h4
rLmGQcrxSi1bhleBeeHXcFSm8x4PXINNU004uumj2ZEgway5c4g6E6kYr2p49ByH
0mklKnJnLB/g1Orq+VNjIXO0dxiiOgfqxUkh+ySWHEFZY3W5ZD0swkF1BGLivWtx
7UIA6aYjPi9RiIe3RltmWPKwmRk+Kd0RNT1kR3/k0atmME1keqUIEKAR9xbudLkL
zT14bfymt5SIGXZt9AWSAgWMzoEfM4hEe8Re7s0vnmJxo0cHA3Ym07uQu0pR+Dm2
tEeQ5IPt6v7YJ+Z/99gfNWbzVhkfjMe9eiErsnitbptXBiitPozLdGLcsnLooOV8
i4xNdQgRQ4g5
-----END CERTIFICATE-----
