Certificate:
    Data:
        Version: 3 (0x2)
        Serial Number:
            62:5b:92:c4:67:36:72:45:5a:fb:eb:0d:10:54:a1:cc:f7:7b:16:9f
        Signature Algorithm: sha1WithRSAEncryption
        Issuer: C=AU, O=Dodgy Brothers, CN=Dodgy CA
        Validity
            Not Before: Aug 12 03:08:51 2024 GMT
            Not After : Aug 12 03:08:51 2025 GMT
        Subject: C=AU, O=Dodgy Brothers, CN=Brother 1, CN=nextupdate_invalid
        Subject Public Key Info:
            Public Key Algorithm: rsaEncryption
                Public-Key: (2048 bit)
                Modulus:
                    00:be:95:86:fa:71:4c:6a:ea:51:98:50:4b:99:a1:
                    2c:66:15:f3:60:f3:e1:ff:69:fb:ce:48:01:1d:fe:
                    e1:2c:38:b0:e3:bd:8f:4b:48:a7:7e:3a:c6:73:e3:
                    ab:bf:e1:da:6e:96:f5:fe:c3:e4:b4:a8:ad:bc:56:
                    34:d4:96:25:74:27:c3:10:db:35:10:25:1c:8e:4b:
                    81:9b:fb:42:04:7c:6f:3d:e2:38:6c:0e:e4:2e:8e:
                    2a:18:6d:30:cd:67:2a:23:6b:37:cf:05:9f:cc:b7:
                    59:58:7f:ba:c4:0a:3f:8c:a4:ad:cb:98:9c:c0:f2:
                    8f:69:67:0f:c1:4e:33:cf:fc:85:5e:bb:5e:cf:93:
                    b0:cf:d9:f4:52:79:87:b1:f8:4d:15:68:65:d5:b7:
                    19:08:63:7f:5e:b1:34:ad:05:8f:5a:f0:e4:e1:8f:
                    25:f2:5c:5c:61:95:b0:56:2d:31:2b:08:65:79:e5:
                    b1:3b:9d:3e:b9:52:4b:ac:5d:c4:58:66:85:8d:81:
                    b3:04:28:f4:3f:2f:ac:92:01:62:d5:fd:8e:0b:da:
                    02:0c:7a:c7:6e:09:1c:ac:1c:b2:4c:d7:54:b8:26:
                    33:b2:5f:14:f3:b1:f9:3d:62:4d:40:99:6b:b6:e7:
                    89:58:97:d6:d4:4d:ea:4b:68:52:f3:3c:a8:b1:35:
                    88:db
                Exponent: 65537 (0x10001)
        X509v3 extensions:
            X509v3 Subject Key Identifier: 
                A1:DF:33:C3:CF:3E:53:41:A7:68:44:CC:AA:19:E1:84:C9:0D:BC:C6
            X509v3 Authority Key Identifier: 
                keyid:B4:11:33:F1:D7:E2:5E:F7:53:9E:20:22:10:4F:86:06:BF:1F:C9:5E
                DirName:/C=AU/O=Dodgy Brothers/CN=Dodgy CA
                serial:33:A2:16:6C:56:01:7D:20:55:AD:3F:86:0B:FD:A9:0E:3C:58:B1:04
            X509v3 Basic Constraints: critical
                CA:TRUE, pathlen:1
            X509v3 Key Usage: 
                Certificate Sign, CRL Sign
            X509v3 Issuer Alternative Name: 
                <EMPTY>

    Signature Algorithm: sha1WithRSAEncryption
    Signature Value:
        80:ad:48:6c:9c:ba:44:ae:0d:74:1d:2e:ef:ed:97:39:36:7a:
        7d:8e:c5:d6:7d:18:34:d6:98:2a:31:50:ce:ac:ed:0d:91:78:
        f7:68:d9:d0:da:6f:a4:ce:11:9c:7d:51:2c:da:02:a9:11:34:
        b0:59:f0:97:f6:e5:5c:87:85:33:0e:b3:cb:9e:fc:de:ee:26:
        eb:12:3d:b9:3c:04:b8:6d:0b:ad:e7:31:c2:ca:5a:85:30:23:
        b5:8a:43:e3:43:09:85:b4:a8:4a:e7:fc:98:b8:08:f5:f1:70:
        af:58:65:aa:5e:db:11:a3:cc:ae:4b:75:90:cd:1b:d9:a3:9c:
        b6:10:2d:67:d3:57:a4:74:49:b6:a3:99:c6:78:e0:a4:bb:cc:
        64:a2:9f:02:f0:11:82:be:d7:f7:22:55:de:c6:9a:35:ad:8f:
        5b:17:7d:55:6d:7c:41:0a:be:a6:e3:16:38:24:f3:ff:c2:4e:
        82:52:d4:62:1f:91:2e:17:fc:1f:ac:41:0c:bd:c8:a5:00:57:
        8b:7d:e6:88:d1:9c:6f:b3:6e:4b:14:2d:27:87:92:e2:13:23:
        5a:44:3a:5e:97:7a:ed:9f:e7:96:7d:ee:11:a7:2b:a8:e3:6a:
        74:65:b3:a6:d4:dc:ff:4d:2f:06:2a:21:2d:75:a6:72:47:d9:
        f5:4b:16:c8
-----BEGIN CERTIFICATE-----
MIID4zCCAsugAwIBAgIUYluSxGc2ckVa++sNEFShzPd7Fp8wDQYJKoZIhvcNAQEF
BQAwOTELMAkGA1UEBhMCQVUxFzAVBgNVBAoMDkRvZGd5IEJyb3RoZXJzMREwDwYD
VQQDDAhEb2RneSBDQTAeFw0yNDA4MTIwMzA4NTFaFw0yNTA4MTIwMzA4NTFaMFcx
CzAJBgNVBAYTAkFVMRcwFQYDVQQKDA5Eb2RneSBCcm90aGVyczESMBAGA1UEAwwJ
QnJvdGhlciAxMRswGQYDVQQDDBJuZXh0dXBkYXRlX2ludmFsaWQwggEiMA0GCSqG
SIb3DQEBAQUAA4IBDwAwggEKAoIBAQC+lYb6cUxq6lGYUEuZoSxmFfNg8+H/afvO
SAEd/uEsOLDjvY9LSKd+OsZz46u/4dpulvX+w+S0qK28VjTUliV0J8MQ2zUQJRyO
S4Gb+0IEfG894jhsDuQujioYbTDNZyojazfPBZ/Mt1lYf7rECj+MpK3LmJzA8o9p
Zw/BTjPP/IVeu17Pk7DP2fRSeYex+E0VaGXVtxkIY39esTStBY9a8OThjyXyXFxh
lbBWLTErCGV55bE7nT65UkusXcRYZoWNgbMEKPQ/L6ySAWLV/Y4L2gIMesduCRys
HLJM11S4JjOyXxTzsfk9Yk1AmWu254lYl9bUTepLaFLzPKixNYjbAgMBAAGjgcQw
gcEwHQYDVR0OBBYEFKHfM8PPPlNBp2hEzKoZ4YTJDbzGMHQGA1UdIwRtMGuAFLQR
M/HX4l73U54gIhBPhga/H8leoT2kOzA5MQswCQYDVQQGEwJBVTEXMBUGA1UECgwO
RG9kZ3kgQnJvdGhlcnMxETAPBgNVBAMMCERvZGd5IENBghQzohZsVgF9IFWtP4YL
/akOPFixBDASBgNVHRMBAf8ECDAGAQH/AgEBMAsGA1UdDwQEAwIBBjAJBgNVHRIE
AjAAMA0GCSqGSIb3DQEBBQUAA4IBAQCArUhsnLpErg10HS7v7Zc5Nnp9jsXWfRg0
1pgqMVDOrO0NkXj3aNnQ2m+kzhGcfVEs2gKpETSwWfCX9uVch4UzDrPLnvze7ibr
Ej25PAS4bQut5zHCylqFMCO1ikPjQwmFtKhK5/yYuAj18XCvWGWqXtsRo8yuS3WQ
zRvZo5y2EC1n01ekdEm2o5nGeOCku8xkop8C8BGCvtf3IlXexpo1rY9bF31VbXxB
Cr6m4xY4JPP/wk6CUtRiH5EuF/wfrEEMvcilAFeLfeaI0Zxvs25LFC0nh5LiEyNa
RDpel3rtn+eWfe4Rpyuo42p0ZbOm1Nz/TS8GKiEtdaZyR9n1SxbI
-----END CERTIFICATE-----
