Certificate:
    Data:
        Version: 3 (0x2)
        Serial Number:
            62:5b:92:c4:67:36:72:45:5a:fb:eb:0d:10:54:a1:cc:f7:7b:16:9e
        Signature Algorithm: sha1WithRSAEncryption
        Issuer: C=AU, O=Dodgy Brothers, CN=Dodgy CA
        Validity
            Not Before: Aug 12 03:08:51 2024 GMT
            Not After : Aug 12 03:08:51 2025 GMT
        Subject: C=AU, O=Dodgy Brothers, CN=Brother 1, CN=lastupdate_generalizedtime
        Subject Public Key Info:
            Public Key Algorithm: rsaEncryption
                Public-Key: (2048 bit)
                Modulus:
                    00:be:95:86:fa:71:4c:6a:ea:51:98:50:4b:99:a1:
                    2c:66:15:f3:60:f3:e1:ff:69:fb:ce:48:01:1d:fe:
                    e1:2c:38:b0:e3:bd:8f:4b:48:a7:7e:3a:c6:73:e3:
                    ab:bf:e1:da:6e:96:f5:fe:c3:e4:b4:a8:ad:bc:56:
                    34:d4:96:25:74:27:c3:10:db:35:10:25:1c:8e:4b:
                    81:9b:fb:42:04:7c:6f:3d:e2:38:6c:0e:e4:2e:8e:
                    2a:18:6d:30:cd:67:2a:23:6b:37:cf:05:9f:cc:b7:
                    59:58:7f:ba:c4:0a:3f:8c:a4:ad:cb:98:9c:c0:f2:
                    8f:69:67:0f:c1:4e:33:cf:fc:85:5e:bb:5e:cf:93:
                    b0:cf:d9:f4:52:79:87:b1:f8:4d:15:68:65:d5:b7:
                    19:08:63:7f:5e:b1:34:ad:05:8f:5a:f0:e4:e1:8f:
                    25:f2:5c:5c:61:95:b0:56:2d:31:2b:08:65:79:e5:
                    b1:3b:9d:3e:b9:52:4b:ac:5d:c4:58:66:85:8d:81:
                    b3:04:28:f4:3f:2f:ac:92:01:62:d5:fd:8e:0b:da:
                    02:0c:7a:c7:6e:09:1c:ac:1c:b2:4c:d7:54:b8:26:
                    33:b2:5f:14:f3:b1:f9:3d:62:4d:40:99:6b:b6:e7:
                    89:58:97:d6:d4:4d:ea:4b:68:52:f3:3c:a8:b1:35:
                    88:db
                Exponent: 65537 (0x10001)
        X509v3 extensions:
            X509v3 Subject Key Identifier: 
                A1:DF:33:C3:CF:3E:53:41:A7:68:44:CC:AA:19:E1:84:C9:0D:BC:C6
            X509v3 Authority Key Identifier: 
                keyid:B4:11:33:F1:D7:E2:5E:F7:53:9E:20:22:10:4F:86:06:BF:1F:C9:5E
                DirName:/C=AU/O=Dodgy Brothers/CN=Dodgy CA
                serial:33:A2:16:6C:56:01:7D:20:55:AD:3F:86:0B:FD:A9:0E:3C:58:B1:04
            X509v3 Basic Constraints: critical
                CA:TRUE, pathlen:1
            X509v3 Key Usage: 
                Certificate Sign, CRL Sign
            X509v3 Issuer Alternative Name: 
                <EMPTY>

    Signature Algorithm: sha1WithRSAEncryption
    Signature Value:
        34:20:e3:c7:34:c4:1f:1d:76:52:7f:4b:3e:d8:b1:d1:4b:a6:
        d6:ea:3d:46:17:a5:2c:28:8b:dc:bc:f2:04:01:6a:d2:d8:9e:
        ae:4b:7a:b2:f6:74:3e:05:b3:fb:d6:f7:c7:81:59:34:d9:bc:
        12:ce:54:91:65:40:c0:d7:fd:38:ca:32:04:6a:bf:2a:a8:5a:
        ba:21:be:78:88:ac:3c:f8:0c:86:02:b6:ee:49:47:75:8a:10:
        88:61:14:3d:08:b0:97:50:07:27:c8:03:25:b8:c5:91:0e:9a:
        b4:44:40:ab:e1:23:37:c0:3d:e7:91:51:2e:75:ec:70:57:d6:
        c0:eb:14:d3:92:75:60:a1:45:f3:52:40:35:e0:d5:8c:fb:19:
        6d:5c:81:ba:5f:e5:ec:0f:84:f4:18:6a:e9:6b:80:20:67:41:
        c1:c9:3c:f9:d1:91:23:55:77:24:17:1a:ca:51:8c:8f:3b:bc:
        c0:da:2d:b2:78:6e:3d:1c:3f:bb:e9:a2:b5:c2:dd:89:5d:1e:
        60:c3:04:ca:b6:60:e6:1b:d6:02:dc:bc:25:6b:29:cc:3e:3e:
        72:c8:8a:6e:f0:1d:04:83:e7:cc:97:98:99:a3:de:fb:9a:0d:
        66:9b:c7:9e:c6:d3:a7:13:bb:3a:eb:94:f1:71:5d:4b:10:ab:
        a8:0e:f1:24
-----BEGIN CERTIFICATE-----
MIID6zCCAtOgAwIBAgIUYluSxGc2ckVa++sNEFShzPd7Fp4wDQYJKoZIhvcNAQEF
BQAwOTELMAkGA1UEBhMCQVUxFzAVBgNVBAoMDkRvZGd5IEJyb3RoZXJzMREwDwYD
VQQDDAhEb2RneSBDQTAeFw0yNDA4MTIwMzA4NTFaFw0yNTA4MTIwMzA4NTFaMF8x
CzAJBgNVBAYTAkFVMRcwFQYDVQQKDA5Eb2RneSBCcm90aGVyczESMBAGA1UEAwwJ
QnJvdGhlciAxMSMwIQYDVQQDDBpsYXN0dXBkYXRlX2dlbmVyYWxpemVkdGltZTCC
ASIwDQYJKoZIhvcNAQEBBQADggEPADCCAQoCggEBAL6VhvpxTGrqUZhQS5mhLGYV
82Dz4f9p+85IAR3+4Sw4sOO9j0tIp346xnPjq7/h2m6W9f7D5LSorbxWNNSWJXQn
wxDbNRAlHI5LgZv7QgR8bz3iOGwO5C6OKhhtMM1nKiNrN88Fn8y3WVh/usQKP4yk
rcuYnMDyj2lnD8FOM8/8hV67Xs+TsM/Z9FJ5h7H4TRVoZdW3GQhjf16xNK0Fj1rw
5OGPJfJcXGGVsFYtMSsIZXnlsTudPrlSS6xdxFhmhY2BswQo9D8vrJIBYtX9jgva
Agx6x24JHKwcskzXVLgmM7JfFPOx+T1iTUCZa7bniViX1tRN6ktoUvM8qLE1iNsC
AwEAAaOBxDCBwTAdBgNVHQ4EFgQUod8zw88+U0GnaETMqhnhhMkNvMYwdAYDVR0j
BG0wa4AUtBEz8dfiXvdTniAiEE+GBr8fyV6hPaQ7MDkxCzAJBgNVBAYTAkFVMRcw
FQYDVQQKDA5Eb2RneSBCcm90aGVyczERMA8GA1UEAwwIRG9kZ3kgQ0GCFDOiFmxW
AX0gVa0/hgv9qQ48WLEEMBIGA1UdEwEB/wQIMAYBAf8CAQEwCwYDVR0PBAQDAgEG
MAkGA1UdEgQCMAAwDQYJKoZIhvcNAQEFBQADggEBADQg48c0xB8ddlJ/Sz7YsdFL
ptbqPUYXpSwoi9y88gQBatLYnq5LerL2dD4Fs/vW98eBWTTZvBLOVJFlQMDX/TjK
MgRqvyqoWrohvniIrDz4DIYCtu5JR3WKEIhhFD0IsJdQByfIAyW4xZEOmrREQKvh
IzfAPeeRUS517HBX1sDrFNOSdWChRfNSQDXg1Yz7GW1cgbpf5ewPhPQYaulrgCBn
QcHJPPnRkSNVdyQXGspRjI87vMDaLbJ4bj0cP7vporXC3YldHmDDBMq2YOYb1gLc
vCVrKcw+PnLIim7wHQSD58yXmJmj3vuaDWabx57G06cTuzrrlPFxXUsQq6gO8SQ=
-----END CERTIFICATE-----
