Certificate:
    Data:
        Version: 3 (0x2)
        Serial Number:
            62:5b:92:c4:67:36:72:45:5a:fb:eb:0d:10:54:a1:cc:f7:7b:16:a3
        Signature Algorithm: sha1WithRSAEncryption
        Issuer: C=AU, O=Dodgy Brothers, CN=Dodgy CA
        Validity
            Not Before: Aug 12 03:08:52 2024 GMT
            Not After : Aug 12 03:08:52 2025 GMT
        Subject: C=AU, O=Dodgy Brothers, CN=Brother 1, CN=both_generalizedtime
        Subject Public Key Info:
            Public Key Algorithm: rsaEncryption
                Public-Key: (2048 bit)
                Modulus:
                    00:be:95:86:fa:71:4c:6a:ea:51:98:50:4b:99:a1:
                    2c:66:15:f3:60:f3:e1:ff:69:fb:ce:48:01:1d:fe:
                    e1:2c:38:b0:e3:bd:8f:4b:48:a7:7e:3a:c6:73:e3:
                    ab:bf:e1:da:6e:96:f5:fe:c3:e4:b4:a8:ad:bc:56:
                    34:d4:96:25:74:27:c3:10:db:35:10:25:1c:8e:4b:
                    81:9b:fb:42:04:7c:6f:3d:e2:38:6c:0e:e4:2e:8e:
                    2a:18:6d:30:cd:67:2a:23:6b:37:cf:05:9f:cc:b7:
                    59:58:7f:ba:c4:0a:3f:8c:a4:ad:cb:98:9c:c0:f2:
                    8f:69:67:0f:c1:4e:33:cf:fc:85:5e:bb:5e:cf:93:
                    b0:cf:d9:f4:52:79:87:b1:f8:4d:15:68:65:d5:b7:
                    19:08:63:7f:5e:b1:34:ad:05:8f:5a:f0:e4:e1:8f:
                    25:f2:5c:5c:61:95:b0:56:2d:31:2b:08:65:79:e5:
                    b1:3b:9d:3e:b9:52:4b:ac:5d:c4:58:66:85:8d:81:
                    b3:04:28:f4:3f:2f:ac:92:01:62:d5:fd:8e:0b:da:
                    02:0c:7a:c7:6e:09:1c:ac:1c:b2:4c:d7:54:b8:26:
                    33:b2:5f:14:f3:b1:f9:3d:62:4d:40:99:6b:b6:e7:
                    89:58:97:d6:d4:4d:ea:4b:68:52:f3:3c:a8:b1:35:
                    88:db
                Exponent: 65537 (0x10001)
        X509v3 extensions:
            X509v3 Subject Key Identifier: 
                A1:DF:33:C3:CF:3E:53:41:A7:68:44:CC:AA:19:E1:84:C9:0D:BC:C6
            X509v3 Authority Key Identifier: 
                keyid:B4:11:33:F1:D7:E2:5E:F7:53:9E:20:22:10:4F:86:06:BF:1F:C9:5E
                DirName:/C=AU/O=Dodgy Brothers/CN=Dodgy CA
                serial:33:A2:16:6C:56:01:7D:20:55:AD:3F:86:0B:FD:A9:0E:3C:58:B1:04
            X509v3 Basic Constraints: critical
                CA:TRUE, pathlen:1
            X509v3 Key Usage: 
                Certificate Sign, CRL Sign
            X509v3 Issuer Alternative Name: 
                <EMPTY>

    Signature Algorithm: sha1WithRSAEncryption
    Signature Value:
        38:32:47:74:78:e8:a8:e7:aa:e4:af:0f:6c:2d:24:25:ab:06:
        54:20:2b:7e:a6:ac:75:9b:45:e0:da:90:60:62:f2:06:5c:30:
        d6:81:0d:95:11:05:d4:64:bb:c4:f2:a6:f1:a9:b9:34:df:32:
        e0:0d:4a:55:0c:b0:6b:5b:d4:87:b4:00:1a:85:2a:a9:f8:79:
        60:9d:e5:18:76:03:3a:c4:b3:66:89:99:32:d0:a4:36:2e:50:
        37:26:cd:c9:a3:aa:9a:30:37:8f:38:b5:13:48:ad:e4:1a:4f:
        90:f8:10:11:c2:c2:11:00:72:90:0e:23:3c:fa:c6:9f:60:72:
        f3:40:77:c8:46:18:c7:a9:77:70:5b:96:74:2d:4c:d7:45:7e:
        bd:2e:43:a9:38:1b:4a:58:0e:27:5b:ee:f8:50:84:85:cf:55:
        b6:ce:74:1a:6a:20:1e:bb:6d:3d:df:c6:84:47:1c:d0:1a:11:
        2c:36:a0:d2:e5:d3:f7:a4:8f:bf:4c:15:40:f8:31:35:7b:f3:
        eb:0d:65:6a:e6:ab:4d:6c:b6:94:74:43:07:6a:bd:97:72:44:
        62:9f:db:b5:f4:c7:b1:af:8d:07:13:ce:bc:4c:ab:f5:a8:9f:
        e3:6e:b5:f1:9d:68:ef:41:ad:1f:70:72:56:91:0c:bc:d1:85:
        26:c0:fa:27
-----BEGIN CERTIFICATE-----
MIID5TCCAs2gAwIBAgIUYluSxGc2ckVa++sNEFShzPd7FqMwDQYJKoZIhvcNAQEF
BQAwOTELMAkGA1UEBhMCQVUxFzAVBgNVBAoMDkRvZGd5IEJyb3RoZXJzMREwDwYD
VQQDDAhEb2RneSBDQTAeFw0yNDA4MTIwMzA4NTJaFw0yNTA4MTIwMzA4NTJaMFkx
CzAJBgNVBAYTAkFVMRcwFQYDVQQKDA5Eb2RneSBCcm90aGVyczESMBAGA1UEAwwJ
QnJvdGhlciAxMR0wGwYDVQQDDBRib3RoX2dlbmVyYWxpemVkdGltZTCCASIwDQYJ
KoZIhvcNAQEBBQADggEPADCCAQoCggEBAL6VhvpxTGrqUZhQS5mhLGYV82Dz4f9p
+85IAR3+4Sw4sOO9j0tIp346xnPjq7/h2m6W9f7D5LSorbxWNNSWJXQnwxDbNRAl
HI5LgZv7QgR8bz3iOGwO5C6OKhhtMM1nKiNrN88Fn8y3WVh/usQKP4ykrcuYnMDy
j2lnD8FOM8/8hV67Xs+TsM/Z9FJ5h7H4TRVoZdW3GQhjf16xNK0Fj1rw5OGPJfJc
XGGVsFYtMSsIZXnlsTudPrlSS6xdxFhmhY2BswQo9D8vrJIBYtX9jgvaAgx6x24J
HKwcskzXVLgmM7JfFPOx+T1iTUCZa7bniViX1tRN6ktoUvM8qLE1iNsCAwEAAaOB
xDCBwTAdBgNVHQ4EFgQUod8zw88+U0GnaETMqhnhhMkNvMYwdAYDVR0jBG0wa4AU
tBEz8dfiXvdTniAiEE+GBr8fyV6hPaQ7MDkxCzAJBgNVBAYTAkFVMRcwFQYDVQQK
DA5Eb2RneSBCcm90aGVyczERMA8GA1UEAwwIRG9kZ3kgQ0GCFDOiFmxWAX0gVa0/
hgv9qQ48WLEEMBIGA1UdEwEB/wQIMAYBAf8CAQEwCwYDVR0PBAQDAgEGMAkGA1Ud
EgQCMAAwDQYJKoZIhvcNAQEFBQADggEBADgyR3R46KjnquSvD2wtJCWrBlQgK36m
rHWbReDakGBi8gZcMNaBDZURBdRku8TypvGpuTTfMuANSlUMsGtb1Ie0ABqFKqn4
eWCd5Rh2AzrEs2aJmTLQpDYuUDcmzcmjqpowN484tRNIreQaT5D4EBHCwhEAcpAO
Izz6xp9gcvNAd8hGGMepd3BblnQtTNdFfr0uQ6k4G0pYDidb7vhQhIXPVbbOdBpq
IB67bT3fxoRHHNAaESw2oNLl0/ekj79MFUD4MTV78+sNZWrmq01stpR0QwdqvZdy
RGKf27X0x7GvjQcTzrxMq/Won+NutfGdaO9BrR9wclaRDLzRhSbA+ic=
-----END CERTIFICATE-----
