Certificate:
    Data:
        Version: 3 (0x2)
        Serial Number:
            62:5b:92:c4:67:36:72:45:5a:fb:eb:0d:10:54:a1:cc:f7:7b:16:9d
        Signature Algorithm: sha1WithRSAEncryption
        Issuer: C=AU, O=Dodgy Brothers, CN=Dodgy CA
        Validity
            Not Before: Aug 12 03:08:51 2024 GMT
            Not After : Aug 12 03:08:51 2025 GMT
        Subject: C=AU, O=Dodgy Brothers, CN=Brother 1, CN=lastupdate_utctime
        Subject Public Key Info:
            Public Key Algorithm: rsaEncryption
                Public-Key: (2048 bit)
                Modulus:
                    00:be:95:86:fa:71:4c:6a:ea:51:98:50:4b:99:a1:
                    2c:66:15:f3:60:f3:e1:ff:69:fb:ce:48:01:1d:fe:
                    e1:2c:38:b0:e3:bd:8f:4b:48:a7:7e:3a:c6:73:e3:
                    ab:bf:e1:da:6e:96:f5:fe:c3:e4:b4:a8:ad:bc:56:
                    34:d4:96:25:74:27:c3:10:db:35:10:25:1c:8e:4b:
                    81:9b:fb:42:04:7c:6f:3d:e2:38:6c:0e:e4:2e:8e:
                    2a:18:6d:30:cd:67:2a:23:6b:37:cf:05:9f:cc:b7:
                    59:58:7f:ba:c4:0a:3f:8c:a4:ad:cb:98:9c:c0:f2:
                    8f:69:67:0f:c1:4e:33:cf:fc:85:5e:bb:5e:cf:93:
                    b0:cf:d9:f4:52:79:87:b1:f8:4d:15:68:65:d5:b7:
                    19:08:63:7f:5e:b1:34:ad:05:8f:5a:f0:e4:e1:8f:
                    25:f2:5c:5c:61:95:b0:56:2d:31:2b:08:65:79:e5:
                    b1:3b:9d:3e:b9:52:4b:ac:5d:c4:58:66:85:8d:81:
                    b3:04:28:f4:3f:2f:ac:92:01:62:d5:fd:8e:0b:da:
                    02:0c:7a:c7:6e:09:1c:ac:1c:b2:4c:d7:54:b8:26:
                    33:b2:5f:14:f3:b1:f9:3d:62:4d:40:99:6b:b6:e7:
                    89:58:97:d6:d4:4d:ea:4b:68:52:f3:3c:a8:b1:35:
                    88:db
                Exponent: 65537 (0x10001)
        X509v3 extensions:
            X509v3 Subject Key Identifier: 
                A1:DF:33:C3:CF:3E:53:41:A7:68:44:CC:AA:19:E1:84:C9:0D:BC:C6
            X509v3 Authority Key Identifier: 
                keyid:B4:11:33:F1:D7:E2:5E:F7:53:9E:20:22:10:4F:86:06:BF:1F:C9:5E
                DirName:/C=AU/O=Dodgy Brothers/CN=Dodgy CA
                serial:33:A2:16:6C:56:01:7D:20:55:AD:3F:86:0B:FD:A9:0E:3C:58:B1:04
            X509v3 Basic Constraints: critical
                CA:TRUE, pathlen:1
            X509v3 Key Usage: 
                Certificate Sign, CRL Sign
            X509v3 Issuer Alternative Name: 
                <EMPTY>

    Signature Algorithm: sha1WithRSAEncryption
    Signature Value:
        00:0a:57:14:15:a4:2c:e4:6d:5f:42:98:fc:3c:3b:77:bf:ee:
        56:eb:da:25:59:6b:f2:a4:0f:84:63:34:c0:c7:47:0d:c2:61:
        39:66:1c:e0:b7:98:3a:ad:a6:26:09:c1:f6:01:a2:51:75:ab:
        43:21:01:ba:da:e5:34:6e:75:77:3c:4a:11:06:3e:3d:65:10:
        0e:cb:dd:b5:d8:ee:0e:55:e5:d8:dd:f6:25:6e:03:74:79:40:
        39:aa:61:95:2f:ec:52:80:cc:9e:46:42:2a:95:54:e3:17:ae:
        5f:9e:e2:dc:e5:20:23:52:8b:8c:82:89:ad:a5:82:2e:bd:6e:
        c3:a2:63:a3:0a:02:5c:f2:ce:f3:0e:43:69:d0:b9:43:6d:0d:
        06:08:83:6b:6f:06:7d:f6:ec:58:47:5d:54:3e:bb:19:e3:9a:
        eb:5c:ed:99:e3:a7:ad:cc:1f:1f:5f:32:47:e0:48:06:bb:a8:
        1e:2e:80:81:57:fa:ef:3b:1b:28:d0:e4:4c:78:82:f3:04:64:
        4e:82:b8:90:5a:ad:c0:64:91:96:cf:79:5b:85:64:cc:75:4c:
        fb:f7:63:8d:4f:6e:7c:9d:94:41:73:fe:10:79:a3:fd:7f:e8:
        7e:1a:4f:86:a4:ab:00:86:a9:b4:99:41:9b:95:9f:76:02:c7:
        4c:ed:f1:5f
-----BEGIN CERTIFICATE-----
MIID4zCCAsugAwIBAgIUYluSxGc2ckVa++sNEFShzPd7Fp0wDQYJKoZIhvcNAQEF
BQAwOTELMAkGA1UEBhMCQVUxFzAVBgNVBAoMDkRvZGd5IEJyb3RoZXJzMREwDwYD
VQQDDAhEb2RneSBDQTAeFw0yNDA4MTIwMzA4NTFaFw0yNTA4MTIwMzA4NTFaMFcx
CzAJBgNVBAYTAkFVMRcwFQYDVQQKDA5Eb2RneSBCcm90aGVyczESMBAGA1UEAwwJ
QnJvdGhlciAxMRswGQYDVQQDDBJsYXN0dXBkYXRlX3V0Y3RpbWUwggEiMA0GCSqG
SIb3DQEBAQUAA4IBDwAwggEKAoIBAQC+lYb6cUxq6lGYUEuZoSxmFfNg8+H/afvO
SAEd/uEsOLDjvY9LSKd+OsZz46u/4dpulvX+w+S0qK28VjTUliV0J8MQ2zUQJRyO
S4Gb+0IEfG894jhsDuQujioYbTDNZyojazfPBZ/Mt1lYf7rECj+MpK3LmJzA8o9p
Zw/BTjPP/IVeu17Pk7DP2fRSeYex+E0VaGXVtxkIY39esTStBY9a8OThjyXyXFxh
lbBWLTErCGV55bE7nT65UkusXcRYZoWNgbMEKPQ/L6ySAWLV/Y4L2gIMesduCRys
HLJM11S4JjOyXxTzsfk9Yk1AmWu254lYl9bUTepLaFLzPKixNYjbAgMBAAGjgcQw
gcEwHQYDVR0OBBYEFKHfM8PPPlNBp2hEzKoZ4YTJDbzGMHQGA1UdIwRtMGuAFLQR
M/HX4l73U54gIhBPhga/H8leoT2kOzA5MQswCQYDVQQGEwJBVTEXMBUGA1UECgwO
RG9kZ3kgQnJvdGhlcnMxETAPBgNVBAMMCERvZGd5IENBghQzohZsVgF9IFWtP4YL
/akOPFixBDASBgNVHRMBAf8ECDAGAQH/AgEBMAsGA1UdDwQEAwIBBjAJBgNVHRIE
AjAAMA0GCSqGSIb3DQEBBQUAA4IBAQAAClcUFaQs5G1fQpj8PDt3v+5W69olWWvy
pA+EYzTAx0cNwmE5Zhzgt5g6raYmCcH2AaJRdatDIQG62uU0bnV3PEoRBj49ZRAO
y9212O4OVeXY3fYlbgN0eUA5qmGVL+xSgMyeRkIqlVTjF65fnuLc5SAjUouMgomt
pYIuvW7DomOjCgJc8s7zDkNp0LlDbQ0GCINrbwZ99uxYR11UPrsZ45rrXO2Z46et
zB8fXzJH4EgGu6geLoCBV/rvOxso0ORMeILzBGROgriQWq3AZJGWz3lbhWTMdUz7
92ONT258nZRBc/4QeaP9f+h+Gk+GpKsAhqm0mUGblZ92AsdM7fFf
-----END CERTIFICATE-----
