Certificate:
    Data:
        Version: 3 (0x2)
        Serial Number:
            62:5b:92:c4:67:36:72:45:5a:fb:eb:0d:10:54:a1:cc:f7:7b:16:a0
        Signature Algorithm: sha1WithRSAEncryption
        Issuer: C=AU, O=Dodgy Brothers, CN=Dodgy CA
        Validity
            Not Before: Aug 12 03:08:51 2024 GMT
            Not After : Aug 12 03:08:51 2025 GMT
        Subject: C=AU, O=Dodgy Brothers, CN=Brother 1, CN=nextupdate_utctime
        Subject Public Key Info:
            Public Key Algorithm: rsaEncryption
                Public-Key: (2048 bit)
                Modulus:
                    00:be:95:86:fa:71:4c:6a:ea:51:98:50:4b:99:a1:
                    2c:66:15:f3:60:f3:e1:ff:69:fb:ce:48:01:1d:fe:
                    e1:2c:38:b0:e3:bd:8f:4b:48:a7:7e:3a:c6:73:e3:
                    ab:bf:e1:da:6e:96:f5:fe:c3:e4:b4:a8:ad:bc:56:
                    34:d4:96:25:74:27:c3:10:db:35:10:25:1c:8e:4b:
                    81:9b:fb:42:04:7c:6f:3d:e2:38:6c:0e:e4:2e:8e:
                    2a:18:6d:30:cd:67:2a:23:6b:37:cf:05:9f:cc:b7:
                    59:58:7f:ba:c4:0a:3f:8c:a4:ad:cb:98:9c:c0:f2:
                    8f:69:67:0f:c1:4e:33:cf:fc:85:5e:bb:5e:cf:93:
                    b0:cf:d9:f4:52:79:87:b1:f8:4d:15:68:65:d5:b7:
                    19:08:63:7f:5e:b1:34:ad:05:8f:5a:f0:e4:e1:8f:
                    25:f2:5c:5c:61:95:b0:56:2d:31:2b:08:65:79:e5:
                    b1:3b:9d:3e:b9:52:4b:ac:5d:c4:58:66:85:8d:81:
                    b3:04:28:f4:3f:2f:ac:92:01:62:d5:fd:8e:0b:da:
                    02:0c:7a:c7:6e:09:1c:ac:1c:b2:4c:d7:54:b8:26:
                    33:b2:5f:14:f3:b1:f9:3d:62:4d:40:99:6b:b6:e7:
                    89:58:97:d6:d4:4d:ea:4b:68:52:f3:3c:a8:b1:35:
                    88:db
                Exponent: 65537 (0x10001)
        X509v3 extensions:
            X509v3 Subject Key Identifier: 
                A1:DF:33:C3:CF:3E:53:41:A7:68:44:CC:AA:19:E1:84:C9:0D:BC:C6
            X509v3 Authority Key Identifier: 
                keyid:B4:11:33:F1:D7:E2:5E:F7:53:9E:20:22:10:4F:86:06:BF:1F:C9:5E
                DirName:/C=AU/O=Dodgy Brothers/CN=Dodgy CA
                serial:33:A2:16:6C:56:01:7D:20:55:AD:3F:86:0B:FD:A9:0E:3C:58:B1:04
            X509v3 Basic Constraints: critical
                CA:TRUE, pathlen:1
            X509v3 Key Usage: 
                Certificate Sign, CRL Sign
            X509v3 Issuer Alternative Name: 
                <EMPTY>

    Signature Algorithm: sha1WithRSAEncryption
    Signature Value:
        57:98:ed:9e:f2:89:25:ee:97:48:6b:cb:2d:a3:91:c6:7b:11:
        9e:61:7a:57:40:17:b9:68:10:5f:5e:a9:cb:eb:21:0d:4a:ff:
        e4:c9:1e:f2:0d:d0:67:f2:aa:b8:df:e8:d6:d2:cc:20:69:5e:
        7f:53:3b:64:b7:6f:82:6b:5e:11:14:b8:2a:f7:fa:00:9a:d8:
        f5:a2:ec:63:c1:68:3e:24:2d:2a:c0:2e:4f:48:13:5e:9c:d0:
        b9:0c:b4:bf:63:34:cb:08:ca:37:68:f2:b8:b4:2d:b1:11:37:
        1e:cb:94:56:6b:de:fb:aa:5d:08:4b:83:1e:61:12:13:7a:28:
        ce:60:4e:d1:43:c7:ac:d4:c9:06:f0:d6:da:79:60:4c:cd:ee:
        c3:d8:91:b3:03:0d:e1:40:64:cb:af:dd:f0:a1:3f:d2:71:14:
        23:db:2b:ff:e8:d3:f1:53:72:72:60:ce:3e:7d:29:ec:48:9c:
        e6:9e:5e:23:e9:f2:38:2e:2f:55:64:f6:77:19:29:cf:ee:51:
        34:77:ea:ad:1c:9b:13:a4:7e:92:85:6b:57:ca:d4:e0:bc:12:
        e4:ba:57:1e:77:fd:06:37:6b:ee:91:95:bd:87:c0:34:19:9c:
        3f:d3:36:fe:55:03:50:5b:a9:4a:fd:1d:6a:b1:16:19:03:de:
        e0:4e:68:a8
-----BEGIN CERTIFICATE-----
MIID4zCCAsugAwIBAgIUYluSxGc2ckVa++sNEFShzPd7FqAwDQYJKoZIhvcNAQEF
BQAwOTELMAkGA1UEBhMCQVUxFzAVBgNVBAoMDkRvZGd5IEJyb3RoZXJzMREwDwYD
VQQDDAhEb2RneSBDQTAeFw0yNDA4MTIwMzA4NTFaFw0yNTA4MTIwMzA4NTFaMFcx
CzAJBgNVBAYTAkFVMRcwFQYDVQQKDA5Eb2RneSBCcm90aGVyczESMBAGA1UEAwwJ
QnJvdGhlciAxMRswGQYDVQQDDBJuZXh0dXBkYXRlX3V0Y3RpbWUwggEiMA0GCSqG
SIb3DQEBAQUAA4IBDwAwggEKAoIBAQC+lYb6cUxq6lGYUEuZoSxmFfNg8+H/afvO
SAEd/uEsOLDjvY9LSKd+OsZz46u/4dpulvX+w+S0qK28VjTUliV0J8MQ2zUQJRyO
S4Gb+0IEfG894jhsDuQujioYbTDNZyojazfPBZ/Mt1lYf7rECj+MpK3LmJzA8o9p
Zw/BTjPP/IVeu17Pk7DP2fRSeYex+E0VaGXVtxkIY39esTStBY9a8OThjyXyXFxh
lbBWLTErCGV55bE7nT65UkusXcRYZoWNgbMEKPQ/L6ySAWLV/Y4L2gIMesduCRys
HLJM11S4JjOyXxTzsfk9Yk1AmWu254lYl9bUTepLaFLzPKixNYjbAgMBAAGjgcQw
gcEwHQYDVR0OBBYEFKHfM8PPPlNBp2hEzKoZ4YTJDbzGMHQGA1UdIwRtMGuAFLQR
M/HX4l73U54gIhBPhga/H8leoT2kOzA5MQswCQYDVQQGEwJBVTEXMBUGA1UECgwO
RG9kZ3kgQnJvdGhlcnMxETAPBgNVBAMMCERvZGd5IENBghQzohZsVgF9IFWtP4YL
/akOPFixBDASBgNVHRMBAf8ECDAGAQH/AgEBMAsGA1UdDwQEAwIBBjAJBgNVHRIE
AjAAMA0GCSqGSIb3DQEBBQUAA4IBAQBXmO2e8okl7pdIa8sto5HGexGeYXpXQBe5
aBBfXqnL6yENSv/kyR7yDdBn8qq43+jW0swgaV5/Uztkt2+Ca14RFLgq9/oAmtj1
ouxjwWg+JC0qwC5PSBNenNC5DLS/YzTLCMo3aPK4tC2xETcey5RWa977ql0IS4Me
YRITeijOYE7RQ8es1MkG8NbaeWBMze7D2JGzAw3hQGTLr93woT/ScRQj2yv/6NPx
U3JyYM4+fSnsSJzmnl4j6fI4Li9VZPZ3GSnP7lE0d+qtHJsTpH6ShWtXytTgvBLk
ulced/0GN2vukZW9h8A0GZw/0zb+VQNQW6lK/R1qsRYZA97gTmio
-----END CERTIFICATE-----
