Certificate:
    Data:
        Version: 3 (0x2)
        Serial Number:
            62:5b:92:c4:67:36:72:45:5a:fb:eb:0d:10:54:a1:cc:f7:7b:16:9b
        Signature Algorithm: sha1WithRSAEncryption
        Issuer: C=AU, O=Dodgy Brothers, CN=Dodgy CA
        Validity
            Not Before: Aug 12 03:08:51 2024 GMT
            Not After : Aug 12 03:08:51 2025 GMT
        Subject: C=AU, O=Dodgy Brothers, CN=Brother 1, CN=notimes
        Subject Public Key Info:
            Public Key Algorithm: rsaEncryption
                Public-Key: (2048 bit)
                Modulus:
                    00:be:95:86:fa:71:4c:6a:ea:51:98:50:4b:99:a1:
                    2c:66:15:f3:60:f3:e1:ff:69:fb:ce:48:01:1d:fe:
                    e1:2c:38:b0:e3:bd:8f:4b:48:a7:7e:3a:c6:73:e3:
                    ab:bf:e1:da:6e:96:f5:fe:c3:e4:b4:a8:ad:bc:56:
                    34:d4:96:25:74:27:c3:10:db:35:10:25:1c:8e:4b:
                    81:9b:fb:42:04:7c:6f:3d:e2:38:6c:0e:e4:2e:8e:
                    2a:18:6d:30:cd:67:2a:23:6b:37:cf:05:9f:cc:b7:
                    59:58:7f:ba:c4:0a:3f:8c:a4:ad:cb:98:9c:c0:f2:
                    8f:69:67:0f:c1:4e:33:cf:fc:85:5e:bb:5e:cf:93:
                    b0:cf:d9:f4:52:79:87:b1:f8:4d:15:68:65:d5:b7:
                    19:08:63:7f:5e:b1:34:ad:05:8f:5a:f0:e4:e1:8f:
                    25:f2:5c:5c:61:95:b0:56:2d:31:2b:08:65:79:e5:
                    b1:3b:9d:3e:b9:52:4b:ac:5d:c4:58:66:85:8d:81:
                    b3:04:28:f4:3f:2f:ac:92:01:62:d5:fd:8e:0b:da:
                    02:0c:7a:c7:6e:09:1c:ac:1c:b2:4c:d7:54:b8:26:
                    33:b2:5f:14:f3:b1:f9:3d:62:4d:40:99:6b:b6:e7:
                    89:58:97:d6:d4:4d:ea:4b:68:52:f3:3c:a8:b1:35:
                    88:db
                Exponent: 65537 (0x10001)
        X509v3 extensions:
            X509v3 Subject Key Identifier: 
                A1:DF:33:C3:CF:3E:53:41:A7:68:44:CC:AA:19:E1:84:C9:0D:BC:C6
            X509v3 Authority Key Identifier: 
                keyid:B4:11:33:F1:D7:E2:5E:F7:53:9E:20:22:10:4F:86:06:BF:1F:C9:5E
                DirName:/C=AU/O=Dodgy Brothers/CN=Dodgy CA
                serial:33:A2:16:6C:56:01:7D:20:55:AD:3F:86:0B:FD:A9:0E:3C:58:B1:04
            X509v3 Basic Constraints: critical
                CA:TRUE, pathlen:1
            X509v3 Key Usage: 
                Certificate Sign, CRL Sign
            X509v3 Issuer Alternative Name: 
                <EMPTY>

    Signature Algorithm: sha1WithRSAEncryption
    Signature Value:
        5b:86:4f:aa:eb:ea:3b:d3:f0:48:7a:40:2c:b5:94:5b:f8:a5:
        05:00:d8:18:a4:7c:97:d3:ad:e4:cf:6e:42:f8:3d:2d:b5:67:
        07:96:6b:f8:ff:ca:96:25:ba:ff:69:97:bc:08:95:43:48:b8:
        a9:37:2b:39:c3:6f:56:68:e7:f2:91:b1:bd:f6:b7:d4:fe:00:
        ae:ce:a2:d9:e8:8e:e9:3d:f6:a6:f7:cf:90:26:03:71:7b:c6:
        37:15:31:12:ca:57:a2:c9:68:20:5e:2b:92:78:5a:dc:0d:f6:
        31:c7:06:77:47:65:fd:5e:76:75:41:c1:5b:aa:61:e0:52:04:
        e0:b3:fc:2c:51:08:f2:30:11:42:af:44:ee:a0:b4:d1:b9:fe:
        d7:24:65:4e:0f:79:db:22:a5:ea:b2:94:d0:47:0a:a9:f3:82:
        07:1d:e1:e3:6b:16:66:93:44:66:59:ea:32:50:cb:ce:6f:16:
        92:eb:ed:c4:31:12:dd:89:61:a9:d6:f3:54:64:ee:41:27:d4:
        7a:39:8e:b1:76:df:cc:58:b2:95:7f:1e:d0:49:e6:e9:2f:b4:
        40:4c:b7:1f:e5:b5:c8:a1:88:86:90:a1:53:4a:3d:42:8a:e5:
        37:f3:40:cc:f0:85:95:01:1e:27:ad:ec:bc:d2:0e:25:11:5a:
        87:41:94:1f
-----BEGIN CERTIFICATE-----
MIID2DCCAsCgAwIBAgIUYluSxGc2ckVa++sNEFShzPd7FpswDQYJKoZIhvcNAQEF
BQAwOTELMAkGA1UEBhMCQVUxFzAVBgNVBAoMDkRvZGd5IEJyb3RoZXJzMREwDwYD
VQQDDAhEb2RneSBDQTAeFw0yNDA4MTIwMzA4NTFaFw0yNTA4MTIwMzA4NTFaMEwx
CzAJBgNVBAYTAkFVMRcwFQYDVQQKDA5Eb2RneSBCcm90aGVyczESMBAGA1UEAwwJ
QnJvdGhlciAxMRAwDgYDVQQDDAdub3RpbWVzMIIBIjANBgkqhkiG9w0BAQEFAAOC
AQ8AMIIBCgKCAQEAvpWG+nFMaupRmFBLmaEsZhXzYPPh/2n7zkgBHf7hLDiw472P
S0infjrGc+Orv+Habpb1/sPktKitvFY01JYldCfDENs1ECUcjkuBm/tCBHxvPeI4
bA7kLo4qGG0wzWcqI2s3zwWfzLdZWH+6xAo/jKSty5icwPKPaWcPwU4zz/yFXrte
z5Owz9n0UnmHsfhNFWhl1bcZCGN/XrE0rQWPWvDk4Y8l8lxcYZWwVi0xKwhleeWx
O50+uVJLrF3EWGaFjYGzBCj0Py+skgFi1f2OC9oCDHrHbgkcrByyTNdUuCYzsl8U
87H5PWJNQJlrtueJWJfW1E3qS2hS8zyosTWI2wIDAQABo4HEMIHBMB0GA1UdDgQW
BBSh3zPDzz5TQadoRMyqGeGEyQ28xjB0BgNVHSMEbTBrgBS0ETPx1+Je91OeICIQ
T4YGvx/JXqE9pDswOTELMAkGA1UEBhMCQVUxFzAVBgNVBAoMDkRvZGd5IEJyb3Ro
ZXJzMREwDwYDVQQDDAhEb2RneSBDQYIUM6IWbFYBfSBVrT+GC/2pDjxYsQQwEgYD
VR0TAQH/BAgwBgEB/wIBATALBgNVHQ8EBAMCAQYwCQYDVR0SBAIwADANBgkqhkiG
9w0BAQUFAAOCAQEAW4ZPquvqO9PwSHpALLWUW/ilBQDYGKR8l9Ot5M9uQvg9LbVn
B5Zr+P/KliW6/2mXvAiVQ0i4qTcrOcNvVmjn8pGxvfa31P4Ars6i2eiO6T32pvfP
kCYDcXvGNxUxEspXosloIF4rknha3A32MccGd0dl/V52dUHBW6ph4FIE4LP8LFEI
8jARQq9E7qC00bn+1yRlTg952yKl6rKU0EcKqfOCBx3h42sWZpNEZlnqMlDLzm8W
kuvtxDES3YlhqdbzVGTuQSfUejmOsXbfzFiylX8e0Enm6S+0QEy3H+W1yKGIhpCh
U0o9QorlN/NAzPCFlQEeJ63svNIOJRFah0GUHw==
-----END CERTIFICATE-----
