Certificate:
    Data:
        Version: 3 (0x2)
        Serial Number:
            62:5b:92:c4:67:36:72:45:5a:fb:eb:0d:10:54:a1:cc:f7:7b:16:9c
        Signature Algorithm: sha1WithRSAEncryption
        Issuer: C=AU, O=Dodgy Brothers, CN=Dodgy CA
        Validity
            Not Before: Aug 12 03:08:51 2024 GMT
            Not After : Aug 12 03:08:51 2025 GMT
        Subject: C=AU, O=Dodgy Brothers, CN=Brother 1, CN=lastupdate_invalid
        Subject Public Key Info:
            Public Key Algorithm: rsaEncryption
                Public-Key: (2048 bit)
                Modulus:
                    00:be:95:86:fa:71:4c:6a:ea:51:98:50:4b:99:a1:
                    2c:66:15:f3:60:f3:e1:ff:69:fb:ce:48:01:1d:fe:
                    e1:2c:38:b0:e3:bd:8f:4b:48:a7:7e:3a:c6:73:e3:
                    ab:bf:e1:da:6e:96:f5:fe:c3:e4:b4:a8:ad:bc:56:
                    34:d4:96:25:74:27:c3:10:db:35:10:25:1c:8e:4b:
                    81:9b:fb:42:04:7c:6f:3d:e2:38:6c:0e:e4:2e:8e:
                    2a:18:6d:30:cd:67:2a:23:6b:37:cf:05:9f:cc:b7:
                    59:58:7f:ba:c4:0a:3f:8c:a4:ad:cb:98:9c:c0:f2:
                    8f:69:67:0f:c1:4e:33:cf:fc:85:5e:bb:5e:cf:93:
                    b0:cf:d9:f4:52:79:87:b1:f8:4d:15:68:65:d5:b7:
                    19:08:63:7f:5e:b1:34:ad:05:8f:5a:f0:e4:e1:8f:
                    25:f2:5c:5c:61:95:b0:56:2d:31:2b:08:65:79:e5:
                    b1:3b:9d:3e:b9:52:4b:ac:5d:c4:58:66:85:8d:81:
                    b3:04:28:f4:3f:2f:ac:92:01:62:d5:fd:8e:0b:da:
                    02:0c:7a:c7:6e:09:1c:ac:1c:b2:4c:d7:54:b8:26:
                    33:b2:5f:14:f3:b1:f9:3d:62:4d:40:99:6b:b6:e7:
                    89:58:97:d6:d4:4d:ea:4b:68:52:f3:3c:a8:b1:35:
                    88:db
                Exponent: 65537 (0x10001)
        X509v3 extensions:
            X509v3 Subject Key Identifier: 
                A1:DF:33:C3:CF:3E:53:41:A7:68:44:CC:AA:19:E1:84:C9:0D:BC:C6
            X509v3 Authority Key Identifier: 
                keyid:B4:11:33:F1:D7:E2:5E:F7:53:9E:20:22:10:4F:86:06:BF:1F:C9:5E
                DirName:/C=AU/O=Dodgy Brothers/CN=Dodgy CA
                serial:33:A2:16:6C:56:01:7D:20:55:AD:3F:86:0B:FD:A9:0E:3C:58:B1:04
            X509v3 Basic Constraints: critical
                CA:TRUE, pathlen:1
            X509v3 Key Usage: 
                Certificate Sign, CRL Sign
            X509v3 Issuer Alternative Name: 
                <EMPTY>

    Signature Algorithm: sha1WithRSAEncryption
    Signature Value:
        2f:15:49:d7:b1:50:f2:d3:01:43:fd:01:2b:10:b8:aa:2d:3b:
        b3:90:10:57:73:11:c7:a1:24:c4:e7:34:70:fa:ac:24:89:39:
        16:5a:59:65:f5:80:eb:ca:dd:d1:94:29:99:e6:96:7b:e9:eb:
        5b:81:1f:b2:01:d0:3e:b1:3e:68:b6:f3:f8:fe:77:11:1e:c8:
        87:3d:ec:d5:8e:16:5c:76:f2:c7:84:4f:24:ab:0c:47:ed:5f:
        6d:af:be:25:73:04:3f:13:44:ea:46:f7:8f:07:d4:bc:f3:ac:
        f2:29:1c:a4:a8:e1:87:29:38:7c:ce:c9:bb:b5:98:64:2a:a9:
        e5:d4:3b:5b:0b:59:c0:8f:a1:36:78:84:45:53:3f:0d:99:77:
        30:e9:13:b4:fd:28:17:25:18:c0:68:c9:8c:8e:fd:4e:9d:fa:
        d6:89:3e:0c:3b:77:b8:de:ef:c6:4d:80:f5:87:b5:7f:14:fd:
        40:51:56:24:41:88:8d:8e:70:b7:64:56:00:1b:7a:d4:e9:9f:
        e8:ee:78:51:f4:d2:c0:9f:48:2c:ad:59:fa:89:f5:ac:51:5b:
        73:6e:cd:b7:88:98:b0:3c:dc:ba:42:6e:07:80:f1:9a:b5:b6:
        9c:91:6e:90:84:d3:ed:8e:9e:71:30:4b:80:95:31:fd:bd:29:
        8a:51:04:6d
-----BEGIN CERTIFICATE-----
MIID4zCCAsugAwIBAgIUYluSxGc2ckVa++sNEFShzPd7FpwwDQYJKoZIhvcNAQEF
BQAwOTELMAkGA1UEBhMCQVUxFzAVBgNVBAoMDkRvZGd5IEJyb3RoZXJzMREwDwYD
VQQDDAhEb2RneSBDQTAeFw0yNDA4MTIwMzA4NTFaFw0yNTA4MTIwMzA4NTFaMFcx
CzAJBgNVBAYTAkFVMRcwFQYDVQQKDA5Eb2RneSBCcm90aGVyczESMBAGA1UEAwwJ
QnJvdGhlciAxMRswGQYDVQQDDBJsYXN0dXBkYXRlX2ludmFsaWQwggEiMA0GCSqG
SIb3DQEBAQUAA4IBDwAwggEKAoIBAQC+lYb6cUxq6lGYUEuZoSxmFfNg8+H/afvO
SAEd/uEsOLDjvY9LSKd+OsZz46u/4dpulvX+w+S0qK28VjTUliV0J8MQ2zUQJRyO
S4Gb+0IEfG894jhsDuQujioYbTDNZyojazfPBZ/Mt1lYf7rECj+MpK3LmJzA8o9p
Zw/BTjPP/IVeu17Pk7DP2fRSeYex+E0VaGXVtxkIY39esTStBY9a8OThjyXyXFxh
lbBWLTErCGV55bE7nT65UkusXcRYZoWNgbMEKPQ/L6ySAWLV/Y4L2gIMesduCRys
HLJM11S4JjOyXxTzsfk9Yk1AmWu254lYl9bUTepLaFLzPKixNYjbAgMBAAGjgcQw
gcEwHQYDVR0OBBYEFKHfM8PPPlNBp2hEzKoZ4YTJDbzGMHQGA1UdIwRtMGuAFLQR
M/HX4l73U54gIhBPhga/H8leoT2kOzA5MQswCQYDVQQGEwJBVTEXMBUGA1UECgwO
RG9kZ3kgQnJvdGhlcnMxETAPBgNVBAMMCERvZGd5IENBghQzohZsVgF9IFWtP4YL
/akOPFixBDASBgNVHRMBAf8ECDAGAQH/AgEBMAsGA1UdDwQEAwIBBjAJBgNVHRIE
AjAAMA0GCSqGSIb3DQEBBQUAA4IBAQAvFUnXsVDy0wFD/QErELiqLTuzkBBXcxHH
oSTE5zRw+qwkiTkWWlll9YDryt3RlCmZ5pZ76etbgR+yAdA+sT5otvP4/ncRHsiH
PezVjhZcdvLHhE8kqwxH7V9tr74lcwQ/E0TqRvePB9S886zyKRykqOGHKTh8zsm7
tZhkKqnl1DtbC1nAj6E2eIRFUz8NmXcw6RO0/SgXJRjAaMmMjv1OnfrWiT4MO3e4
3u/GTYD1h7V/FP1AUVYkQYiNjnC3ZFYAG3rU6Z/o7nhR9NLAn0gsrVn6ifWsUVtz
bs23iJiwPNy6Qm4HgPGatbackW6QhNPtjp5xMEuAlTH9vSmKUQRt
-----END CERTIFICATE-----
