Certificate:
    Data:
        Version: 3 (0x2)
        Serial Number:
            62:5b:92:c4:67:36:72:45:5a:fb:eb:0d:10:54:a1:cc:f7:7b:16:98
        Signature Algorithm: sha256WithRSAEncryption
        Issuer: C=AU, O=Dodgy Brothers, CN=Dodgy CA
        Validity
            Not Before: Aug 12 03:08:50 2024 GMT
            Not After : Aug 12 03:08:50 2025 GMT
        Subject: C=AU, O=Dodgy Brothers, CN=Brother 1, CN=Brother 2
        Subject Public Key Info:
            Public Key Algorithm: rsaEncryption
                Public-Key: (2048 bit)
                Modulus:
                    00:a8:ff:89:58:61:85:ae:de:db:2c:0f:d5:73:fb:
                    e2:b7:a8:1b:7a:75:60:2b:d4:7d:3c:73:76:b5:ae:
                    de:93:2f:7f:24:90:6d:c9:1c:f4:8a:38:cd:9f:a2:
                    80:16:56:cb:b4:2c:bb:93:e5:17:1f:ff:0d:c6:43:
                    fe:31:34:f8:28:d8:75:e9:a3:bb:88:82:ef:a3:72:
                    e2:53:62:05:45:4d:e0:31:97:ef:aa:9d:10:d2:58:
                    0d:9e:06:9e:32:bb:1b:08:56:5d:65:0f:3f:66:8e:
                    c2:36:a0:11:ff:c0:59:35:fd:49:1c:dd:1c:42:33:
                    06:78:ae:04:38:23:e5:e7:75:67:d3:94:ad:5a:a9:
                    40:1f:ac:59:10:f5:0c:c1:64:ad:4a:c4:c6:35:53:
                    b3:96:6a:82:1b:15:8b:d1:99:ab:e4:9e:6f:94:aa:
                    d2:96:e5:57:fb:8c:91:64:8a:3c:24:16:c6:d2:19:
                    be:82:60:13:3b:62:b0:ed:3e:1d:b3:ca:f9:6b:df:
                    31:b9:7a:9e:4b:47:68:a7:29:c7:3f:4a:e2:22:27:
                    b4:ef:90:63:d7:ef:d0:72:49:3e:5b:ad:b9:1b:d4:
                    2b:6f:86:68:dd:d5:73:12:b8:43:c9:dc:41:0f:a2:
                    a3:46:4f:8b:67:88:84:0f:61:fe:79:34:1f:4a:89:
                    1f:b7
                Exponent: 65537 (0x10001)
        X509v3 extensions:
            X509v3 Basic Constraints: 
                CA:FALSE
            X509v3 Subject Key Identifier: 
                E7:9B:E2:2A:AD:8A:6C:3A:CB:76:51:E5:8E:07:98:22:97:E1:73:A2
            X509v3 Authority Key Identifier: 
                B4:11:33:F1:D7:E2:5E:F7:53:9E:20:22:10:4F:86:06:BF:1F:C9:5E
    Signature Algorithm: sha256WithRSAEncryption
    Signature Value:
        1c:02:9b:ea:77:f6:6a:da:62:37:c0:db:4a:e3:9e:f0:57:22:
        a4:53:4f:92:6b:b5:6f:dd:0b:a9:62:74:48:8d:9f:4b:f4:a6:
        41:86:aa:28:46:49:c5:8d:52:f0:0d:58:e1:1a:ae:5a:93:8d:
        26:7d:54:5b:49:c3:a8:aa:f2:a0:af:89:13:f8:2a:1d:08:07:
        5b:68:e4:1a:3d:76:bc:da:da:f3:69:94:2f:f3:e2:89:e5:b0:
        35:5f:fd:9c:cb:07:67:3c:6d:ff:11:ae:6b:dc:7e:19:9c:3e:
        cc:95:fd:00:17:3a:02:d9:59:bf:15:cf:b1:23:29:5b:23:c8:
        c9:c9:a1:e5:98:75:c6:d1:20:84:2e:79:61:ef:b5:66:78:95:
        0d:4d:5b:01:e1:04:f9:a1:1f:a3:d6:e2:61:bb:af:12:71:c0:
        20:60:71:99:f9:8a:4f:4e:2c:5f:a0:60:1a:19:33:9d:bd:33:
        cc:47:e0:93:22:b3:48:aa:fb:af:e7:d9:fe:65:28:4e:ce:c1:
        ab:74:8e:5a:63:da:ae:fc:f8:99:b6:32:51:64:03:27:89:55:
        9e:7c:72:9c:52:4a:72:fb:8d:67:8e:77:3f:f8:c2:ad:e1:9f:
        3a:a8:d8:3e:14:28:5c:9f:f4:e8:72:8f:01:af:2a:96:64:e1:
        8b:5a:b2:8d
-----BEGIN CERTIFICATE-----
MIIDYjCCAkqgAwIBAgIUYluSxGc2ckVa++sNEFShzPd7FpgwDQYJKoZIhvcNAQEL
BQAwOTELMAkGA1UEBhMCQVUxFzAVBgNVBAoMDkRvZGd5IEJyb3RoZXJzMREwDwYD
VQQDDAhEb2RneSBDQTAeFw0yNDA4MTIwMzA4NTBaFw0yNTA4MTIwMzA4NTBaME4x
CzAJBgNVBAYTAkFVMRcwFQYDVQQKDA5Eb2RneSBCcm90aGVyczESMBAGA1UEAwwJ
QnJvdGhlciAxMRIwEAYDVQQDDAlCcm90aGVyIDIwggEiMA0GCSqGSIb3DQEBAQUA
A4IBDwAwggEKAoIBAQCo/4lYYYWu3tssD9Vz++K3qBt6dWAr1H08c3a1rt6TL38k
kG3JHPSKOM2fooAWVsu0LLuT5Rcf/w3GQ/4xNPgo2HXpo7uIgu+jcuJTYgVFTeAx
l++qnRDSWA2eBp4yuxsIVl1lDz9mjsI2oBH/wFk1/Ukc3RxCMwZ4rgQ4I+XndWfT
lK1aqUAfrFkQ9QzBZK1KxMY1U7OWaoIbFYvRmavknm+UqtKW5Vf7jJFkijwkFsbS
Gb6CYBM7YrDtPh2zyvlr3zG5ep5LR2inKcc/SuIiJ7TvkGPX79ByST5brbkb1Ctv
hmjd1XMSuEPJ3EEPoqNGT4tniIQPYf55NB9KiR+3AgMBAAGjTTBLMAkGA1UdEwQC
MAAwHQYDVR0OBBYEFOeb4iqtimw6y3ZR5Y4HmCKX4XOiMB8GA1UdIwQYMBaAFLQR
M/HX4l73U54gIhBPhga/H8leMA0GCSqGSIb3DQEBCwUAA4IBAQAcApvqd/Zq2mI3
wNtK457wVyKkU0+Sa7Vv3QupYnRIjZ9L9KZBhqooRknFjVLwDVjhGq5ak40mfVRb
ScOoqvKgr4kT+CodCAdbaOQaPXa82trzaZQv8+KJ5bA1X/2cywdnPG3/Ea5r3H4Z
nD7Mlf0AFzoC2Vm/Fc+xIylbI8jJyaHlmHXG0SCELnlh77VmeJUNTVsB4QT5oR+j
1uJhu68SccAgYHGZ+YpPTixfoGAaGTOdvTPMR+CTIrNIqvuv59n+ZShOzsGrdI5a
Y9qu/PiZtjJRZAMniVWefHKcUkpy+41njnc/+MKt4Z86qNg+FChcn/Toco8BryqW
ZOGLWrKN
-----END CERTIFICATE-----
