Certificate:
    Data:
        Version: 3 (0x2)
        Serial Number:
            62:5b:92:c4:67:36:72:45:5a:fb:eb:0d:10:54:a1:cc:f7:7b:16:a1
        Signature Algorithm: sha1WithRSAEncryption
        Issuer: C=AU, O=Dodgy Brothers, CN=Dodgy CA
        Validity
            Not Before: Aug 12 03:08:51 2024 GMT
            Not After : Aug 12 03:08:51 2025 GMT
        Subject: C=AU, O=Dodgy Brothers, CN=Brother 1, CN=nextupdate_generalizedtime
        Subject Public Key Info:
            Public Key Algorithm: rsaEncryption
                Public-Key: (2048 bit)
                Modulus:
                    00:be:95:86:fa:71:4c:6a:ea:51:98:50:4b:99:a1:
                    2c:66:15:f3:60:f3:e1:ff:69:fb:ce:48:01:1d:fe:
                    e1:2c:38:b0:e3:bd:8f:4b:48:a7:7e:3a:c6:73:e3:
                    ab:bf:e1:da:6e:96:f5:fe:c3:e4:b4:a8:ad:bc:56:
                    34:d4:96:25:74:27:c3:10:db:35:10:25:1c:8e:4b:
                    81:9b:fb:42:04:7c:6f:3d:e2:38:6c:0e:e4:2e:8e:
                    2a:18:6d:30:cd:67:2a:23:6b:37:cf:05:9f:cc:b7:
                    59:58:7f:ba:c4:0a:3f:8c:a4:ad:cb:98:9c:c0:f2:
                    8f:69:67:0f:c1:4e:33:cf:fc:85:5e:bb:5e:cf:93:
                    b0:cf:d9:f4:52:79:87:b1:f8:4d:15:68:65:d5:b7:
                    19:08:63:7f:5e:b1:34:ad:05:8f:5a:f0:e4:e1:8f:
                    25:f2:5c:5c:61:95:b0:56:2d:31:2b:08:65:79:e5:
                    b1:3b:9d:3e:b9:52:4b:ac:5d:c4:58:66:85:8d:81:
                    b3:04:28:f4:3f:2f:ac:92:01:62:d5:fd:8e:0b:da:
                    02:0c:7a:c7:6e:09:1c:ac:1c:b2:4c:d7:54:b8:26:
                    33:b2:5f:14:f3:b1:f9:3d:62:4d:40:99:6b:b6:e7:
                    89:58:97:d6:d4:4d:ea:4b:68:52:f3:3c:a8:b1:35:
                    88:db
                Exponent: 65537 (0x10001)
        X509v3 extensions:
            X509v3 Subject Key Identifier: 
                A1:DF:33:C3:CF:3E:53:41:A7:68:44:CC:AA:19:E1:84:C9:0D:BC:C6
            X509v3 Authority Key Identifier: 
                keyid:B4:11:33:F1:D7:E2:5E:F7:53:9E:20:22:10:4F:86:06:BF:1F:C9:5E
                DirName:/C=AU/O=Dodgy Brothers/CN=Dodgy CA
                serial:33:A2:16:6C:56:01:7D:20:55:AD:3F:86:0B:FD:A9:0E:3C:58:B1:04
            X509v3 Basic Constraints: critical
                CA:TRUE, pathlen:1
            X509v3 Key Usage: 
                Certificate Sign, CRL Sign
            X509v3 Issuer Alternative Name: 
                <EMPTY>

    Signature Algorithm: sha1WithRSAEncryption
    Signature Value:
        60:f8:e4:bc:6b:b0:44:c7:fc:02:c9:3b:4b:2a:29:45:e0:a6:
        08:af:2a:e9:ab:67:8c:23:d1:03:b4:79:d5:f1:c5:c1:71:63:
        c6:91:bf:37:a0:6b:c3:2d:76:1b:a6:c2:90:92:2d:aa:94:9c:
        28:d1:95:57:eb:f8:ac:b4:bd:ff:43:ab:ec:08:1d:08:a2:0d:
        08:ab:18:e9:30:0b:4d:22:db:aa:88:95:0d:f4:04:b7:d2:ec:
        84:80:d6:0a:0d:d9:f1:b3:9b:d2:42:c3:4a:a3:94:b7:50:93:
        f1:ff:67:a5:15:90:69:f3:c5:f7:11:9b:2f:aa:e0:bb:15:22:
        f2:e8:ee:70:ee:84:f1:69:ce:81:3a:b2:37:13:77:53:ce:38:
        a4:a3:8c:e5:dd:3c:ad:6c:52:b8:a8:70:fe:f0:7f:f1:13:44:
        26:60:47:f1:27:19:d1:0a:f3:6a:e8:13:a0:ea:97:f3:e8:87:
        a5:1a:71:e9:22:30:32:cd:96:c9:d5:fb:c4:44:db:a4:97:fb:
        9f:c8:82:ed:c4:8c:04:4d:84:58:1f:f5:50:5c:b6:5c:52:c5:
        7f:5e:fd:7a:a3:a3:d8:73:b1:d1:8f:79:54:8a:6f:8a:b3:d7:
        1f:e0:9a:58:0d:a5:18:c1:b2:d4:fd:78:f1:26:93:fa:4f:d2:
        e3:b8:45:2c
-----BEGIN CERTIFICATE-----
MIID6zCCAtOgAwIBAgIUYluSxGc2ckVa++sNEFShzPd7FqEwDQYJKoZIhvcNAQEF
BQAwOTELMAkGA1UEBhMCQVUxFzAVBgNVBAoMDkRvZGd5IEJyb3RoZXJzMREwDwYD
VQQDDAhEb2RneSBDQTAeFw0yNDA4MTIwMzA4NTFaFw0yNTA4MTIwMzA4NTFaMF8x
CzAJBgNVBAYTAkFVMRcwFQYDVQQKDA5Eb2RneSBCcm90aGVyczESMBAGA1UEAwwJ
QnJvdGhlciAxMSMwIQYDVQQDDBpuZXh0dXBkYXRlX2dlbmVyYWxpemVkdGltZTCC
ASIwDQYJKoZIhvcNAQEBBQADggEPADCCAQoCggEBAL6VhvpxTGrqUZhQS5mhLGYV
82Dz4f9p+85IAR3+4Sw4sOO9j0tIp346xnPjq7/h2m6W9f7D5LSorbxWNNSWJXQn
wxDbNRAlHI5LgZv7QgR8bz3iOGwO5C6OKhhtMM1nKiNrN88Fn8y3WVh/usQKP4yk
rcuYnMDyj2lnD8FOM8/8hV67Xs+TsM/Z9FJ5h7H4TRVoZdW3GQhjf16xNK0Fj1rw
5OGPJfJcXGGVsFYtMSsIZXnlsTudPrlSS6xdxFhmhY2BswQo9D8vrJIBYtX9jgva
Agx6x24JHKwcskzXVLgmM7JfFPOx+T1iTUCZa7bniViX1tRN6ktoUvM8qLE1iNsC
AwEAAaOBxDCBwTAdBgNVHQ4EFgQUod8zw88+U0GnaETMqhnhhMkNvMYwdAYDVR0j
BG0wa4AUtBEz8dfiXvdTniAiEE+GBr8fyV6hPaQ7MDkxCzAJBgNVBAYTAkFVMRcw
FQYDVQQKDA5Eb2RneSBCcm90aGVyczERMA8GA1UEAwwIRG9kZ3kgQ0GCFDOiFmxW
AX0gVa0/hgv9qQ48WLEEMBIGA1UdEwEB/wQIMAYBAf8CAQEwCwYDVR0PBAQDAgEG
MAkGA1UdEgQCMAAwDQYJKoZIhvcNAQEFBQADggEBAGD45LxrsETH/ALJO0sqKUXg
pgivKumrZ4wj0QO0edXxxcFxY8aRvzega8MtdhumwpCSLaqUnCjRlVfr+Ky0vf9D
q+wIHQiiDQirGOkwC00i26qIlQ30BLfS7ISA1goN2fGzm9JCw0qjlLdQk/H/Z6UV
kGnzxfcRmy+q4LsVIvLo7nDuhPFpzoE6sjcTd1POOKSjjOXdPK1sUriocP7wf/ET
RCZgR/EnGdEK82roE6Dql/Poh6UacekiMDLNlsnV+8RE26SX+5/Igu3EjARNhFgf
9VBctlxSxX9e/Xqjo9hzsdGPeVSKb4qz1x/gmlgNpRjBstT9ePEmk/pP0uO4RSw=
-----END CERTIFICATE-----
