Certificate:
    Data:
        Version: 3 (0x2)
        Serial Number:
            62:5b:92:c4:67:36:72:45:5a:fb:eb:0d:10:54:a1:cc:f7:7b:16:99
        Signature Algorithm: SM2-with-SM3
        Issuer: C=CN, ST=LN, L=Shenyang, O=Test Org, OU=Test OU, CN=Test SM2 CA
        Validity
            Not Before: Aug 12 03:08:51 2024 GMT
            Not After : Aug 12 03:08:51 2025 GMT
        Subject: C=CN, ST=Liaoning, L=Shenyang, O=Tet, OU=Tet, CN=oo/emailAddress=oo@oo.oo
        Subject Public Key Info:
            Public Key Algorithm: id-ecPublicKey
                Public-Key: (256 bit)
                pub:
                    04:d4:d8:dd:3a:99:5d:72:34:e4:b9:9a:5d:18:33:
                    72:1c:09:e1:2b:d7:01:d9:16:7b:8c:09:85:ce:de:
                    e3:80:4b:3d:38:74:a0:ad:bd:dc:ae:3c:fe:a8:66:
                    5f:ab:22:79:03:26:6e:95:0e:e0:74:04:73:6f:51:
                    f9:e6:3b:f0:e6
                ASN1 OID: SM2
        X509v3 extensions:
            X509v3 Subject Key Identifier: 
                F6:52:D4:54:D4:26:10:46:F6:AA:D3:B4:8C:E6:F7:5A:BC:B0:2A:B3
            X509v3 Authority Key Identifier: 
                keyid:C5:8D:C5:AE:FF:32:60:49:9E:52:29:49:54:E5:5C:78:FF:45:B9:74
                DirName:/C=CN/ST=LN/L=Shenyang/O=Test Org/OU=Test OU/CN=Test SM2 CA
                serial:E9:64:A4:3A:52:AE:65:5B
            X509v3 Basic Constraints: critical
                CA:TRUE, pathlen:1
            X509v3 Key Usage: 
                Certificate Sign, CRL Sign
            X509v3 Issuer Alternative Name: 
                <EMPTY>

    Signature Algorithm: SM2-with-SM3
    Signature Value:
        30:46:02:21:00:b5:f7:19:38:c5:2c:02:c1:c4:de:9e:5b:63:
        fd:2e:79:10:4b:8c:d5:ad:4c:63:b9:ad:b9:f5:6b:25:c5:fa:
        cc:02:21:00:f3:2b:ee:1d:2e:cb:df:1f:60:f8:7f:95:ae:9b:
        33:05:45:0b:18:b8:65:33:9b:f9:0d:7e:d9:7c:9e:3c:1a:03
-----BEGIN CERTIFICATE-----
MIICzDCCAnGgAwIBAgIUYluSxGc2ckVa++sNEFShzPd7FpkwCgYIKoEcz1UBg3Uw
aDELMAkGA1UEBhMCQ04xCzAJBgNVBAgMAkxOMREwDwYDVQQHDAhTaGVueWFuZzER
MA8GA1UECgwIVGVzdCBPcmcxEDAOBgNVBAsMB1Rlc3QgT1UxFDASBgNVBAMMC1Rl
c3QgU00yIENBMB4XDTI0MDgxMjAzMDg1MVoXDTI1MDgxMjAzMDg1MVowdTELMAkG
A1UEBhMCQ04xETAPBgNVBAgMCExpYW9uaW5nMREwDwYDVQQHDAhTaGVueWFuZzEM
MAoGA1UECgwDVGV0MQwwCgYDVQQLDANUZXQxCzAJBgNVBAMMAm9vMRcwFQYJKoZI
hvcNAQkBFghvb0Bvby5vbzBZMBMGByqGSM49AgEGCCqBHM9VAYItA0IABNTY3TqZ
XXI05LmaXRgzchwJ4SvXAdkWe4wJhc7e44BLPTh0oK293K48/qhmX6sieQMmbpUO
4HQEc29R+eY78OajgeswgegwHQYDVR0OBBYEFPZS1FTUJhBG9qrTtIzm91q8sCqz
MIGaBgNVHSMEgZIwgY+AFMWNxa7/MmBJnlIpSVTlXHj/Rbl0oWykajBoMQswCQYD
VQQGEwJDTjELMAkGA1UECAwCTE4xETAPBgNVBAcMCFNoZW55YW5nMREwDwYDVQQK
DAhUZXN0IE9yZzEQMA4GA1UECwwHVGVzdCBPVTEUMBIGA1UEAwwLVGVzdCBTTTIg
Q0GCCQDpZKQ6Uq5lWzASBgNVHRMBAf8ECDAGAQH/AgEBMAsGA1UdDwQEAwIBBjAJ
BgNVHRIEAjAAMAoGCCqBHM9VAYN1A0kAMEYCIQC19xk4xSwCwcTenltj/S55EEuM
1a1MY7mtufVrJcX6zAIhAPMr7h0uy98fYPh/la6bMwVFCxi4ZTOb+Q1+2XyePBoD
-----END CERTIFICATE-----
