Certificate:
    Data:
        Version: 3 (0x2)
        Serial Number:
            62:5b:92:c4:67:36:72:45:5a:fb:eb:0d:10:54:a1:cc:f7:7b:16:a2
        Signature Algorithm: sha1WithRSAEncryption
        Issuer: C=AU, O=Dodgy Brothers, CN=Dodgy CA
        Validity
            Not Before: Aug 12 03:08:52 2024 GMT
            Not After : Aug 12 03:08:52 2025 GMT
        Subject: C=AU, O=Dodgy Brothers, CN=Brother 1, CN=both_utctime
        Subject Public Key Info:
            Public Key Algorithm: rsaEncryption
                Public-Key: (2048 bit)
                Modulus:
                    00:be:95:86:fa:71:4c:6a:ea:51:98:50:4b:99:a1:
                    2c:66:15:f3:60:f3:e1:ff:69:fb:ce:48:01:1d:fe:
                    e1:2c:38:b0:e3:bd:8f:4b:48:a7:7e:3a:c6:73:e3:
                    ab:bf:e1:da:6e:96:f5:fe:c3:e4:b4:a8:ad:bc:56:
                    34:d4:96:25:74:27:c3:10:db:35:10:25:1c:8e:4b:
                    81:9b:fb:42:04:7c:6f:3d:e2:38:6c:0e:e4:2e:8e:
                    2a:18:6d:30:cd:67:2a:23:6b:37:cf:05:9f:cc:b7:
                    59:58:7f:ba:c4:0a:3f:8c:a4:ad:cb:98:9c:c0:f2:
                    8f:69:67:0f:c1:4e:33:cf:fc:85:5e:bb:5e:cf:93:
                    b0:cf:d9:f4:52:79:87:b1:f8:4d:15:68:65:d5:b7:
                    19:08:63:7f:5e:b1:34:ad:05:8f:5a:f0:e4:e1:8f:
                    25:f2:5c:5c:61:95:b0:56:2d:31:2b:08:65:79:e5:
                    b1:3b:9d:3e:b9:52:4b:ac:5d:c4:58:66:85:8d:81:
                    b3:04:28:f4:3f:2f:ac:92:01:62:d5:fd:8e:0b:da:
                    02:0c:7a:c7:6e:09:1c:ac:1c:b2:4c:d7:54:b8:26:
                    33:b2:5f:14:f3:b1:f9:3d:62:4d:40:99:6b:b6:e7:
                    89:58:97:d6:d4:4d:ea:4b:68:52:f3:3c:a8:b1:35:
                    88:db
                Exponent: 65537 (0x10001)
        X509v3 extensions:
            X509v3 Subject Key Identifier: 
                A1:DF:33:C3:CF:3E:53:41:A7:68:44:CC:AA:19:E1:84:C9:0D:BC:C6
            X509v3 Authority Key Identifier: 
                keyid:B4:11:33:F1:D7:E2:5E:F7:53:9E:20:22:10:4F:86:06:BF:1F:C9:5E
                DirName:/C=AU/O=Dodgy Brothers/CN=Dodgy CA
                serial:33:A2:16:6C:56:01:7D:20:55:AD:3F:86:0B:FD:A9:0E:3C:58:B1:04
            X509v3 Basic Constraints: critical
                CA:TRUE, pathlen:1
            X509v3 Key Usage: 
                Certificate Sign, CRL Sign
            X509v3 Issuer Alternative Name: 
                <EMPTY>

    Signature Algorithm: sha1WithRSAEncryption
    Signature Value:
        05:28:c0:87:e6:8a:26:50:13:ab:17:77:79:e7:e0:0f:b1:fa:
        ef:a6:fc:32:e3:35:96:7d:fd:fe:73:d0:a2:93:2a:71:24:0d:
        5b:d4:e8:75:d0:03:3f:0d:a9:51:4b:62:f8:a4:b0:80:cd:5b:
        1e:4a:30:6a:ad:72:b0:6a:76:3f:a2:73:db:05:91:fa:75:8d:
        70:e8:06:fc:81:1e:2f:5f:7b:e3:23:05:81:12:71:9e:3d:e4:
        df:d4:c9:0d:b1:b3:d5:fe:c1:6b:8e:8a:8f:16:73:00:48:65:
        47:d9:08:13:b6:71:98:e8:ad:09:98:71:0c:e1:75:5f:67:84:
        e2:d9:67:b0:20:90:25:23:f3:4b:c8:89:f2:68:35:86:01:8c:
        7b:17:cc:84:79:58:66:b3:e9:b3:76:11:45:04:1c:cb:87:23:
        96:1d:2f:8b:cf:aa:06:d9:76:46:36:c1:5a:b5:3b:c3:7f:47:
        70:b4:0e:7f:d2:38:a0:32:f7:e2:ec:73:45:08:da:d3:b8:0e:
        bf:e2:43:1d:26:71:b4:0b:b8:71:9b:aa:79:37:00:62:7c:3f:
        bc:4c:d4:b3:f5:83:23:2d:b3:f7:25:49:c5:f0:99:a7:cd:93:
        0a:21:38:71:1a:51:2d:1d:8f:13:28:ef:48:09:cb:1d:12:36:
        87:a4:6d:c9
-----BEGIN CERTIFICATE-----
MIID3TCCAsWgAwIBAgIUYluSxGc2ckVa++sNEFShzPd7FqIwDQYJKoZIhvcNAQEF
BQAwOTELMAkGA1UEBhMCQVUxFzAVBgNVBAoMDkRvZGd5IEJyb3RoZXJzMREwDwYD
VQQDDAhEb2RneSBDQTAeFw0yNDA4MTIwMzA4NTJaFw0yNTA4MTIwMzA4NTJaMFEx
CzAJBgNVBAYTAkFVMRcwFQYDVQQKDA5Eb2RneSBCcm90aGVyczESMBAGA1UEAwwJ
QnJvdGhlciAxMRUwEwYDVQQDDAxib3RoX3V0Y3RpbWUwggEiMA0GCSqGSIb3DQEB
AQUAA4IBDwAwggEKAoIBAQC+lYb6cUxq6lGYUEuZoSxmFfNg8+H/afvOSAEd/uEs
OLDjvY9LSKd+OsZz46u/4dpulvX+w+S0qK28VjTUliV0J8MQ2zUQJRyOS4Gb+0IE
fG894jhsDuQujioYbTDNZyojazfPBZ/Mt1lYf7rECj+MpK3LmJzA8o9pZw/BTjPP
/IVeu17Pk7DP2fRSeYex+E0VaGXVtxkIY39esTStBY9a8OThjyXyXFxhlbBWLTEr
CGV55bE7nT65UkusXcRYZoWNgbMEKPQ/L6ySAWLV/Y4L2gIMesduCRysHLJM11S4
JjOyXxTzsfk9Yk1AmWu254lYl9bUTepLaFLzPKixNYjbAgMBAAGjgcQwgcEwHQYD
VR0OBBYEFKHfM8PPPlNBp2hEzKoZ4YTJDbzGMHQGA1UdIwRtMGuAFLQRM/HX4l73
U54gIhBPhga/H8leoT2kOzA5MQswCQYDVQQGEwJBVTEXMBUGA1UECgwORG9kZ3kg
QnJvdGhlcnMxETAPBgNVBAMMCERvZGd5IENBghQzohZsVgF9IFWtP4YL/akOPFix
BDASBgNVHRMBAf8ECDAGAQH/AgEBMAsGA1UdDwQEAwIBBjAJBgNVHRIEAjAAMA0G
CSqGSIb3DQEBBQUAA4IBAQAFKMCH5oomUBOrF3d55+APsfrvpvwy4zWWff3+c9Ci
kypxJA1b1Oh10AM/DalRS2L4pLCAzVseSjBqrXKwanY/onPbBZH6dY1w6Ab8gR4v
X3vjIwWBEnGePeTf1MkNsbPV/sFrjoqPFnMASGVH2QgTtnGY6K0JmHEM4XVfZ4Ti
2WewIJAlI/NLyInyaDWGAYx7F8yEeVhms+mzdhFFBBzLhyOWHS+Lz6oG2XZGNsFa
tTvDf0dwtA5/0jigMvfi7HNFCNrTuA6/4kMdJnG0C7hxm6p5NwBifD+8TNSz9YMj
LbP3JUnF8JmnzZMKIThxGlEtHY8TKO9ICcsdEjaHpG3J
-----END CERTIFICATE-----
