Certificate:
    Data:
        Version: 3 (0x2)
        Serial Number:
            62:5b:92:c4:67:36:72:45:5a:fb:eb:0d:10:54:a1:cc:f7:7b:16:9a
        Signature Algorithm: sha1WithRSAEncryption
        Issuer: C=AU, O=Dodgy Brothers, CN=Dodgy CA
        Validity
            Not Before: Aug 12 03:08:51 2024 GMT
            Not After : Aug 12 03:08:51 2025 GMT
        Subject: CN=x509-check-test
        Subject Public Key Info:
            Public Key Algorithm: rsaEncryption
                Public-Key: (2048 bit)
                Modulus:
                    00:9d:ea:3a:60:16:23:3f:65:6e:9d:08:99:44:23:
                    19:8a:93:ba:c7:ec:c4:4b:f7:7c:16:df:6a:39:76:
                    e4:f0:b5:3d:5c:b3:fc:be:ca:57:de:cb:49:79:b5:
                    80:73:18:cc:63:50:f3:5e:60:64:c1:aa:2b:b3:ea:
                    e7:95:c8:cb:db:7b:7c:32:99:73:e9:fb:3c:e8:6a:
                    ad:e2:7f:72:72:71:bf:b5:82:ea:d2:ca:24:29:17:
                    a4:f5:3c:b9:9f:24:38:10:41:3d:17:9c:8e:ea:47:
                    01:c8:e4:52:53:bc:a3:3d:9a:9b:f7:88:aa:21:06:
                    c7:93:fd:af:32:7d:d9:36:ef:31:58:ad:23:19:8d:
                    f6:aa:65:cf:b4:6b:5f:1b:1e:2f:d2:80:d3:77:e8:
                    b8:fe:be:73:dc:b3:60:f3:4b:cc:a6:04:9d:74:66:
                    ae:a2:73:2e:b1:2f:7d:2c:1c:32:8f:38:a2:ab:0f:
                    cf:84:27:ab:2e:52:6e:42:a4:b2:f8:37:a8:cf:3a:
                    69:3d:0e:3e:d7:42:fd:98:c2:85:f6:4b:46:2c:e9:
                    d1:69:1e:e1:81:27:53:67:80:15:bf:d1:99:bd:a2:
                    c7:83:3b:1c:6a:a6:53:c6:21:86:bc:9c:de:c1:22:
                    b4:f0:00:91:21:92:62:93:12:2f:4f:f0:03:c8:8b:
                    a0:d5
                Exponent: 65537 (0x10001)
        X509v3 extensions:
            X509v3 Subject Key Identifier: 
                BF:D8:68:6F:B9:F3:A1:9A:3C:92:2E:40:E7:F8:72:A8:92:89:37:7E
            X509v3 Authority Key Identifier: 
                B4:11:33:F1:D7:E2:5E:F7:53:9E:20:22:10:4F:86:06:BF:1F:C9:5E
    Signature Algorithm: sha1WithRSAEncryption
    Signature Value:
        0f:7e:74:b2:68:c7:fe:76:16:7c:cf:ad:5a:c5:fe:1d:f3:90:
        5f:47:22:69:d1:33:83:d3:cd:9b:bd:6f:5f:5d:53:c0:64:3f:
        6f:63:01:a8:ad:82:59:a7:45:ce:22:e7:88:f3:29:fc:51:99:
        31:51:b3:b5:22:d4:73:07:5e:e7:f9:aa:e9:96:51:2f:02:de:
        ff:41:20:71:9d:7a:91:c0:4d:a4:88:d8:d0:81:3a:ed:39:84:
        38:87:95:57:bd:1e:fb:eb:16:8a:db:b2:fd:bd:ae:a2:d2:92:
        06:06:5d:dd:14:01:11:d3:5b:41:1a:4f:68:e9:52:d7:cf:c6:
        9b:c4:a6:06:4e:e6:5a:29:82:1b:54:13:e3:78:4a:1e:7e:3c:
        8a:b9:40:ec:bd:86:b6:fa:13:99:df:61:70:8b:00:39:ad:6f:
        67:e4:79:08:2e:15:21:45:1e:85:31:09:69:03:02:68:0d:9c:
        be:d7:75:35:52:bb:b0:e9:b9:4b:55:b0:38:14:2d:27:fb:78:
        9f:83:bb:32:d5:e0:b1:d0:63:fe:af:77:69:29:23:34:c3:ba:
        63:6a:b0:7a:10:46:a3:80:46:a1:cf:f3:62:02:b0:1b:91:d9:
        bc:2a:9a:c3:dc:4e:8c:ba:62:bb:a4:1f:b3:67:ec:2f:cf:28:
        17:eb:79:25
-----BEGIN CERTIFICATE-----
MIIDIzCCAgugAwIBAgIUYluSxGc2ckVa++sNEFShzPd7FpowDQYJKoZIhvcNAQEF
BQAwOTELMAkGA1UEBhMCQVUxFzAVBgNVBAoMDkRvZGd5IEJyb3RoZXJzMREwDwYD
VQQDDAhEb2RneSBDQTAeFw0yNDA4MTIwMzA4NTFaFw0yNTA4MTIwMzA4NTFaMBox
GDAWBgNVBAMMD3g1MDktY2hlY2stdGVzdDCCASIwDQYJKoZIhvcNAQEBBQADggEP
ADCCAQoCggEBAJ3qOmAWIz9lbp0ImUQjGYqTusfsxEv3fBbfajl25PC1PVyz/L7K
V97LSXm1gHMYzGNQ815gZMGqK7Pq55XIy9t7fDKZc+n7POhqreJ/cnJxv7WC6tLK
JCkXpPU8uZ8kOBBBPRecjupHAcjkUlO8oz2am/eIqiEGx5P9rzJ92TbvMVitIxmN
9qplz7RrXxseL9KA03fouP6+c9yzYPNLzKYEnXRmrqJzLrEvfSwcMo84oqsPz4Qn
qy5SbkKksvg3qM86aT0OPtdC/ZjChfZLRizp0Wke4YEnU2eAFb/Rmb2ix4M7HGqm
U8Yhhryc3sEitPAAkSGSYpMSL0/wA8iLoNUCAwEAAaNCMEAwHQYDVR0OBBYEFL/Y
aG+586GaPJIuQOf4cqiSiTd+MB8GA1UdIwQYMBaAFLQRM/HX4l73U54gIhBPhga/
H8leMA0GCSqGSIb3DQEBBQUAA4IBAQAPfnSyaMf+dhZ8z61axf4d85BfRyJp0TOD
082bvW9fXVPAZD9vYwGorYJZp0XOIueI8yn8UZkxUbO1ItRzB17n+arpllEvAt7/
QSBxnXqRwE2kiNjQgTrtOYQ4h5VXvR776xaK27L9va6i0pIGBl3dFAER01tBGk9o
6VLXz8abxKYGTuZaKYIbVBPjeEoefjyKuUDsvYa2+hOZ32FwiwA5rW9n5HkILhUh
RR6FMQlpAwJoDZy+13U1Uruw6blLVbA4FC0n+3ifg7sy1eCx0GP+r3dpKSM0w7pj
arB6EEajgEahz/NiArAbkdm8KprD3E6MumK7pB+zZ+wvzygX63kl
-----END CERTIFICATE-----
