Certificate:
    Data:
        Version: 3 (0x2)
        Serial Number:
            6f:1e:9a:03:72:dd:db:48:cd:c2:2a:1b:24:6b:8d:92:c2:10:75:d0
        Signature Algorithm: SM2-with-SM3
        Issuer: C=CN, ST=LN, L=Shenyang, O=Test Org, OU=Test OU, CN=Test SM2 CA
        Validity
            Not Before: Aug 12 00:44:58 2024 GMT
            Not After : Aug 12 00:44:58 2025 GMT
        Subject: C=CN, ST=Liaoning, L=Shenyang, O=Tet, OU=Tet, CN=oo/emailAddress=oo@oo.oo
        Subject Public Key Info:
            Public Key Algorithm: id-ecPublicKey
                Public-Key: (256 bit)
                pub:
                    04:d4:d8:dd:3a:99:5d:72:34:e4:b9:9a:5d:18:33:
                    72:1c:09:e1:2b:d7:01:d9:16:7b:8c:09:85:ce:de:
                    e3:80:4b:3d:38:74:a0:ad:bd:dc:ae:3c:fe:a8:66:
                    5f:ab:22:79:03:26:6e:95:0e:e0:74:04:73:6f:51:
                    f9:e6:3b:f0:e6
                ASN1 OID: SM2
        X509v3 extensions:
            X509v3 Subject Key Identifier: 
                F6:52:D4:54:D4:26:10:46:F6:AA:D3:B4:8C:E6:F7:5A:BC:B0:2A:B3
            X509v3 Authority Key Identifier: 
                keyid:C5:8D:C5:AE:FF:32:60:49:9E:52:29:49:54:E5:5C:78:FF:45:B9:74
                DirName:/C=CN/ST=LN/L=Shenyang/O=Test Org/OU=Test OU/CN=Test SM2 CA
                serial:E9:64:A4:3A:52:AE:65:5B
            X509v3 Basic Constraints: critical
                CA:TRUE, pathlen:1
            X509v3 Key Usage: 
                Certificate Sign, CRL Sign
            X509v3 Issuer Alternative Name: 
                <EMPTY>

    Signature Algorithm: SM2-with-SM3
    Signature Value:
        30:44:02:20:71:cc:1a:bd:b7:e4:ed:9f:ae:d2:3c:c7:34:e4:
        a6:d0:e2:aa:3b:e8:cf:6a:e5:f0:fe:be:db:e7:4c:f2:a6:a3:
        02:20:4d:b7:c5:4a:fe:11:1c:b3:be:d0:67:81:f3:5b:4c:1f:
        71:58:88:6c:e0:be:3e:b1:27:0e:5b:05:1e:84:c3:4b
-----BEGIN CERTIFICATE-----
MIICyjCCAnGgAwIBAgIUbx6aA3Ld20jNwiobJGuNksIQddAwCgYIKoEcz1UBg3Uw
aDELMAkGA1UEBhMCQ04xCzAJBgNVBAgMAkxOMREwDwYDVQQHDAhTaGVueWFuZzER
MA8GA1UECgwIVGVzdCBPcmcxEDAOBgNVBAsMB1Rlc3QgT1UxFDASBgNVBAMMC1Rl
c3QgU00yIENBMB4XDTI0MDgxMjAwNDQ1OFoXDTI1MDgxMjAwNDQ1OFowdTELMAkG
A1UEBhMCQ04xETAPBgNVBAgMCExpYW9uaW5nMREwDwYDVQQHDAhTaGVueWFuZzEM
MAoGA1UECgwDVGV0MQwwCgYDVQQLDANUZXQxCzAJBgNVBAMMAm9vMRcwFQYJKoZI
hvcNAQkBFghvb0Bvby5vbzBZMBMGByqGSM49AgEGCCqBHM9VAYItA0IABNTY3TqZ
XXI05LmaXRgzchwJ4SvXAdkWe4wJhc7e44BLPTh0oK293K48/qhmX6sieQMmbpUO
4HQEc29R+eY78OajgeswgegwHQYDVR0OBBYEFPZS1FTUJhBG9qrTtIzm91q8sCqz
MIGaBgNVHSMEgZIwgY+AFMWNxa7/MmBJnlIpSVTlXHj/Rbl0oWykajBoMQswCQYD
VQQGEwJDTjELMAkGA1UECAwCTE4xETAPBgNVBAcMCFNoZW55YW5nMREwDwYDVQQK
DAhUZXN0IE9yZzEQMA4GA1UECwwHVGVzdCBPVTEUMBIGA1UEAwwLVGVzdCBTTTIg
Q0GCCQDpZKQ6Uq5lWzASBgNVHRMBAf8ECDAGAQH/AgEBMAsGA1UdDwQEAwIBBjAJ
BgNVHRIEAjAAMAoGCCqBHM9VAYN1A0cAMEQCIHHMGr235O2frtI8xzTkptDiqjvo
z2rl8P6+2+dM8qajAiBNt8VK/hEcs77QZ4HzW0wfcViIbOC+PrEnDlsFHoTDSw==
-----END CERTIFICATE-----
