Certificate:
    Data:
        Version: 3 (0x2)
        Serial Number:
            6f:1e:9a:03:72:dd:db:48:cd:c2:2a:1b:24:6b:8d:92:c2:10:75:d1
        Signature Algorithm: sha1WithRSAEncryption
        Issuer: C=AU, O=Dodgy Brothers, CN=Dodgy CA
        Validity
            Not Before: Aug 12 00:44:58 2024 GMT
            Not After : Aug 12 00:44:58 2025 GMT
        Subject: CN=x509-check-test
        Subject Public Key Info:
            Public Key Algorithm: rsaEncryption
                Public-Key: (2048 bit)
                Modulus:
                    00:9d:ea:3a:60:16:23:3f:65:6e:9d:08:99:44:23:
                    19:8a:93:ba:c7:ec:c4:4b:f7:7c:16:df:6a:39:76:
                    e4:f0:b5:3d:5c:b3:fc:be:ca:57:de:cb:49:79:b5:
                    80:73:18:cc:63:50:f3:5e:60:64:c1:aa:2b:b3:ea:
                    e7:95:c8:cb:db:7b:7c:32:99:73:e9:fb:3c:e8:6a:
                    ad:e2:7f:72:72:71:bf:b5:82:ea:d2:ca:24:29:17:
                    a4:f5:3c:b9:9f:24:38:10:41:3d:17:9c:8e:ea:47:
                    01:c8:e4:52:53:bc:a3:3d:9a:9b:f7:88:aa:21:06:
                    c7:93:fd:af:32:7d:d9:36:ef:31:58:ad:23:19:8d:
                    f6:aa:65:cf:b4:6b:5f:1b:1e:2f:d2:80:d3:77:e8:
                    b8:fe:be:73:dc:b3:60:f3:4b:cc:a6:04:9d:74:66:
                    ae:a2:73:2e:b1:2f:7d:2c:1c:32:8f:38:a2:ab:0f:
                    cf:84:27:ab:2e:52:6e:42:a4:b2:f8:37:a8:cf:3a:
                    69:3d:0e:3e:d7:42:fd:98:c2:85:f6:4b:46:2c:e9:
                    d1:69:1e:e1:81:27:53:67:80:15:bf:d1:99:bd:a2:
                    c7:83:3b:1c:6a:a6:53:c6:21:86:bc:9c:de:c1:22:
                    b4:f0:00:91:21:92:62:93:12:2f:4f:f0:03:c8:8b:
                    a0:d5
                Exponent: 65537 (0x10001)
        X509v3 extensions:
            X509v3 Subject Key Identifier: 
                BF:D8:68:6F:B9:F3:A1:9A:3C:92:2E:40:E7:F8:72:A8:92:89:37:7E
            X509v3 Authority Key Identifier: 
                B4:11:33:F1:D7:E2:5E:F7:53:9E:20:22:10:4F:86:06:BF:1F:C9:5E
    Signature Algorithm: sha1WithRSAEncryption
    Signature Value:
        87:7f:05:64:bc:c6:a5:26:85:2b:20:3b:a7:1e:89:f8:35:35:
        12:6f:26:8f:fc:c6:ca:cf:d2:4e:8f:1f:e3:0d:b2:33:9d:85:
        b8:a8:2d:2c:8e:4a:01:be:63:f1:9a:53:8b:01:a8:56:d6:20:
        b2:94:c8:ab:a0:2d:94:82:66:b8:e3:f2:c5:2b:71:46:b5:55:
        99:b7:b2:89:62:0f:c8:26:71:3e:90:32:ed:5a:be:fb:bf:e7:
        99:d3:ab:7b:b3:69:e3:8d:43:f2:1c:e1:f6:0e:e4:38:0d:9a:
        08:79:55:f1:55:34:04:5a:bc:a6:b9:db:2f:89:85:0f:8a:27:
        11:fc:bd:77:4c:68:17:a2:f0:34:59:7c:55:20:7a:ab:01:a4:
        74:37:96:3a:bb:6a:a7:94:57:e5:cc:cf:6a:f8:6e:24:57:9d:
        a2:23:45:b8:8a:62:a9:7f:97:bd:15:ae:49:91:34:34:12:a1:
        c8:2c:72:31:a8:dc:d6:9e:d8:53:a4:93:ad:2a:62:71:45:51:
        ec:4c:be:9a:04:33:c7:7d:74:83:20:b6:b6:45:89:81:30:c5:
        a0:e5:4d:f3:8e:7f:80:2c:0d:ee:7d:1b:a7:61:7e:bf:20:a4:
        c1:90:a4:2c:da:e8:ea:6b:5c:9a:98:73:01:f1:5f:34:7c:38:
        e3:e7:be:0a
-----BEGIN CERTIFICATE-----
MIIDIzCCAgugAwIBAgIUbx6aA3Ld20jNwiobJGuNksIQddEwDQYJKoZIhvcNAQEF
BQAwOTELMAkGA1UEBhMCQVUxFzAVBgNVBAoMDkRvZGd5IEJyb3RoZXJzMREwDwYD
VQQDDAhEb2RneSBDQTAeFw0yNDA4MTIwMDQ0NThaFw0yNTA4MTIwMDQ0NThaMBox
GDAWBgNVBAMMD3g1MDktY2hlY2stdGVzdDCCASIwDQYJKoZIhvcNAQEBBQADggEP
ADCCAQoCggEBAJ3qOmAWIz9lbp0ImUQjGYqTusfsxEv3fBbfajl25PC1PVyz/L7K
V97LSXm1gHMYzGNQ815gZMGqK7Pq55XIy9t7fDKZc+n7POhqreJ/cnJxv7WC6tLK
JCkXpPU8uZ8kOBBBPRecjupHAcjkUlO8oz2am/eIqiEGx5P9rzJ92TbvMVitIxmN
9qplz7RrXxseL9KA03fouP6+c9yzYPNLzKYEnXRmrqJzLrEvfSwcMo84oqsPz4Qn
qy5SbkKksvg3qM86aT0OPtdC/ZjChfZLRizp0Wke4YEnU2eAFb/Rmb2ix4M7HGqm
U8Yhhryc3sEitPAAkSGSYpMSL0/wA8iLoNUCAwEAAaNCMEAwHQYDVR0OBBYEFL/Y
aG+586GaPJIuQOf4cqiSiTd+MB8GA1UdIwQYMBaAFLQRM/HX4l73U54gIhBPhga/
H8leMA0GCSqGSIb3DQEBBQUAA4IBAQCHfwVkvMalJoUrIDunHon4NTUSbyaP/MbK
z9JOjx/jDbIznYW4qC0sjkoBvmPxmlOLAahW1iCylMiroC2Ugma44/LFK3FGtVWZ
t7KJYg/IJnE+kDLtWr77v+eZ06t7s2njjUPyHOH2DuQ4DZoIeVXxVTQEWrymudsv
iYUPiicR/L13TGgXovA0WXxVIHqrAaR0N5Y6u2qnlFflzM9q+G4kV52iI0W4imKp
f5e9Fa5JkTQ0EqHILHIxqNzWnthTpJOtKmJxRVHsTL6aBDPHfXSDILa2RYmBMMWg
5U3zjn+ALA3ufRunYX6/IKTBkKQs2ujqa1yamHMB8V80fDjj574K
-----END CERTIFICATE-----
