Certificate:
    Data:
        Version: 3 (0x2)
        Serial Number:
            6f:1e:9a:03:72:dd:db:48:cd:c2:2a:1b:24:6b:8d:92:c2:10:75:d6
        Signature Algorithm: sha1WithRSAEncryption
        Issuer: C=AU, O=Dodgy Brothers, CN=Dodgy CA
        Validity
            Not Before: Aug 12 00:44:59 2024 GMT
            Not After : Aug 12 00:44:59 2025 GMT
        Subject: C=AU, O=Dodgy Brothers, CN=Brother 1, CN=nextupdate_invalid
        Subject Public Key Info:
            Public Key Algorithm: rsaEncryption
                Public-Key: (2048 bit)
                Modulus:
                    00:be:95:86:fa:71:4c:6a:ea:51:98:50:4b:99:a1:
                    2c:66:15:f3:60:f3:e1:ff:69:fb:ce:48:01:1d:fe:
                    e1:2c:38:b0:e3:bd:8f:4b:48:a7:7e:3a:c6:73:e3:
                    ab:bf:e1:da:6e:96:f5:fe:c3:e4:b4:a8:ad:bc:56:
                    34:d4:96:25:74:27:c3:10:db:35:10:25:1c:8e:4b:
                    81:9b:fb:42:04:7c:6f:3d:e2:38:6c:0e:e4:2e:8e:
                    2a:18:6d:30:cd:67:2a:23:6b:37:cf:05:9f:cc:b7:
                    59:58:7f:ba:c4:0a:3f:8c:a4:ad:cb:98:9c:c0:f2:
                    8f:69:67:0f:c1:4e:33:cf:fc:85:5e:bb:5e:cf:93:
                    b0:cf:d9:f4:52:79:87:b1:f8:4d:15:68:65:d5:b7:
                    19:08:63:7f:5e:b1:34:ad:05:8f:5a:f0:e4:e1:8f:
                    25:f2:5c:5c:61:95:b0:56:2d:31:2b:08:65:79:e5:
                    b1:3b:9d:3e:b9:52:4b:ac:5d:c4:58:66:85:8d:81:
                    b3:04:28:f4:3f:2f:ac:92:01:62:d5:fd:8e:0b:da:
                    02:0c:7a:c7:6e:09:1c:ac:1c:b2:4c:d7:54:b8:26:
                    33:b2:5f:14:f3:b1:f9:3d:62:4d:40:99:6b:b6:e7:
                    89:58:97:d6:d4:4d:ea:4b:68:52:f3:3c:a8:b1:35:
                    88:db
                Exponent: 65537 (0x10001)
        X509v3 extensions:
            X509v3 Subject Key Identifier: 
                A1:DF:33:C3:CF:3E:53:41:A7:68:44:CC:AA:19:E1:84:C9:0D:BC:C6
            X509v3 Authority Key Identifier: 
                keyid:B4:11:33:F1:D7:E2:5E:F7:53:9E:20:22:10:4F:86:06:BF:1F:C9:5E
                DirName:/C=AU/O=Dodgy Brothers/CN=Dodgy CA
                serial:72:BD:08:50:B3:F6:1E:9B:52:7A:8B:4A:46:D3:12:9A:51:77:66:FB
            X509v3 Basic Constraints: critical
                CA:TRUE, pathlen:1
            X509v3 Key Usage: 
                Certificate Sign, CRL Sign
            X509v3 Issuer Alternative Name: 
                <EMPTY>

    Signature Algorithm: sha1WithRSAEncryption
    Signature Value:
        5c:80:d8:a3:dc:90:c9:54:60:bd:fc:77:6c:3c:7f:39:cc:d4:
        12:44:6d:98:56:a4:64:99:d3:67:2a:73:2e:86:93:45:9b:2b:
        9b:ec:73:5a:f2:9e:14:1d:d0:17:2d:f5:e5:c1:83:f7:04:59:
        16:ab:a1:a1:c5:de:ef:6c:a8:f8:28:fb:cf:a4:33:0e:71:60:
        9e:15:4f:55:40:f8:89:0d:28:33:c2:6c:9c:7b:2d:81:26:6f:
        70:89:34:31:55:f7:83:91:c3:34:0d:8c:29:2e:fb:92:b8:3f:
        db:e8:9d:4c:79:2d:65:94:81:bc:3f:58:2f:af:67:dd:10:9d:
        d0:3f:0e:5e:60:07:e0:c5:05:a9:31:be:62:c2:e2:d4:8b:3c:
        99:ce:f5:5c:28:ed:8e:26:8c:21:1d:db:44:d7:6c:fd:eb:cb:
        8e:3f:2f:cf:af:5b:32:05:3a:3e:48:cb:15:97:7f:ca:ed:79:
        c4:76:44:b2:28:0e:7e:7f:06:a4:5a:11:be:ba:7c:ce:97:18:
        4d:a6:76:5c:3d:9d:29:c3:6d:2f:91:9c:50:78:f9:2d:0c:00:
        06:84:3c:30:64:b4:f4:b0:c3:8d:2e:cd:c4:ce:42:fa:06:d1:
        dd:40:51:89:40:b0:91:12:6c:59:ed:0a:52:76:da:84:8e:4a:
        1d:d8:1f:96
-----BEGIN CERTIFICATE-----
MIID4zCCAsugAwIBAgIUbx6aA3Ld20jNwiobJGuNksIQddYwDQYJKoZIhvcNAQEF
BQAwOTELMAkGA1UEBhMCQVUxFzAVBgNVBAoMDkRvZGd5IEJyb3RoZXJzMREwDwYD
VQQDDAhEb2RneSBDQTAeFw0yNDA4MTIwMDQ0NTlaFw0yNTA4MTIwMDQ0NTlaMFcx
CzAJBgNVBAYTAkFVMRcwFQYDVQQKDA5Eb2RneSBCcm90aGVyczESMBAGA1UEAwwJ
QnJvdGhlciAxMRswGQYDVQQDDBJuZXh0dXBkYXRlX2ludmFsaWQwggEiMA0GCSqG
SIb3DQEBAQUAA4IBDwAwggEKAoIBAQC+lYb6cUxq6lGYUEuZoSxmFfNg8+H/afvO
SAEd/uEsOLDjvY9LSKd+OsZz46u/4dpulvX+w+S0qK28VjTUliV0J8MQ2zUQJRyO
S4Gb+0IEfG894jhsDuQujioYbTDNZyojazfPBZ/Mt1lYf7rECj+MpK3LmJzA8o9p
Zw/BTjPP/IVeu17Pk7DP2fRSeYex+E0VaGXVtxkIY39esTStBY9a8OThjyXyXFxh
lbBWLTErCGV55bE7nT65UkusXcRYZoWNgbMEKPQ/L6ySAWLV/Y4L2gIMesduCRys
HLJM11S4JjOyXxTzsfk9Yk1AmWu254lYl9bUTepLaFLzPKixNYjbAgMBAAGjgcQw
gcEwHQYDVR0OBBYEFKHfM8PPPlNBp2hEzKoZ4YTJDbzGMHQGA1UdIwRtMGuAFLQR
M/HX4l73U54gIhBPhga/H8leoT2kOzA5MQswCQYDVQQGEwJBVTEXMBUGA1UECgwO
RG9kZ3kgQnJvdGhlcnMxETAPBgNVBAMMCERvZGd5IENBghRyvQhQs/Yem1J6i0pG
0xKaUXdm+zASBgNVHRMBAf8ECDAGAQH/AgEBMAsGA1UdDwQEAwIBBjAJBgNVHRIE
AjAAMA0GCSqGSIb3DQEBBQUAA4IBAQBcgNij3JDJVGC9/HdsPH85zNQSRG2YVqRk
mdNnKnMuhpNFmyub7HNa8p4UHdAXLfXlwYP3BFkWq6Ghxd7vbKj4KPvPpDMOcWCe
FU9VQPiJDSgzwmycey2BJm9wiTQxVfeDkcM0DYwpLvuSuD/b6J1MeS1llIG8P1gv
r2fdEJ3QPw5eYAfgxQWpMb5iwuLUizyZzvVcKO2OJowhHdtE12z968uOPy/Pr1sy
BTo+SMsVl3/K7XnEdkSyKA5+fwakWhG+unzOlxhNpnZcPZ0pw20vkZxQePktDAAG
hDwwZLT0sMONLs3EzkL6BtHdQFGJQLCREmxZ7QpSdtqEjkod2B+W
-----END CERTIFICATE-----
