Certificate:
    Data:
        Version: 3 (0x2)
        Serial Number:
            6f:1e:9a:03:72:dd:db:48:cd:c2:2a:1b:24:6b:8d:92:c2:10:75:cf
        Signature Algorithm: sha256WithRSAEncryption
        Issuer: C=AU, O=Dodgy Brothers, CN=Dodgy CA
        Validity
            Not Before: Aug 12 00:44:58 2024 GMT
            Not After : Aug 12 00:44:58 2025 GMT
        Subject: C=AU, O=Dodgy Brothers, CN=Brother 1, CN=Brother 2
        Subject Public Key Info:
            Public Key Algorithm: rsaEncryption
                Public-Key: (2048 bit)
                Modulus:
                    00:a8:ff:89:58:61:85:ae:de:db:2c:0f:d5:73:fb:
                    e2:b7:a8:1b:7a:75:60:2b:d4:7d:3c:73:76:b5:ae:
                    de:93:2f:7f:24:90:6d:c9:1c:f4:8a:38:cd:9f:a2:
                    80:16:56:cb:b4:2c:bb:93:e5:17:1f:ff:0d:c6:43:
                    fe:31:34:f8:28:d8:75:e9:a3:bb:88:82:ef:a3:72:
                    e2:53:62:05:45:4d:e0:31:97:ef:aa:9d:10:d2:58:
                    0d:9e:06:9e:32:bb:1b:08:56:5d:65:0f:3f:66:8e:
                    c2:36:a0:11:ff:c0:59:35:fd:49:1c:dd:1c:42:33:
                    06:78:ae:04:38:23:e5:e7:75:67:d3:94:ad:5a:a9:
                    40:1f:ac:59:10:f5:0c:c1:64:ad:4a:c4:c6:35:53:
                    b3:96:6a:82:1b:15:8b:d1:99:ab:e4:9e:6f:94:aa:
                    d2:96:e5:57:fb:8c:91:64:8a:3c:24:16:c6:d2:19:
                    be:82:60:13:3b:62:b0:ed:3e:1d:b3:ca:f9:6b:df:
                    31:b9:7a:9e:4b:47:68:a7:29:c7:3f:4a:e2:22:27:
                    b4:ef:90:63:d7:ef:d0:72:49:3e:5b:ad:b9:1b:d4:
                    2b:6f:86:68:dd:d5:73:12:b8:43:c9:dc:41:0f:a2:
                    a3:46:4f:8b:67:88:84:0f:61:fe:79:34:1f:4a:89:
                    1f:b7
                Exponent: 65537 (0x10001)
        X509v3 extensions:
            X509v3 Basic Constraints: 
                CA:FALSE
            X509v3 Subject Key Identifier: 
                E7:9B:E2:2A:AD:8A:6C:3A:CB:76:51:E5:8E:07:98:22:97:E1:73:A2
            X509v3 Authority Key Identifier: 
                B4:11:33:F1:D7:E2:5E:F7:53:9E:20:22:10:4F:86:06:BF:1F:C9:5E
    Signature Algorithm: sha256WithRSAEncryption
    Signature Value:
        81:cd:87:0b:cd:d2:e6:c8:79:7a:ea:27:88:32:71:a2:c9:7b:
        d4:51:a2:4a:54:70:de:a7:46:48:5b:94:1b:48:ac:bf:88:89:
        8c:65:31:bc:fc:8c:57:69:ff:fd:f3:68:f8:f5:5d:1b:06:d9:
        63:ff:eb:75:3a:a0:aa:c1:d1:9b:15:19:ea:f7:bd:fa:35:0d:
        58:a5:c2:3d:5b:a6:59:64:b7:d8:cf:f1:63:1e:86:2c:5c:66:
        f2:60:ba:4a:58:95:04:d3:18:e2:d9:e3:a6:1e:08:46:51:c6:
        02:ac:b6:fc:8c:89:72:db:51:09:a3:72:67:d5:46:43:27:4b:
        de:4a:28:ec:d1:4a:85:e0:6b:81:b5:09:1b:67:06:bb:3c:2c:
        fa:ab:57:78:4c:1e:e5:60:be:30:55:4b:91:f8:e6:c9:fa:a8:
        52:89:85:a7:2b:de:55:7b:62:60:38:0a:87:46:b7:54:e8:3d:
        1e:35:14:c4:8d:b6:71:cf:3f:20:57:7d:33:47:21:95:33:51:
        64:a4:bc:f1:7e:b6:7a:c6:ca:ac:1c:61:ca:84:58:46:3b:e5:
        b3:2a:f2:aa:39:4c:23:40:94:63:e9:47:26:49:7e:d1:dd:be:
        f0:51:a8:e7:10:b8:a5:f0:1b:7f:fb:bd:fa:81:37:78:6b:c7:
        12:ee:9b:a7
-----BEGIN CERTIFICATE-----
MIIDYjCCAkqgAwIBAgIUbx6aA3Ld20jNwiobJGuNksIQdc8wDQYJKoZIhvcNAQEL
BQAwOTELMAkGA1UEBhMCQVUxFzAVBgNVBAoMDkRvZGd5IEJyb3RoZXJzMREwDwYD
VQQDDAhEb2RneSBDQTAeFw0yNDA4MTIwMDQ0NThaFw0yNTA4MTIwMDQ0NThaME4x
CzAJBgNVBAYTAkFVMRcwFQYDVQQKDA5Eb2RneSBCcm90aGVyczESMBAGA1UEAwwJ
QnJvdGhlciAxMRIwEAYDVQQDDAlCcm90aGVyIDIwggEiMA0GCSqGSIb3DQEBAQUA
A4IBDwAwggEKAoIBAQCo/4lYYYWu3tssD9Vz++K3qBt6dWAr1H08c3a1rt6TL38k
kG3JHPSKOM2fooAWVsu0LLuT5Rcf/w3GQ/4xNPgo2HXpo7uIgu+jcuJTYgVFTeAx
l++qnRDSWA2eBp4yuxsIVl1lDz9mjsI2oBH/wFk1/Ukc3RxCMwZ4rgQ4I+XndWfT
lK1aqUAfrFkQ9QzBZK1KxMY1U7OWaoIbFYvRmavknm+UqtKW5Vf7jJFkijwkFsbS
Gb6CYBM7YrDtPh2zyvlr3zG5ep5LR2inKcc/SuIiJ7TvkGPX79ByST5brbkb1Ctv
hmjd1XMSuEPJ3EEPoqNGT4tniIQPYf55NB9KiR+3AgMBAAGjTTBLMAkGA1UdEwQC
MAAwHQYDVR0OBBYEFOeb4iqtimw6y3ZR5Y4HmCKX4XOiMB8GA1UdIwQYMBaAFLQR
M/HX4l73U54gIhBPhga/H8leMA0GCSqGSIb3DQEBCwUAA4IBAQCBzYcLzdLmyHl6
6ieIMnGiyXvUUaJKVHDep0ZIW5QbSKy/iImMZTG8/IxXaf/982j49V0bBtlj/+t1
OqCqwdGbFRnq9736NQ1YpcI9W6ZZZLfYz/FjHoYsXGbyYLpKWJUE0xji2eOmHghG
UcYCrLb8jIly21EJo3Jn1UZDJ0veSijs0UqF4GuBtQkbZwa7PCz6q1d4TB7lYL4w
VUuR+ObJ+qhSiYWnK95Ve2JgOAqHRrdU6D0eNRTEjbZxzz8gV30zRyGVM1FkpLzx
frZ6xsqsHGHKhFhGO+WzKvKqOUwjQJRj6UcmSX7R3b7wUajnELil8Bt/+736gTd4
a8cS7pun
-----END CERTIFICATE-----
