Certificate:
    Data:
        Version: 3 (0x2)
        Serial Number:
            6f:1e:9a:03:72:dd:db:48:cd:c2:2a:1b:24:6b:8d:92:c2:10:75:d3
        Signature Algorithm: sha1WithRSAEncryption
        Issuer: C=AU, O=Dodgy Brothers, CN=Dodgy CA
        Validity
            Not Before: Aug 12 00:44:58 2024 GMT
            Not After : Aug 12 00:44:58 2025 GMT
        Subject: C=AU, O=Dodgy Brothers, CN=Brother 1, CN=lastupdate_invalid
        Subject Public Key Info:
            Public Key Algorithm: rsaEncryption
                Public-Key: (2048 bit)
                Modulus:
                    00:be:95:86:fa:71:4c:6a:ea:51:98:50:4b:99:a1:
                    2c:66:15:f3:60:f3:e1:ff:69:fb:ce:48:01:1d:fe:
                    e1:2c:38:b0:e3:bd:8f:4b:48:a7:7e:3a:c6:73:e3:
                    ab:bf:e1:da:6e:96:f5:fe:c3:e4:b4:a8:ad:bc:56:
                    34:d4:96:25:74:27:c3:10:db:35:10:25:1c:8e:4b:
                    81:9b:fb:42:04:7c:6f:3d:e2:38:6c:0e:e4:2e:8e:
                    2a:18:6d:30:cd:67:2a:23:6b:37:cf:05:9f:cc:b7:
                    59:58:7f:ba:c4:0a:3f:8c:a4:ad:cb:98:9c:c0:f2:
                    8f:69:67:0f:c1:4e:33:cf:fc:85:5e:bb:5e:cf:93:
                    b0:cf:d9:f4:52:79:87:b1:f8:4d:15:68:65:d5:b7:
                    19:08:63:7f:5e:b1:34:ad:05:8f:5a:f0:e4:e1:8f:
                    25:f2:5c:5c:61:95:b0:56:2d:31:2b:08:65:79:e5:
                    b1:3b:9d:3e:b9:52:4b:ac:5d:c4:58:66:85:8d:81:
                    b3:04:28:f4:3f:2f:ac:92:01:62:d5:fd:8e:0b:da:
                    02:0c:7a:c7:6e:09:1c:ac:1c:b2:4c:d7:54:b8:26:
                    33:b2:5f:14:f3:b1:f9:3d:62:4d:40:99:6b:b6:e7:
                    89:58:97:d6:d4:4d:ea:4b:68:52:f3:3c:a8:b1:35:
                    88:db
                Exponent: 65537 (0x10001)
        X509v3 extensions:
            X509v3 Subject Key Identifier: 
                A1:DF:33:C3:CF:3E:53:41:A7:68:44:CC:AA:19:E1:84:C9:0D:BC:C6
            X509v3 Authority Key Identifier: 
                keyid:B4:11:33:F1:D7:E2:5E:F7:53:9E:20:22:10:4F:86:06:BF:1F:C9:5E
                DirName:/C=AU/O=Dodgy Brothers/CN=Dodgy CA
                serial:72:BD:08:50:B3:F6:1E:9B:52:7A:8B:4A:46:D3:12:9A:51:77:66:FB
            X509v3 Basic Constraints: critical
                CA:TRUE, pathlen:1
            X509v3 Key Usage: 
                Certificate Sign, CRL Sign
            X509v3 Issuer Alternative Name: 
                <EMPTY>

    Signature Algorithm: sha1WithRSAEncryption
    Signature Value:
        1f:4f:8f:4a:76:37:c4:10:0f:a0:09:50:bb:8e:21:e1:da:8f:
        58:30:c0:8d:12:31:db:7e:14:1c:8e:d0:b2:53:27:4d:80:fe:
        f8:93:4c:c1:21:2c:32:14:a6:e9:c4:80:d7:a3:1b:d6:20:dc:
        25:1e:e0:7f:6f:ac:09:71:d0:91:51:a8:61:43:cc:6a:1d:86:
        f4:96:73:a2:54:4b:ff:27:57:81:56:0d:d1:77:0c:43:e8:0b:
        60:d4:d1:2b:a0:66:af:07:5c:3c:70:ad:4d:c1:41:cf:55:27:
        87:25:42:39:95:8f:50:34:4d:c1:3f:92:89:4c:bc:d3:34:11:
        81:71:9a:18:8b:73:35:52:cc:ef:7c:5e:85:6a:1a:be:72:b4:
        07:11:71:70:e9:24:e6:07:70:3d:d6:5c:ca:1f:64:f2:12:f6:
        b1:69:16:8f:4b:57:2d:83:87:14:f9:84:45:4a:c6:68:20:6f:
        fa:8e:eb:01:2d:56:f7:17:bf:3b:dc:b1:54:84:81:6e:24:7a:
        c5:fd:c3:20:87:89:d3:ff:94:87:50:77:ed:d6:75:1c:a1:a7:
        de:20:90:89:17:18:cc:07:84:f2:5f:2c:c9:5c:90:f8:fd:cf:
        3e:c4:26:f8:b3:26:39:14:99:93:26:5f:5a:5d:d2:e7:48:e8:
        9c:dc:0b:3f
-----BEGIN CERTIFICATE-----
MIID4zCCAsugAwIBAgIUbx6aA3Ld20jNwiobJGuNksIQddMwDQYJKoZIhvcNAQEF
BQAwOTELMAkGA1UEBhMCQVUxFzAVBgNVBAoMDkRvZGd5IEJyb3RoZXJzMREwDwYD
VQQDDAhEb2RneSBDQTAeFw0yNDA4MTIwMDQ0NThaFw0yNTA4MTIwMDQ0NThaMFcx
CzAJBgNVBAYTAkFVMRcwFQYDVQQKDA5Eb2RneSBCcm90aGVyczESMBAGA1UEAwwJ
QnJvdGhlciAxMRswGQYDVQQDDBJsYXN0dXBkYXRlX2ludmFsaWQwggEiMA0GCSqG
SIb3DQEBAQUAA4IBDwAwggEKAoIBAQC+lYb6cUxq6lGYUEuZoSxmFfNg8+H/afvO
SAEd/uEsOLDjvY9LSKd+OsZz46u/4dpulvX+w+S0qK28VjTUliV0J8MQ2zUQJRyO
S4Gb+0IEfG894jhsDuQujioYbTDNZyojazfPBZ/Mt1lYf7rECj+MpK3LmJzA8o9p
Zw/BTjPP/IVeu17Pk7DP2fRSeYex+E0VaGXVtxkIY39esTStBY9a8OThjyXyXFxh
lbBWLTErCGV55bE7nT65UkusXcRYZoWNgbMEKPQ/L6ySAWLV/Y4L2gIMesduCRys
HLJM11S4JjOyXxTzsfk9Yk1AmWu254lYl9bUTepLaFLzPKixNYjbAgMBAAGjgcQw
gcEwHQYDVR0OBBYEFKHfM8PPPlNBp2hEzKoZ4YTJDbzGMHQGA1UdIwRtMGuAFLQR
M/HX4l73U54gIhBPhga/H8leoT2kOzA5MQswCQYDVQQGEwJBVTEXMBUGA1UECgwO
RG9kZ3kgQnJvdGhlcnMxETAPBgNVBAMMCERvZGd5IENBghRyvQhQs/Yem1J6i0pG
0xKaUXdm+zASBgNVHRMBAf8ECDAGAQH/AgEBMAsGA1UdDwQEAwIBBjAJBgNVHRIE
AjAAMA0GCSqGSIb3DQEBBQUAA4IBAQAfT49KdjfEEA+gCVC7jiHh2o9YMMCNEjHb
fhQcjtCyUydNgP74k0zBISwyFKbpxIDXoxvWINwlHuB/b6wJcdCRUahhQ8xqHYb0
lnOiVEv/J1eBVg3RdwxD6Atg1NEroGavB1w8cK1NwUHPVSeHJUI5lY9QNE3BP5KJ
TLzTNBGBcZoYi3M1UszvfF6Fahq+crQHEXFw6STmB3A91lzKH2TyEvaxaRaPS1ct
g4cU+YRFSsZoIG/6jusBLVb3F7873LFUhIFuJHrF/cMgh4nT/5SHUHft1nUcoafe
IJCJFxjMB4TyXyzJXJD4/c8+xCb4syY5FJmTJl9aXdLnSOic3As/
-----END CERTIFICATE-----
