Certificate:
    Data:
        Version: 3 (0x2)
        Serial Number:
            6f:1e:9a:03:72:dd:db:48:cd:c2:2a:1b:24:6b:8d:92:c2:10:75:d8
        Signature Algorithm: sha1WithRSAEncryption
        Issuer: C=AU, O=Dodgy Brothers, CN=Dodgy CA
        Validity
            Not Before: Aug 12 00:44:59 2024 GMT
            Not After : Aug 12 00:44:59 2025 GMT
        Subject: C=AU, O=Dodgy Brothers, CN=Brother 1, CN=nextupdate_generalizedtime
        Subject Public Key Info:
            Public Key Algorithm: rsaEncryption
                Public-Key: (2048 bit)
                Modulus:
                    00:be:95:86:fa:71:4c:6a:ea:51:98:50:4b:99:a1:
                    2c:66:15:f3:60:f3:e1:ff:69:fb:ce:48:01:1d:fe:
                    e1:2c:38:b0:e3:bd:8f:4b:48:a7:7e:3a:c6:73:e3:
                    ab:bf:e1:da:6e:96:f5:fe:c3:e4:b4:a8:ad:bc:56:
                    34:d4:96:25:74:27:c3:10:db:35:10:25:1c:8e:4b:
                    81:9b:fb:42:04:7c:6f:3d:e2:38:6c:0e:e4:2e:8e:
                    2a:18:6d:30:cd:67:2a:23:6b:37:cf:05:9f:cc:b7:
                    59:58:7f:ba:c4:0a:3f:8c:a4:ad:cb:98:9c:c0:f2:
                    8f:69:67:0f:c1:4e:33:cf:fc:85:5e:bb:5e:cf:93:
                    b0:cf:d9:f4:52:79:87:b1:f8:4d:15:68:65:d5:b7:
                    19:08:63:7f:5e:b1:34:ad:05:8f:5a:f0:e4:e1:8f:
                    25:f2:5c:5c:61:95:b0:56:2d:31:2b:08:65:79:e5:
                    b1:3b:9d:3e:b9:52:4b:ac:5d:c4:58:66:85:8d:81:
                    b3:04:28:f4:3f:2f:ac:92:01:62:d5:fd:8e:0b:da:
                    02:0c:7a:c7:6e:09:1c:ac:1c:b2:4c:d7:54:b8:26:
                    33:b2:5f:14:f3:b1:f9:3d:62:4d:40:99:6b:b6:e7:
                    89:58:97:d6:d4:4d:ea:4b:68:52:f3:3c:a8:b1:35:
                    88:db
                Exponent: 65537 (0x10001)
        X509v3 extensions:
            X509v3 Subject Key Identifier: 
                A1:DF:33:C3:CF:3E:53:41:A7:68:44:CC:AA:19:E1:84:C9:0D:BC:C6
            X509v3 Authority Key Identifier: 
                keyid:B4:11:33:F1:D7:E2:5E:F7:53:9E:20:22:10:4F:86:06:BF:1F:C9:5E
                DirName:/C=AU/O=Dodgy Brothers/CN=Dodgy CA
                serial:72:BD:08:50:B3:F6:1E:9B:52:7A:8B:4A:46:D3:12:9A:51:77:66:FB
            X509v3 Basic Constraints: critical
                CA:TRUE, pathlen:1
            X509v3 Key Usage: 
                Certificate Sign, CRL Sign
            X509v3 Issuer Alternative Name: 
                <EMPTY>

    Signature Algorithm: sha1WithRSAEncryption
    Signature Value:
        7f:b9:06:14:01:94:b3:ff:11:92:e6:a4:ba:7c:82:f6:2f:a2:
        dc:41:f4:59:1a:9e:cc:db:f3:8a:2e:af:0e:c1:66:45:3d:66:
        8e:16:45:0c:a0:44:4e:38:0a:3f:0f:13:4e:70:2a:28:b3:ab:
        ef:27:c5:3e:13:40:0a:85:a7:94:42:21:68:2e:44:c3:12:b5:
        d1:f9:8d:64:78:ca:8b:9b:16:39:4b:1c:19:11:ed:0a:40:20:
        4d:07:44:9d:7e:f6:1d:a0:0e:d5:bf:19:a9:8f:75:b0:b7:ee:
        58:45:66:3c:6d:46:85:e2:22:eb:75:ec:68:fc:a3:37:59:26:
        71:90:31:75:5f:51:58:cd:b1:3d:62:7d:23:4d:9d:92:85:a1:
        bb:f2:fd:36:27:38:b2:e6:25:a5:2b:95:70:50:12:84:c2:db:
        3f:c1:f2:b2:2e:ee:83:c9:a6:aa:6e:2f:4e:3c:d4:0c:6b:b1:
        b2:56:18:06:d8:1d:09:4a:90:14:05:43:fb:97:c5:79:7a:e1:
        02:66:32:32:db:29:cb:df:70:e7:8d:79:40:8e:5d:a2:f9:17:
        57:7b:eb:60:94:7d:35:ff:12:f2:6e:7e:55:2f:ac:7d:fe:2d:
        54:45:8c:f9:09:b8:6b:ba:d4:1e:1a:3a:55:ba:7f:2b:16:41:
        af:03:39:54
-----BEGIN CERTIFICATE-----
MIID6zCCAtOgAwIBAgIUbx6aA3Ld20jNwiobJGuNksIQddgwDQYJKoZIhvcNAQEF
BQAwOTELMAkGA1UEBhMCQVUxFzAVBgNVBAoMDkRvZGd5IEJyb3RoZXJzMREwDwYD
VQQDDAhEb2RneSBDQTAeFw0yNDA4MTIwMDQ0NTlaFw0yNTA4MTIwMDQ0NTlaMF8x
CzAJBgNVBAYTAkFVMRcwFQYDVQQKDA5Eb2RneSBCcm90aGVyczESMBAGA1UEAwwJ
QnJvdGhlciAxMSMwIQYDVQQDDBpuZXh0dXBkYXRlX2dlbmVyYWxpemVkdGltZTCC
ASIwDQYJKoZIhvcNAQEBBQADggEPADCCAQoCggEBAL6VhvpxTGrqUZhQS5mhLGYV
82Dz4f9p+85IAR3+4Sw4sOO9j0tIp346xnPjq7/h2m6W9f7D5LSorbxWNNSWJXQn
wxDbNRAlHI5LgZv7QgR8bz3iOGwO5C6OKhhtMM1nKiNrN88Fn8y3WVh/usQKP4yk
rcuYnMDyj2lnD8FOM8/8hV67Xs+TsM/Z9FJ5h7H4TRVoZdW3GQhjf16xNK0Fj1rw
5OGPJfJcXGGVsFYtMSsIZXnlsTudPrlSS6xdxFhmhY2BswQo9D8vrJIBYtX9jgva
Agx6x24JHKwcskzXVLgmM7JfFPOx+T1iTUCZa7bniViX1tRN6ktoUvM8qLE1iNsC
AwEAAaOBxDCBwTAdBgNVHQ4EFgQUod8zw88+U0GnaETMqhnhhMkNvMYwdAYDVR0j
BG0wa4AUtBEz8dfiXvdTniAiEE+GBr8fyV6hPaQ7MDkxCzAJBgNVBAYTAkFVMRcw
FQYDVQQKDA5Eb2RneSBCcm90aGVyczERMA8GA1UEAwwIRG9kZ3kgQ0GCFHK9CFCz
9h6bUnqLSkbTEppRd2b7MBIGA1UdEwEB/wQIMAYBAf8CAQEwCwYDVR0PBAQDAgEG
MAkGA1UdEgQCMAAwDQYJKoZIhvcNAQEFBQADggEBAH+5BhQBlLP/EZLmpLp8gvYv
otxB9Fkanszb84ourw7BZkU9Zo4WRQygRE44Cj8PE05wKiizq+8nxT4TQAqFp5RC
IWguRMMStdH5jWR4youbFjlLHBkR7QpAIE0HRJ1+9h2gDtW/GamPdbC37lhFZjxt
RoXiIut17Gj8ozdZJnGQMXVfUVjNsT1ifSNNnZKFobvy/TYnOLLmJaUrlXBQEoTC
2z/B8rIu7oPJpqpuL0481AxrsbJWGAbYHQlKkBQFQ/uXxXl64QJmMjLbKcvfcOeN
eUCOXaL5F1d762CUfTX/EvJuflUvrH3+LVRFjPkJuGu61B4aOlW6fysWQa8DOVQ=
-----END CERTIFICATE-----
