Certificate:
    Data:
        Version: 3 (0x2)
        Serial Number:
            6f:1e:9a:03:72:dd:db:48:cd:c2:2a:1b:24:6b:8d:92:c2:10:75:d2
        Signature Algorithm: sha1WithRSAEncryption
        Issuer: C=AU, O=Dodgy Brothers, CN=Dodgy CA
        Validity
            Not Before: Aug 12 00:44:58 2024 GMT
            Not After : Aug 12 00:44:58 2025 GMT
        Subject: C=AU, O=Dodgy Brothers, CN=Brother 1, CN=notimes
        Subject Public Key Info:
            Public Key Algorithm: rsaEncryption
                Public-Key: (2048 bit)
                Modulus:
                    00:be:95:86:fa:71:4c:6a:ea:51:98:50:4b:99:a1:
                    2c:66:15:f3:60:f3:e1:ff:69:fb:ce:48:01:1d:fe:
                    e1:2c:38:b0:e3:bd:8f:4b:48:a7:7e:3a:c6:73:e3:
                    ab:bf:e1:da:6e:96:f5:fe:c3:e4:b4:a8:ad:bc:56:
                    34:d4:96:25:74:27:c3:10:db:35:10:25:1c:8e:4b:
                    81:9b:fb:42:04:7c:6f:3d:e2:38:6c:0e:e4:2e:8e:
                    2a:18:6d:30:cd:67:2a:23:6b:37:cf:05:9f:cc:b7:
                    59:58:7f:ba:c4:0a:3f:8c:a4:ad:cb:98:9c:c0:f2:
                    8f:69:67:0f:c1:4e:33:cf:fc:85:5e:bb:5e:cf:93:
                    b0:cf:d9:f4:52:79:87:b1:f8:4d:15:68:65:d5:b7:
                    19:08:63:7f:5e:b1:34:ad:05:8f:5a:f0:e4:e1:8f:
                    25:f2:5c:5c:61:95:b0:56:2d:31:2b:08:65:79:e5:
                    b1:3b:9d:3e:b9:52:4b:ac:5d:c4:58:66:85:8d:81:
                    b3:04:28:f4:3f:2f:ac:92:01:62:d5:fd:8e:0b:da:
                    02:0c:7a:c7:6e:09:1c:ac:1c:b2:4c:d7:54:b8:26:
                    33:b2:5f:14:f3:b1:f9:3d:62:4d:40:99:6b:b6:e7:
                    89:58:97:d6:d4:4d:ea:4b:68:52:f3:3c:a8:b1:35:
                    88:db
                Exponent: 65537 (0x10001)
        X509v3 extensions:
            X509v3 Subject Key Identifier: 
                A1:DF:33:C3:CF:3E:53:41:A7:68:44:CC:AA:19:E1:84:C9:0D:BC:C6
            X509v3 Authority Key Identifier: 
                keyid:B4:11:33:F1:D7:E2:5E:F7:53:9E:20:22:10:4F:86:06:BF:1F:C9:5E
                DirName:/C=AU/O=Dodgy Brothers/CN=Dodgy CA
                serial:72:BD:08:50:B3:F6:1E:9B:52:7A:8B:4A:46:D3:12:9A:51:77:66:FB
            X509v3 Basic Constraints: critical
                CA:TRUE, pathlen:1
            X509v3 Key Usage: 
                Certificate Sign, CRL Sign
            X509v3 Issuer Alternative Name: 
                <EMPTY>

    Signature Algorithm: sha1WithRSAEncryption
    Signature Value:
        7e:45:71:94:ff:11:cf:e0:ef:17:7a:0e:2a:be:c7:fc:c6:58:
        8a:ea:92:47:e8:36:60:53:82:e2:b0:6b:0f:32:07:ef:82:18:
        03:1e:01:8e:ff:50:5a:c0:70:3e:4e:4e:75:d4:37:f0:0b:96:
        0c:47:d6:c8:de:6b:ae:e6:b0:2d:ae:f4:1d:1d:c8:81:a9:35:
        56:59:34:ca:8c:01:ec:0d:a7:7f:f1:fa:ac:df:5c:4a:20:8b:
        b7:d4:da:03:43:95:9b:73:c8:0c:69:80:e8:10:c8:5a:9f:f4:
        56:20:88:80:7c:9b:01:a4:0c:13:6a:f4:a4:16:ba:9f:1f:f0:
        17:7e:71:90:c3:06:b3:7d:4d:d1:70:5c:04:e1:d3:22:47:6a:
        f9:61:56:7a:45:88:21:e4:c4:d1:6e:d4:3d:29:05:99:9f:65:
        a9:fb:9a:ba:47:aa:7a:0a:ff:77:4a:df:32:c4:dc:5a:46:36:
        f9:e2:b6:4d:c4:ce:5e:fc:fc:2c:d9:6c:81:e6:07:5e:88:f3:
        f3:2b:95:5c:2b:74:c9:05:5c:07:99:9a:39:1e:b8:b1:4e:11:
        b8:f1:df:fa:8b:c6:87:29:c7:97:fc:00:a0:47:68:68:eb:12:
        d5:aa:55:80:6f:ff:b0:4e:dc:37:1d:46:e1:53:4a:90:25:6a:
        a0:a9:e4:a1
-----BEGIN CERTIFICATE-----
MIID2DCCAsCgAwIBAgIUbx6aA3Ld20jNwiobJGuNksIQddIwDQYJKoZIhvcNAQEF
BQAwOTELMAkGA1UEBhMCQVUxFzAVBgNVBAoMDkRvZGd5IEJyb3RoZXJzMREwDwYD
VQQDDAhEb2RneSBDQTAeFw0yNDA4MTIwMDQ0NThaFw0yNTA4MTIwMDQ0NThaMEwx
CzAJBgNVBAYTAkFVMRcwFQYDVQQKDA5Eb2RneSBCcm90aGVyczESMBAGA1UEAwwJ
QnJvdGhlciAxMRAwDgYDVQQDDAdub3RpbWVzMIIBIjANBgkqhkiG9w0BAQEFAAOC
AQ8AMIIBCgKCAQEAvpWG+nFMaupRmFBLmaEsZhXzYPPh/2n7zkgBHf7hLDiw472P
S0infjrGc+Orv+Habpb1/sPktKitvFY01JYldCfDENs1ECUcjkuBm/tCBHxvPeI4
bA7kLo4qGG0wzWcqI2s3zwWfzLdZWH+6xAo/jKSty5icwPKPaWcPwU4zz/yFXrte
z5Owz9n0UnmHsfhNFWhl1bcZCGN/XrE0rQWPWvDk4Y8l8lxcYZWwVi0xKwhleeWx
O50+uVJLrF3EWGaFjYGzBCj0Py+skgFi1f2OC9oCDHrHbgkcrByyTNdUuCYzsl8U
87H5PWJNQJlrtueJWJfW1E3qS2hS8zyosTWI2wIDAQABo4HEMIHBMB0GA1UdDgQW
BBSh3zPDzz5TQadoRMyqGeGEyQ28xjB0BgNVHSMEbTBrgBS0ETPx1+Je91OeICIQ
T4YGvx/JXqE9pDswOTELMAkGA1UEBhMCQVUxFzAVBgNVBAoMDkRvZGd5IEJyb3Ro
ZXJzMREwDwYDVQQDDAhEb2RneSBDQYIUcr0IULP2HptSeotKRtMSmlF3ZvswEgYD
VR0TAQH/BAgwBgEB/wIBATALBgNVHQ8EBAMCAQYwCQYDVR0SBAIwADANBgkqhkiG
9w0BAQUFAAOCAQEAfkVxlP8Rz+DvF3oOKr7H/MZYiuqSR+g2YFOC4rBrDzIH74IY
Ax4Bjv9QWsBwPk5OddQ38AuWDEfWyN5rruawLa70HR3Igak1Vlk0yowB7A2nf/H6
rN9cSiCLt9TaA0OVm3PIDGmA6BDIWp/0ViCIgHybAaQME2r0pBa6nx/wF35xkMMG
s31N0XBcBOHTIkdq+WFWekWIIeTE0W7UPSkFmZ9lqfuaukeqegr/d0rfMsTcWkY2
+eK2TcTOXvz8LNlsgeYHXojz8yuVXCt0yQVcB5maOR64sU4RuPHf+ovGhynHl/wA
oEdoaOsS1apVgG//sE7cNx1G4VNKkCVqoKnkoQ==
-----END CERTIFICATE-----
