Certificate:
    Data:
        Version: 3 (0x2)
        Serial Number:
            72:bd:08:50:b3:f6:1e:9b:52:7a:8b:4a:46:d3:12:9a:51:77:66:fb
        Signature Algorithm: sha1WithRSAEncryption
        Issuer: C=AU, O=Dodgy Brothers, CN=Dodgy CA
        Validity
            Not Before: Aug 12 00:44:57 2024 GMT
            Not After : Aug 12 00:44:57 2027 GMT
        Subject: C=AU, O=Dodgy Brothers, CN=Dodgy CA
        Subject Public Key Info:
            Public Key Algorithm: rsaEncryption
                Public-Key: (2048 bit)
                Modulus:
                    00:96:9d:a4:3d:00:4b:1c:5f:c6:cb:dd:8f:d2:31:
                    b2:88:15:cc:c4:86:2c:5c:e2:69:8b:84:f4:a7:a3:
                    53:df:91:e3:bf:51:89:fb:f0:7c:10:0d:3b:ad:ac:
                    35:62:75:f5:7f:ff:f4:6e:54:8f:05:a6:92:23:b3:
                    9f:59:39:d0:39:18:b0:10:40:de:62:73:8a:4e:b0:
                    8e:df:dc:e7:c9:41:22:54:84:80:08:29:bc:35:3c:
                    86:df:30:de:dd:b4:24:ff:7e:62:a5:c0:7a:e8:2a:
                    16:3f:d6:97:da:c5:42:db:2f:69:64:91:cb:08:d7:
                    56:5a:79:7f:1b:84:41:e9:4d:9d:77:09:10:a8:6c:
                    29:33:44:c6:c0:54:65:e6:e8:e3:f2:75:05:6a:64:
                    95:6c:c0:f4:fd:25:61:6e:48:36:f0:c0:03:07:05:
                    d6:7c:e5:11:fd:18:e8:4a:2d:d3:72:0c:37:28:36:
                    31:31:38:85:e8:71:8d:d8:02:49:c8:bc:19:89:c5:
                    8a:b1:3f:a2:35:ea:aa:90:1c:64:68:7b:af:67:6a:
                    5a:06:54:0f:50:e1:f9:b4:f6:be:3a:d4:ce:3f:1e:
                    4c:7d:c6:77:32:3e:a2:58:ed:db:dd:74:d8:92:14:
                    6a:a8:f7:cb:34:58:91:a8:7c:14:b1:7d:08:b3:4d:
                    b1:47
                Exponent: 65537 (0x10001)
        X509v3 extensions:
            X509v3 Subject Key Identifier: 
                B4:11:33:F1:D7:E2:5E:F7:53:9E:20:22:10:4F:86:06:BF:1F:C9:5E
            X509v3 Authority Key Identifier: 
                keyid:B4:11:33:F1:D7:E2:5E:F7:53:9E:20:22:10:4F:86:06:BF:1F:C9:5E
                DirName:/C=AU/O=Dodgy Brothers/CN=Dodgy CA
                serial:72:BD:08:50:B3:F6:1E:9B:52:7A:8B:4A:46:D3:12:9A:51:77:66:FB
            X509v3 Basic Constraints: critical
                CA:TRUE, pathlen:1
            X509v3 Key Usage: 
                Certificate Sign, CRL Sign
            X509v3 Issuer Alternative Name: 
                <EMPTY>

    Signature Algorithm: sha1WithRSAEncryption
    Signature Value:
        2b:07:81:3b:38:3a:c5:a8:0c:a5:3e:4b:9c:23:b7:3f:bf:04:
        e8:9f:ca:b1:7f:ca:1d:c0:48:9d:ee:cb:2d:d9:81:c2:aa:28:
        40:97:ae:43:d2:54:d4:9d:54:74:26:41:97:55:e2:3b:0f:66:
        2b:e3:a6:fa:b9:87:3c:de:16:cd:1a:83:b4:59:b8:8d:b5:ab:
        10:3c:4a:d9:d3:75:17:39:7a:7c:7d:40:7f:44:a0:a9:6d:0a:
        42:f8:f6:24:88:59:88:8c:95:35:af:63:0b:4d:e6:8c:01:d4:
        15:86:78:f0:0e:87:79:66:af:2a:f8:c7:f0:a7:29:5f:2f:47:
        8e:b8:9d:20:00:a5:04:b2:4f:18:69:5e:67:27:a4:97:b2:d3:
        6d:81:7f:3b:35:bc:32:15:23:5e:ca:3e:b9:42:8f:69:2c:9e:
        c7:eb:98:c1:52:b5:1b:81:77:7a:5f:e0:f2:c2:fb:49:f4:d1:
        bb:cc:5a:5f:09:04:02:34:70:11:83:60:38:a5:73:f1:57:c8:
        96:95:da:cd:86:5e:87:15:81:06:18:42:cd:be:17:42:59:a3:
        b8:fa:84:e6:99:b1:f7:ce:5b:c9:a9:c6:c3:67:59:dd:eb:5f:
        2a:45:08:89:83:8f:0a:be:85:68:3c:be:a5:bb:94:97:e4:20:
        66:6f:a0:31
-----BEGIN CERTIFICATE-----
MIIDxTCCAq2gAwIBAgIUcr0IULP2HptSeotKRtMSmlF3ZvswDQYJKoZIhvcNAQEF
BQAwOTELMAkGA1UEBhMCQVUxFzAVBgNVBAoMDkRvZGd5IEJyb3RoZXJzMREwDwYD
VQQDDAhEb2RneSBDQTAeFw0yNDA4MTIwMDQ0NTdaFw0yNzA4MTIwMDQ0NTdaMDkx
CzAJBgNVBAYTAkFVMRcwFQYDVQQKDA5Eb2RneSBCcm90aGVyczERMA8GA1UEAwwI
RG9kZ3kgQ0EwggEiMA0GCSqGSIb3DQEBAQUAA4IBDwAwggEKAoIBAQCWnaQ9AEsc
X8bL3Y/SMbKIFczEhixc4mmLhPSno1PfkeO/UYn78HwQDTutrDVidfV///RuVI8F
ppIjs59ZOdA5GLAQQN5ic4pOsI7f3OfJQSJUhIAIKbw1PIbfMN7dtCT/fmKlwHro
KhY/1pfaxULbL2lkkcsI11ZaeX8bhEHpTZ13CRCobCkzRMbAVGXm6OPydQVqZJVs
wPT9JWFuSDbwwAMHBdZ85RH9GOhKLdNyDDcoNjExOIXocY3YAknIvBmJxYqxP6I1
6qqQHGRoe69naloGVA9Q4fm09r461M4/Hkx9xncyPqJY7dvddNiSFGqo98s0WJGo
fBSxfQizTbFHAgMBAAGjgcQwgcEwHQYDVR0OBBYEFLQRM/HX4l73U54gIhBPhga/
H8leMHQGA1UdIwRtMGuAFLQRM/HX4l73U54gIhBPhga/H8leoT2kOzA5MQswCQYD
VQQGEwJBVTEXMBUGA1UECgwORG9kZ3kgQnJvdGhlcnMxETAPBgNVBAMMCERvZGd5
IENBghRyvQhQs/Yem1J6i0pG0xKaUXdm+zASBgNVHRMBAf8ECDAGAQH/AgEBMAsG
A1UdDwQEAwIBBjAJBgNVHRIEAjAAMA0GCSqGSIb3DQEBBQUAA4IBAQArB4E7ODrF
qAylPkucI7c/vwTon8qxf8odwEid7sst2YHCqihAl65D0lTUnVR0JkGXVeI7D2Yr
46b6uYc83hbNGoO0WbiNtasQPErZ03UXOXp8fUB/RKCpbQpC+PYkiFmIjJU1r2ML
TeaMAdQVhnjwDod5Zq8q+MfwpylfL0eOuJ0gAKUEsk8YaV5nJ6SXstNtgX87Nbwy
FSNeyj65Qo9pLJ7H65jBUrUbgXd6X+DywvtJ9NG7zFpfCQQCNHARg2A4pXPxV8iW
ldrNhl6HFYEGGELNvhdCWaO4+oTmmbH3zlvJqcbDZ1nd618qRQiJg48KvoVoPL6l
u5SX5CBmb6Ax
-----END CERTIFICATE-----
