Certificate:
    Data:
        Version: 3 (0x2)
        Serial Number: 1234567890 (0x499602d2)
        Signature Algorithm: sha256WithRSAEncryption
        Issuer: CN=ca.example.com
        Validity
            Not Before: Aug 12 00:43:37 2024 GMT
            Not After : Aug 12 00:43:37 2025 GMT
        Subject: CN=test.example.com
        Subject Public Key Info:
            Public Key Algorithm: rsaEncryption
                Public-Key: (2048 bit)
                Modulus:
                    00:b5:0e:85:f2:0c:1d:6d:c3:45:29:dc:c8:3a:8b:
                    c5:c0:da:9e:38:de:80:5a:fe:3a:b2:1d:e1:74:bd:
                    df:8a:0e:d3:ae:02:89:f4:3c:d1:65:7d:c7:12:10:
                    2d:3c:91:cb:00:91:22:11:e9:8b:d5:d1:ea:16:b4:
                    a8:5b:54:81:5a:24:f5:4f:c3:66:01:37:5c:ec:e8:
                    82:94:de:4d:4e:19:be:1f:cb:73:d9:43:1d:8d:20:
                    85:d9:a0:41:ed:30:6f:0c:0c:b7:56:66:26:7b:14:
                    6d:1f:8e:39:9d:61:6f:48:2f:bc:98:62:7c:6e:e1:
                    fd:bd:49:38:6d:7f:eb:3e:4b:17:af:5a:aa:5f:0c:
                    92:e4:c1:2e:8d:ed:e6:99:70:11:4c:a9:88:c8:d3:
                    37:6d:42:8d:93:1b:ef:0a:79:1a:4f:2a:78:4e:af:
                    f6:fb:e5:3b:d9:f1:03:85:98:07:8d:b1:c2:b0:21:
                    b4:54:88:2c:b3:c0:35:c3:be:53:9a:3b:2d:18:26:
                    bf:1c:f8:c4:a3:74:ca:c8:7b:27:05:f1:51:78:6f:
                    67:37:b2:37:f2:fa:5e:5e:7f:a6:0c:8b:4c:7d:37:
                    7a:53:b5:b9:11:b4:c7:df:39:b4:83:68:f0:ef:b4:
                    c8:c5:cb:df:6f:86:c8:9c:7f:f0:14:9b:0f:b1:0c:
                    32:a7
                Exponent: 65537 (0x10001)
        X509v3 extensions:
            X509v3 Subject Key Identifier: 
                5C:F6:30:97:D3:86:CB:C1:56:8B:D0:83:38:08:68:C0:2F:FF:5C:DF
            X509v3 Authority Key Identifier: 
                5C:F6:30:97:D3:86:CB:C1:56:8B:D0:83:38:08:68:C0:2F:FF:5C:DF
            X509v3 Basic Constraints: critical
                CA:TRUE
    Signature Algorithm: sha256WithRSAEncryption
    Signature Value:
        55:82:21:99:d3:80:5b:74:a6:08:8b:8c:ec:44:91:04:d0:25:
        72:7e:a1:aa:e3:7b:15:df:20:c9:12:65:a7:12:97:d3:d9:4b:
        95:d4:0e:87:9c:f5:ae:38:6a:68:7d:c6:42:67:11:11:eb:bf:
        5a:16:fb:1b:5e:70:da:4e:18:14:46:6f:6a:07:a3:f5:35:c9:
        ec:82:0f:2f:5d:a8:77:55:62:18:a4:ba:28:b4:d8:0b:1a:2f:
        a3:0d:ad:ca:33:7c:93:f2:30:12:e1:77:d3:a0:1a:13:51:e2:
        fa:01:f1:7a:54:3d:ee:94:fb:1b:8f:54:04:d9:2e:4a:6d:13:
        8c:26:0c:59:fd:ea:52:83:65:d7:0d:00:55:e5:1b:46:6c:50:
        96:1e:81:7c:b7:be:22:46:e6:0b:30:7d:43:1e:66:09:7b:d0:
        c2:a0:60:80:80:8a:89:c5:78:89:ff:40:83:c3:78:14:6b:95:
        a6:ce:37:22:f6:c2:73:57:50:14:e2:63:6f:a9:e8:45:57:04:
        fd:c0:53:9e:ff:c1:0b:db:c4:a1:e7:cd:da:bb:b3:ee:de:a1:
        a5:cd:f5:46:6f:7b:30:d4:7d:b4:ed:4a:c8:d8:f0:d5:31:46:
        30:b4:79:61:74:54:f4:62:65:06:e7:c7:b0:50:29:d0:c7:53:
        95:fe:ce:94:7a:51:cb:fc:4e:c0:fe:1b:7d:6b:24:cf:f3:32:
        bf:26:9c:e3:28:3b:75:ca:8c:6b:a8:3c:c9:db:e5:ba:1b:1d:
        38:c4:6e:f6:7c:f1:55:d0:8c:c2:b7:93:a6:46:7c:86:e2:34:
        73:5c:fb:6f:a9:56:31:b7:35:a7:06:35:37:32:f3:ee:f9:62:
        d8:0a:3d:77:1d:c0:db:72:9c:68:1b:ec:b5:d8:53:03:e4:9f:
        b3:c3:5e:cb:fd:7b:72:6e:a8:13:c3:a1:6d:c6:ad:69:70:08:
        08:f7:25:96:9b:79:85:e8:7c:30:02:1c:81:f1:31:da:0e:f8:
        fe:7c:e9:b1:37:2d:ce:16:19:99:87:b9:5a:60:54:2c:71:58:
        ee:0a:d2:d6:46:dd:d0:c6:1b:d1:4a:9c:12:5c:fc:f2:00:f1:
        9e:08:00:8f:6c:59:f9:92:b2:af:21:38:5d:29:93:09:6c:ef:
        45:99:37:b9:4f:7e:51:ff:a9:5c:54:31:9d:ec:e9:61:44:58:
        20:b9:5f:0b:55:03:38:3b:c1:04:1a:15:a8:91:6b:39:44:8d:
        fd:10:88:8e:3e:25:eb:c2:7d:56:28:9e:54:a0:14:ad:a8:6d:
        2e:da:f9:3f:08:0d:7d:5f:5a:a2:5a:c1:2c:9a:4d:08:60:98:
        cd:30:41:87:c7:5c:50:ed
-----BEGIN CERTIFICATE-----
MIIEBTCCAe2gAwIBAgIESZYC0jANBgkqhkiG9w0BAQsFADAZMRcwFQYDVQQDDA5j
YS5leGFtcGxlLmNvbTAeFw0yNDA4MTIwMDQzMzdaFw0yNTA4MTIwMDQzMzdaMBsx
GTAXBgNVBAMMEHRlc3QuZXhhbXBsZS5jb20wggEiMA0GCSqGSIb3DQEBAQUAA4IB
DwAwggEKAoIBAQC1DoXyDB1tw0Up3Mg6i8XA2p443oBa/jqyHeF0vd+KDtOuAon0
PNFlfccSEC08kcsAkSIR6YvV0eoWtKhbVIFaJPVPw2YBN1zs6IKU3k1OGb4fy3PZ
Qx2NIIXZoEHtMG8MDLdWZiZ7FG0fjjmdYW9IL7yYYnxu4f29SThtf+s+SxevWqpf
DJLkwS6N7eaZcBFMqYjI0zdtQo2TG+8KeRpPKnhOr/b75TvZ8QOFmAeNscKwIbRU
iCyzwDXDvlOaOy0YJr8c+MSjdMrIeycF8VF4b2c3sjfy+l5ef6YMi0x9N3pTtbkR
tMffObSDaPDvtMjFy99vhsicf/AUmw+xDDKnAgMBAAGjUzBRMB0GA1UdDgQWBBRc
9jCX04bLwVaL0IM4CGjAL/9c3zAfBgNVHSMEGDAWgBRc9jCX04bLwVaL0IM4CGjA
L/9c3zAPBgNVHRMBAf8EBTADAQH/MA0GCSqGSIb3DQEBCwUAA4ICAQBVgiGZ04Bb
dKYIi4zsRJEE0CVyfqGq43sV3yDJEmWnEpfT2UuV1A6HnPWuOGpofcZCZxER679a
FvsbXnDaThgURm9qB6P1Ncnsgg8vXah3VWIYpLootNgLGi+jDa3KM3yT8jAS4XfT
oBoTUeL6AfF6VD3ulPsbj1QE2S5KbROMJgxZ/epSg2XXDQBV5RtGbFCWHoF8t74i
RuYLMH1DHmYJe9DCoGCAgIqJxXiJ/0CDw3gUa5Wmzjci9sJzV1AU4mNvqehFVwT9
wFOe/8EL28Sh583au7Pu3qGlzfVGb3sw1H207UrI2PDVMUYwtHlhdFT0YmUG58ew
UCnQx1OV/s6UelHL/E7A/ht9ayTP8zK/JpzjKDt1yoxrqDzJ2+W6Gx04xG72fPFV
0IzCt5OmRnyG4jRzXPtvqVYxtzWnBjU3MvPu+WLYCj13HcDbcpxoG+y12FMD5J+z
w17L/XtybqgTw6Ftxq1pcAgI9yWWm3mF6HwwAhyB8THaDvj+fOmxNy3OFhmZh7la
YFQscVjuCtLWRt3QxhvRSpwSXPzyAPGeCACPbFn5krKvIThdKZMJbO9FmTe5T35R
/6lcVDGd7OlhRFgguV8LVQM4O8EEGhWokWs5RI39EIiOPiXrwn1WKJ5UoBStqG0u
2vk/CA19X1qiWsEsmk0IYJjNMEGHx1xQ7Q==
-----END CERTIFICATE-----
