Certificate:
    Data:
        Version: 3 (0x2)
        Serial Number: 1234567890 (0x499602d2)
        Signature Algorithm: sha256WithRSAEncryption
        Issuer: CN=ca.example.com
        Validity
            Not Before: Sep 19 23:56:52 2024 GMT
            Not After : Sep 19 23:56:52 2025 GMT
        Subject: CN=test.example.com
        Subject Public Key Info:
            Public Key Algorithm: rsaEncryption
                Public-Key: (2048 bit)
                Modulus:
                    00:a1:d9:24:f9:d6:05:8b:00:be:0f:f1:c9:76:c6:
                    43:b4:89:1f:19:a4:f0:f0:cf:e8:b4:f3:f4:89:95:
                    8e:d3:2d:07:99:68:1e:45:e0:17:9f:32:22:01:7b:
                    f1:17:76:d4:ae:23:a6:fd:08:a1:4a:bc:19:75:37:
                    dd:5d:67:08:6f:1d:fc:a7:b0:4d:a5:2f:80:91:3d:
                    d6:e2:a2:65:5f:f1:f6:d0:46:f6:4e:0c:96:0f:1c:
                    61:d6:b4:5f:e9:3a:bf:61:c6:45:b3:2d:02:5a:32:
                    e5:02:f2:ed:1b:2f:15:4a:d0:dd:74:cb:54:65:0e:
                    6a:1a:f0:a4:2e:1f:21:20:76:4a:7f:2b:f4:bb:b3:
                    ff:6d:45:b6:ca:49:75:f5:16:65:c5:3d:4d:da:a0:
                    60:82:28:41:d9:01:ec:c5:0b:5a:ff:f7:32:a9:84:
                    a6:49:51:c8:89:33:66:27:62:34:d1:3d:ad:73:0c:
                    b4:10:a7:d9:d8:09:0c:31:5e:90:99:54:18:6b:98:
                    fc:24:b1:87:db:40:58:82:85:15:81:86:93:3f:8f:
                    98:6f:04:0d:40:06:d2:35:70:1d:1c:35:b4:20:db:
                    0a:54:60:20:28:ee:87:28:20:d1:ca:33:10:a2:56:
                    61:0c:ca:5d:40:d1:e0:1f:9e:5d:24:2c:1d:f6:86:
                    8f:a5
                Exponent: 65537 (0x10001)
        X509v3 extensions:
            X509v3 Subject Key Identifier: 
                15:67:CD:D2:BA:42:28:E0:82:90:6B:22:E2:77:9E:F0:83:E3:42:BB
            X509v3 Authority Key Identifier: 
                15:67:CD:D2:BA:42:28:E0:82:90:6B:22:E2:77:9E:F0:83:E3:42:BB
            X509v3 Basic Constraints: critical
                CA:TRUE
    Signature Algorithm: sha256WithRSAEncryption
    Signature Value:
        85:89:22:58:a4:63:2c:ca:8b:31:3f:c3:cf:1f:0c:64:cc:f1:
        85:a6:3b:30:1b:12:0b:08:b5:46:a7:a6:71:ef:c2:60:b2:6d:
        ae:37:5f:58:5c:58:ed:ac:c6:f1:ba:0c:a1:67:90:ce:92:eb:
        e5:72:5d:a7:b4:1f:c3:e5:36:03:2d:e1:92:fb:e9:fb:27:5e:
        f6:cc:5c:72:62:c6:b5:37:38:4e:3a:64:2a:e0:ea:22:18:26:
        47:66:ee:0b:56:d8:77:d6:6a:c0:18:44:1f:73:79:b4:01:0c:
        9f:a5:05:84:42:60:b1:3a:a0:d7:3e:df:66:ca:e7:e8:fe:cc:
        61:1f:bf:a3:70:c9:56:fb:89:59:77:7c:61:82:05:d2:49:e6:
        f3:94:e7:f4:36:48:c9:dd:f8:02:1d:36:1b:e5:2f:4a:8d:3a:
        f2:cf:e7:d8:96:79:0e:49:58:36:39:1c:a5:ce:e0:ab:b1:6d:
        4d:57:dc:b3:4d:c5:16:c2:99:41:06:85:10:b4:4e:ec:f4:7f:
        ce:49:58:c4:52:51:9e:84:08:75:b5:09:c0:1e:1a:08:e8:78:
        20:c6:c1:6b:31:a5:d0:c4:4c:90:fe:45:95:5a:be:d6:da:70:
        ec:5b:5b:4a:37:63:66:cf:8a:d4:81:82:da:27:4b:99:be:f6:
        f2:44:fd:1c:7f:4a:31:60:8b:a7:47:fd:b8:8c:ec:05:4b:74:
        4d:ab:13:a6:d4:7a:7a:f0:dc:eb:34:ed:8b:bf:04:23:9a:87:
        69:3a:37:26:cd:97:bf:3a:ad:9d:4f:98:4d:af:a0:b8:aa:13:
        d2:76:2e:a0:36:1f:7d:18:bc:bf:35:4b:f9:cb:ae:6e:28:0f:
        69:5b:d0:0a:65:56:d1:7e:dd:a4:d9:ee:b2:44:c4:a6:04:19:
        22:93:b4:ee:01:e4:e4:dd:3f:16:05:38:51:3a:32:7f:8d:00:
        97:84:ab:35:c2:63:40:46:e1:d6:da:b2:55:88:69:5b:d7:73:
        c9:13:ae:e8:35:a6:05:45:a7:4d:3a:66:9a:d0:d3:a9:b9:9e:
        b6:f9:93:a5:84:10:c0:5c:bd:a6:90:2e:06:ff:ef:a2:b6:bb:
        0e:96:cb:6f:4f:c8:59:24:c2:cc:75:43:58:75:9d:9e:ea:bb:
        4c:20:4d:d1:00:25:bd:a7:a1:32:b6:35:72:40:57:75:c9:b5:
        06:46:1f:30:ab:d9:31:71:6c:42:44:63:a9:15:68:5b:a9:8d:
        09:bc:6b:84:7a:14:09:df:61:db:05:10:da:83:d4:5f:e1:e0:
        62:ba:01:2e:e3:0a:c7:d8:4a:9e:ae:92:bf:0b:09:46:6e:26:
        20:17:dc:e7:ef:ec:80:a9
-----BEGIN CERTIFICATE-----
MIIEBTCCAe2gAwIBAgIESZYC0jANBgkqhkiG9w0BAQsFADAZMRcwFQYDVQQDDA5j
YS5leGFtcGxlLmNvbTAeFw0yNDA5MTkyMzU2NTJaFw0yNTA5MTkyMzU2NTJaMBsx
GTAXBgNVBAMMEHRlc3QuZXhhbXBsZS5jb20wggEiMA0GCSqGSIb3DQEBAQUAA4IB
DwAwggEKAoIBAQCh2ST51gWLAL4P8cl2xkO0iR8ZpPDwz+i08/SJlY7TLQeZaB5F
4BefMiIBe/EXdtSuI6b9CKFKvBl1N91dZwhvHfynsE2lL4CRPdbiomVf8fbQRvZO
DJYPHGHWtF/pOr9hxkWzLQJaMuUC8u0bLxVK0N10y1RlDmoa8KQuHyEgdkp/K/S7
s/9tRbbKSXX1FmXFPU3aoGCCKEHZAezFC1r/9zKphKZJUciJM2YnYjTRPa1zDLQQ
p9nYCQwxXpCZVBhrmPwksYfbQFiChRWBhpM/j5hvBA1ABtI1cB0cNbQg2wpUYCAo
7ocoINHKMxCiVmEMyl1A0eAfnl0kLB32ho+lAgMBAAGjUzBRMB0GA1UdDgQWBBQV
Z83SukIo4IKQayLid57wg+NCuzAfBgNVHSMEGDAWgBQVZ83SukIo4IKQayLid57w
g+NCuzAPBgNVHRMBAf8EBTADAQH/MA0GCSqGSIb3DQEBCwUAA4ICAQCFiSJYpGMs
yosxP8PPHwxkzPGFpjswGxILCLVGp6Zx78Jgsm2uN19YXFjtrMbxugyhZ5DOkuvl
cl2ntB/D5TYDLeGS++n7J172zFxyYsa1NzhOOmQq4OoiGCZHZu4LVth31mrAGEQf
c3m0AQyfpQWEQmCxOqDXPt9myufo/sxhH7+jcMlW+4lZd3xhggXSSebzlOf0NkjJ
3fgCHTYb5S9KjTryz+fYlnkOSVg2ORylzuCrsW1NV9yzTcUWwplBBoUQtE7s9H/O
SVjEUlGehAh1tQnAHhoI6HggxsFrMaXQxEyQ/kWVWr7W2nDsW1tKN2Nmz4rUgYLa
J0uZvvbyRP0cf0oxYIunR/24jOwFS3RNqxOm1Hp68NzrNO2LvwQjmodpOjcmzZe/
Oq2dT5hNr6C4qhPSdi6gNh99GLy/NUv5y65uKA9pW9AKZVbRft2k2e6yRMSmBBki
k7TuAeTk3T8WBThROjJ/jQCXhKs1wmNARuHW2rJViGlb13PJE67oNaYFRadNOmaa
0NOpuZ62+ZOlhBDAXL2mkC4G/++itrsOlstvT8hZJMLMdUNYdZ2e6rtMIE3RACW9
p6EytjVyQFd1ybUGRh8wq9kxcWxCRGOpFWhbqY0JvGuEehQJ32HbBRDag9Rf4eBi
ugEu4wrH2EqerpK/CwlGbiYgF9zn7+yAqQ==
-----END CERTIFICATE-----
