Certificate:
    Data:
        Version: 3 (0x2)
        Serial Number: 1234567890 (0x499602d2)
        Signature Algorithm: sha256WithRSAEncryption
        Issuer: CN=ca.example.com
        Validity
            Not Before: Aug 27 15:16:28 2024 GMT
            Not After : Aug 27 15:16:28 2025 GMT
        Subject: CN=test.example.com
        Subject Public Key Info:
            Public Key Algorithm: rsaEncryption
                Public-Key: (2048 bit)
                Modulus:
                    00:ba:50:a4:b2:72:2b:25:d4:39:dd:ae:cd:af:db:
                    69:e6:96:8a:a3:ed:fc:28:7f:1c:42:d0:3a:51:72:
                    a8:04:74:09:95:c7:7a:94:9b:ac:9e:b8:e0:3d:d9:
                    98:64:64:52:6d:91:2c:6e:64:29:64:99:21:f0:38:
                    e3:b0:9a:5b:c6:48:4c:1c:a6:cd:92:ac:82:0d:04:
                    4d:a1:1c:7e:25:8d:55:76:47:c6:4d:ff:e9:95:0e:
                    44:36:87:7d:e4:72:dc:2a:b0:28:6f:f2:1e:70:4e:
                    bc:35:cb:1e:ae:ae:81:ac:01:db:1d:47:84:c6:a8:
                    94:db:5f:b8:96:81:cc:9c:e0:34:30:39:2c:44:b8:
                    dd:96:8b:a8:6a:97:fb:46:fa:84:93:38:5c:f4:9c:
                    79:9a:be:cd:3c:b9:35:ab:6a:d7:6d:a6:64:38:4c:
                    32:f3:86:ae:be:14:d8:8c:23:e2:97:53:56:7e:7b:
                    62:e1:a4:12:62:46:da:b3:9e:65:f9:86:b2:9a:50:
                    72:6b:61:55:8b:1e:fd:3a:ed:42:15:fd:8f:46:eb:
                    04:65:96:24:44:b5:93:1a:85:53:a2:08:83:da:88:
                    aa:b8:f5:66:aa:ce:2e:e1:24:87:bb:c3:24:46:76:
                    ba:4c:8c:99:2c:50:ec:56:c6:4a:70:0f:71:d3:07:
                    ab:df
                Exponent: 65537 (0x10001)
        X509v3 extensions:
            X509v3 Subject Key Identifier: 
                B0:C6:E3:1F:8C:6F:DE:61:55:1D:6C:CA:60:28:D7:C1:D7:15:48:AE
            X509v3 Authority Key Identifier: 
                B0:C6:E3:1F:8C:6F:DE:61:55:1D:6C:CA:60:28:D7:C1:D7:15:48:AE
            X509v3 Basic Constraints: critical
                CA:TRUE
    Signature Algorithm: sha256WithRSAEncryption
    Signature Value:
        34:a7:81:95:93:d9:c8:16:9a:98:f3:7d:9e:16:42:86:9b:e9:
        b0:00:89:02:21:61:e2:70:a6:85:f5:e7:7c:8e:93:6d:5b:d0:
        7c:90:37:26:20:e4:ac:52:d6:e3:cf:f3:76:c4:07:98:31:aa:
        a4:27:36:4c:50:02:7b:39:4c:3b:b5:83:f4:0a:20:a1:8b:18:
        ca:43:e5:fd:2e:d0:f3:c9:41:fb:ff:a2:48:e0:cf:cc:7a:1e:
        20:d8:5f:7f:87:28:1e:22:92:7a:16:fa:72:7e:09:ef:b3:ac:
        3b:f9:69:b5:1e:37:46:29:4f:15:1e:94:62:b7:e3:72:5e:fb:
        4a:ce:f0:bc:b1:bc:9d:68:9c:3c:22:c7:1c:67:41:d3:c4:13:
        60:e3:4c:4d:d5:9f:55:02:89:f4:15:96:02:1e:d2:19:e1:a3:
        93:df:23:10:17:bb:9d:cc:ee:49:55:c4:88:9b:4d:46:c8:02:
        8b:2f:66:85:89:2b:d3:f4:a9:6e:c9:be:8c:5a:bb:7d:fa:40:
        64:be:65:8c:32:4c:9c:d4:27:a8:59:5b:6c:c0:75:61:2d:2d:
        5b:af:05:6d:8e:c3:d7:bd:91:16:3a:ff:69:ac:54:c3:ec:10:
        d7:9f:6b:c2:1c:67:3f:12:61:ea:ac:17:04:b2:3b:79:06:a4:
        f3:04:44:4d:1c:ea:56:94:91:25:16:4c:5f:9c:c4:83:69:92:
        41:df:da:91:23:aa:10:73:78:46:2b:3d:ee:d3:47:d3:67:22:
        1f:8b:7f:17:69:7b:de:68:62:27:f7:4f:c5:9d:8a:43:81:d0:
        97:85:c9:a4:30:ff:c1:68:54:6c:60:87:dc:3c:08:11:9a:6c:
        bf:de:bb:2b:cc:01:8d:63:26:5f:e4:0d:05:de:a9:9f:c9:cf:
        08:f7:29:45:e8:2a:9d:7f:2c:c8:53:c4:95:79:ce:de:e1:95:
        78:5d:43:61:2a:94:aa:0b:ee:9b:78:d0:b2:90:fa:bc:5a:99:
        11:7a:99:1e:ef:d7:c2:1e:d7:4a:76:5b:34:e3:1f:a0:83:b6:
        a6:d3:7c:d2:da:8b:9a:db:d3:3a:75:e3:e6:35:f7:39:34:a9:
        f2:42:a2:e0:7c:6b:b3:84:81:d9:ea:b0:82:7d:d2:54:62:aa:
        6b:05:f4:8f:d2:d7:10:e1:04:52:24:12:89:32:2f:44:19:c2:
        20:47:b0:ed:21:58:61:ec:ae:e4:ba:e4:a9:ca:69:db:03:0d:
        ce:9f:81:6e:a4:9d:bb:ad:85:bf:4c:b2:42:05:36:b8:d8:00:
        7d:43:8e:89:41:fe:99:d3:35:df:fa:0f:ef:b9:e6:e9:40:28:
        0e:23:bf:2e:34:b0:53:b3
-----BEGIN CERTIFICATE-----
MIIEBTCCAe2gAwIBAgIESZYC0jANBgkqhkiG9w0BAQsFADAZMRcwFQYDVQQDDA5j
YS5leGFtcGxlLmNvbTAeFw0yNDA4MjcxNTE2MjhaFw0yNTA4MjcxNTE2MjhaMBsx
GTAXBgNVBAMMEHRlc3QuZXhhbXBsZS5jb20wggEiMA0GCSqGSIb3DQEBAQUAA4IB
DwAwggEKAoIBAQC6UKSycisl1Dndrs2v22nmloqj7fwofxxC0DpRcqgEdAmVx3qU
m6yeuOA92ZhkZFJtkSxuZClkmSHwOOOwmlvGSEwcps2SrIINBE2hHH4ljVV2R8ZN
/+mVDkQ2h33kctwqsChv8h5wTrw1yx6uroGsAdsdR4TGqJTbX7iWgcyc4DQwOSxE
uN2Wi6hql/tG+oSTOFz0nHmavs08uTWratdtpmQ4TDLzhq6+FNiMI+KXU1Z+e2Lh
pBJiRtqznmX5hrKaUHJrYVWLHv067UIV/Y9G6wRlliREtZMahVOiCIPaiKq49Waq
zi7hJIe7wyRGdrpMjJksUOxWxkpwD3HTB6vfAgMBAAGjUzBRMB0GA1UdDgQWBBSw
xuMfjG/eYVUdbMpgKNfB1xVIrjAfBgNVHSMEGDAWgBSwxuMfjG/eYVUdbMpgKNfB
1xVIrjAPBgNVHRMBAf8EBTADAQH/MA0GCSqGSIb3DQEBCwUAA4ICAQA0p4GVk9nI
FpqY832eFkKGm+mwAIkCIWHicKaF9ed8jpNtW9B8kDcmIOSsUtbjz/N2xAeYMaqk
JzZMUAJ7OUw7tYP0CiChixjKQ+X9LtDzyUH7/6JI4M/Meh4g2F9/hygeIpJ6Fvpy
fgnvs6w7+Wm1HjdGKU8VHpRit+NyXvtKzvC8sbydaJw8IsccZ0HTxBNg40xN1Z9V
Aon0FZYCHtIZ4aOT3yMQF7udzO5JVcSIm01GyAKLL2aFiSvT9Kluyb6MWrt9+kBk
vmWMMkyc1CeoWVtswHVhLS1brwVtjsPXvZEWOv9prFTD7BDXn2vCHGc/EmHqrBcE
sjt5BqTzBERNHOpWlJElFkxfnMSDaZJB39qRI6oQc3hGKz3u00fTZyIfi38XaXve
aGIn90/FnYpDgdCXhcmkMP/BaFRsYIfcPAgRmmy/3rsrzAGNYyZf5A0F3qmfyc8I
9ylF6CqdfyzIU8SVec7e4ZV4XUNhKpSqC+6beNCykPq8WpkRepke79fCHtdKdls0
4x+gg7am03zS2oua29M6dePmNfc5NKnyQqLgfGuzhIHZ6rCCfdJUYqprBfSP0tcQ
4QRSJBKJMi9EGcIgR7DtIVhh7K7kuuSpymnbAw3On4FupJ27rYW/TLJCBTa42AB9
Q46JQf6Z0zXf+g/vuebpQCgOI78uNLBTsw==
-----END CERTIFICATE-----
