Certificate:
    Data:
        Version: 3 (0x2)
        Serial Number: 1234567890 (0x499602d2)
        Signature Algorithm: sha256WithRSAEncryption
        Issuer: CN=ca.example.com
        Validity
            Not Before: Aug 19 05:43:25 2024 GMT
            Not After : Aug 19 05:43:25 2025 GMT
        Subject: CN=test.example.com
        Subject Public Key Info:
            Public Key Algorithm: rsaEncryption
                Public-Key: (2048 bit)
                Modulus:
                    00:d5:5c:3c:25:d4:4e:9a:33:d9:cf:19:ae:1e:f2:
                    1a:ca:1d:8a:ac:cc:cb:07:93:54:1f:63:31:a9:89:
                    2c:a1:fa:a0:9f:3d:a3:fe:2c:4f:c7:3a:3f:4c:74:
                    47:95:8a:cf:ce:90:09:67:ee:3a:b9:80:1e:5c:ab:
                    db:c4:7c:e2:19:5c:ec:d6:1a:d9:3e:b4:d8:15:48:
                    e5:ae:06:7f:d8:4b:a8:b0:1a:c6:f2:21:25:94:6d:
                    94:22:15:5a:95:e2:8f:29:91:29:8a:12:fd:8b:3f:
                    db:5b:8e:30:67:da:42:fd:2f:5f:5d:eb:e8:ec:6b:
                    ba:95:df:07:40:4c:9e:c9:c8:d5:33:f7:18:f4:cc:
                    0a:7d:41:d6:66:76:6c:11:30:46:fe:28:0a:a2:6a:
                    3c:f7:c5:c1:d9:e6:ad:77:b8:3f:1f:19:38:c3:9c:
                    93:37:b4:7d:e4:5e:5d:db:17:20:b5:25:aa:1b:ee:
                    b2:8f:6b:28:97:0c:96:34:eb:81:3b:54:a4:7c:a9:
                    fd:50:a9:98:61:eb:8c:ab:f4:0c:97:c0:20:e1:61:
                    9d:51:5d:ac:eb:ff:89:6c:26:35:f4:25:d9:a5:f6:
                    06:8c:ed:84:e6:8d:a3:44:3a:7c:ea:c0:84:17:90:
                    cc:d1:9d:ea:f5:33:c5:8a:4f:9a:ed:34:7d:27:de:
                    15:17
                Exponent: 65537 (0x10001)
        X509v3 extensions:
            X509v3 Subject Key Identifier: 
                92:E9:0E:CB:85:04:87:F9:FE:7B:BC:EF:F7:13:CB:58:25:B1:07:1A
            X509v3 Authority Key Identifier: 
                92:E9:0E:CB:85:04:87:F9:FE:7B:BC:EF:F7:13:CB:58:25:B1:07:1A
            X509v3 Basic Constraints: critical
                CA:TRUE
    Signature Algorithm: sha256WithRSAEncryption
    Signature Value:
        d7:b7:77:68:a8:30:29:44:ac:62:8c:13:2a:70:a9:5f:12:eb:
        ec:dd:e3:f2:93:80:d6:c7:ad:3a:af:0c:e2:82:86:2a:1e:bf:
        d6:a4:88:69:2d:99:e0:ea:f7:e5:ce:13:dc:c1:72:b7:29:6f:
        dc:90:cb:9e:44:4d:21:c5:e6:ca:4c:2b:52:c1:dd:62:ac:af:
        d5:5d:7b:8b:69:6b:ef:e3:bf:a0:14:f6:01:eb:96:3b:66:fc:
        b1:5c:c3:4a:a8:31:fd:fd:00:d2:66:55:c4:dd:56:64:99:80:
        8b:bc:88:b8:07:99:fc:48:fd:83:ff:2c:c5:da:fd:80:31:7c:
        76:3f:a6:73:44:c6:4d:f7:91:2d:6f:f9:a9:38:15:34:40:f2:
        80:08:14:9f:94:3e:e7:12:78:9f:de:b6:df:0c:c7:d1:8f:ea:
        bb:28:32:34:7c:40:97:23:22:d5:ca:6a:ab:6b:bf:3d:ef:18:
        cc:bb:75:87:db:92:bf:1d:23:89:0e:fc:c9:6a:69:27:c0:e3:
        61:7e:16:3d:08:22:b8:44:dc:3a:36:56:61:c0:1e:ae:ec:ae:
        00:80:50:ff:43:57:54:30:d1:aa:81:88:5e:4b:97:be:71:f8:
        47:10:43:79:71:30:91:25:cc:62:bf:43:c4:e8:3e:78:57:dc:
        f0:c5:11:98:ff:cd:f7:27:0f:97:31:4b:aa:f3:f2:84:20:3f:
        af:bc:f4:a7:ef:71:ff:e0:b7:89:aa:94:ae:31:f1:91:bf:60:
        d6:17:68:e2:6e:89:74:4e:00:2d:87:e8:93:d7:df:0f:e0:2d:
        5d:85:8b:36:58:05:2c:4e:f5:ce:ea:2f:8f:ed:3c:b0:6a:3e:
        8a:f6:8c:37:d1:02:69:65:d6:f7:28:1e:43:fd:eb:0d:4f:ec:
        a4:9e:92:43:58:95:f1:5f:86:c4:b8:d9:49:3d:73:0b:75:ca:
        53:39:5b:02:6e:d7:51:08:08:12:bc:35:8b:e7:ab:ee:aa:8b:
        01:e0:e5:3c:19:17:e0:43:ea:b4:27:fd:6d:e8:07:13:b5:44:
        db:b0:44:13:88:83:2e:00:1e:07:b6:20:a6:93:8f:f7:fc:ac:
        47:45:e4:01:d0:cd:3c:1b:d9:e0:3c:e0:2f:65:de:83:c4:3e:
        1e:d1:7e:12:83:41:32:38:80:fe:6a:0f:57:d1:96:84:5a:09:
        fe:31:de:a1:5f:f0:72:fa:98:9b:ba:2b:1a:05:05:d3:6d:b6:
        f0:d8:94:e0:0d:64:8c:38:38:66:f5:13:86:c0:b0:98:cf:08:
        40:86:25:5e:3e:74:ac:8b:a7:4e:d1:ed:e3:b8:63:c8:ad:49:
        58:dc:c0:70:3b:d7:ab:1d
-----BEGIN CERTIFICATE-----
MIIEBTCCAe2gAwIBAgIESZYC0jANBgkqhkiG9w0BAQsFADAZMRcwFQYDVQQDDA5j
YS5leGFtcGxlLmNvbTAeFw0yNDA4MTkwNTQzMjVaFw0yNTA4MTkwNTQzMjVaMBsx
GTAXBgNVBAMMEHRlc3QuZXhhbXBsZS5jb20wggEiMA0GCSqGSIb3DQEBAQUAA4IB
DwAwggEKAoIBAQDVXDwl1E6aM9nPGa4e8hrKHYqszMsHk1QfYzGpiSyh+qCfPaP+
LE/HOj9MdEeVis/OkAln7jq5gB5cq9vEfOIZXOzWGtk+tNgVSOWuBn/YS6iwGsby
ISWUbZQiFVqV4o8pkSmKEv2LP9tbjjBn2kL9L19d6+jsa7qV3wdATJ7JyNUz9xj0
zAp9QdZmdmwRMEb+KAqiajz3xcHZ5q13uD8fGTjDnJM3tH3kXl3bFyC1Jaob7rKP
ayiXDJY064E7VKR8qf1QqZhh64yr9AyXwCDhYZ1RXazr/4lsJjX0Jdml9gaM7YTm
jaNEOnzqwIQXkMzRner1M8WKT5rtNH0n3hUXAgMBAAGjUzBRMB0GA1UdDgQWBBSS
6Q7LhQSH+f57vO/3E8tYJbEHGjAfBgNVHSMEGDAWgBSS6Q7LhQSH+f57vO/3E8tY
JbEHGjAPBgNVHRMBAf8EBTADAQH/MA0GCSqGSIb3DQEBCwUAA4ICAQDXt3doqDAp
RKxijBMqcKlfEuvs3ePyk4DWx606rwzigoYqHr/WpIhpLZng6vflzhPcwXK3KW/c
kMueRE0hxebKTCtSwd1irK/VXXuLaWvv47+gFPYB65Y7ZvyxXMNKqDH9/QDSZlXE
3VZkmYCLvIi4B5n8SP2D/yzF2v2AMXx2P6ZzRMZN95Etb/mpOBU0QPKACBSflD7n
Enif3rbfDMfRj+q7KDI0fECXIyLVymqra7897xjMu3WH25K/HSOJDvzJamknwONh
fhY9CCK4RNw6NlZhwB6u7K4AgFD/Q1dUMNGqgYheS5e+cfhHEEN5cTCRJcxiv0PE
6D54V9zwxRGY/833Jw+XMUuq8/KEID+vvPSn73H/4LeJqpSuMfGRv2DWF2jibol0
TgAth+iT198P4C1dhYs2WAUsTvXO6i+P7Tywaj6K9ow30QJpZdb3KB5D/esNT+yk
npJDWJXxX4bEuNlJPXMLdcpTOVsCbtdRCAgSvDWL56vuqosB4OU8GRfgQ+q0J/1t
6AcTtUTbsEQTiIMuAB4HtiCmk4/3/KxHReQB0M08G9ngPOAvZd6DxD4e0X4Sg0Ey
OID+ag9X0ZaEWgn+Md6hX/By+pibuisaBQXTbbbw2JTgDWSMODhm9ROGwLCYzwhA
hiVePnSsi6dO0e3juGPIrUlY3MBwO9erHQ==
-----END CERTIFICATE-----
