Certificate:
    Data:
        Version: 3 (0x2)
        Serial Number: 1234567890 (0x499602d2)
        Signature Algorithm: sha256WithRSAEncryption
        Issuer: CN=ca.example.com
        Validity
            Not Before: Sep 11 01:09:58 2024 GMT
            Not After : Sep 11 01:09:58 2025 GMT
        Subject: CN=test.example.com
        Subject Public Key Info:
            Public Key Algorithm: rsaEncryption
                Public-Key: (2048 bit)
                Modulus:
                    00:a3:e2:b7:e7:5c:26:21:19:58:21:c9:be:bd:a3:
                    0a:12:d2:b3:56:0e:5a:60:bd:1e:b5:5c:60:c6:4d:
                    2c:f0:a2:70:fc:92:8b:96:5d:da:ea:73:1f:e5:16:
                    03:cb:8b:f6:ba:09:3f:6c:48:39:db:bf:6e:b0:c5:
                    07:fe:bd:eb:1d:3d:a8:d2:3e:d7:af:71:e2:5f:bb:
                    01:ab:40:fa:00:89:04:8e:ab:a9:87:b6:f9:af:87:
                    21:ca:bd:a7:bc:c9:fd:ed:8a:0f:a7:b6:9f:2c:2a:
                    1b:32:17:ca:0b:9c:57:51:07:85:3e:ac:9c:f4:b5:
                    4b:34:73:a7:18:24:83:88:aa:74:fc:07:6e:8e:bd:
                    5e:f3:03:44:d0:60:2a:a8:3b:44:12:55:b7:a1:64:
                    b1:04:9d:d1:67:6c:92:c3:5e:3d:75:90:7a:bd:2f:
                    78:1e:e9:7b:bf:d3:0c:4c:d7:a0:ae:99:94:2d:cf:
                    3a:12:b7:4c:74:a4:0c:36:25:be:6a:4e:25:11:e8:
                    55:c2:82:23:2b:7b:66:4c:ed:6d:06:13:53:81:97:
                    bc:e5:ac:1b:92:dd:3f:5b:89:a6:6f:d9:f5:e9:68:
                    9b:cf:62:0d:39:92:fb:28:ef:8e:1d:18:1c:7c:ae:
                    27:db:a9:70:ae:2e:8d:18:a0:0f:ef:b3:41:98:08:
                    27:f7
                Exponent: 65537 (0x10001)
        X509v3 extensions:
            X509v3 Subject Key Identifier: 
                C4:61:70:D8:3E:42:6E:08:C9:C4:6B:09:50:19:0A:BF:6E:03:57:D2
            X509v3 Authority Key Identifier: 
                C4:61:70:D8:3E:42:6E:08:C9:C4:6B:09:50:19:0A:BF:6E:03:57:D2
            X509v3 Basic Constraints: critical
                CA:TRUE
    Signature Algorithm: sha256WithRSAEncryption
    Signature Value:
        ae:e3:fc:df:b5:c2:dc:88:b0:82:cc:83:6b:5b:23:a3:8d:dd:
        ec:a5:e9:1d:80:79:e4:3a:d2:c6:82:b6:8b:7b:df:3a:0a:c9:
        a9:27:c6:f5:c7:0e:4c:64:db:12:22:9b:0a:c3:5f:3b:e4:59:
        dc:ea:80:72:84:d3:8f:9a:7c:4c:7f:70:e4:9b:ac:d8:58:63:
        9a:d9:94:ba:27:12:a2:54:ee:fb:35:3e:98:97:b4:5e:19:0f:
        f4:9f:ca:69:0b:42:36:0f:44:43:cc:07:31:5b:7e:be:74:6c:
        92:f1:15:e2:01:b1:2e:58:51:50:f0:18:86:3a:9f:0d:a3:94:
        ef:ce:32:7b:f9:cb:35:cd:aa:35:6d:78:50:82:ef:23:91:85:
        a5:30:44:78:81:87:ca:85:f8:d0:b2:c3:3a:6e:fe:d8:20:54:
        c0:a3:40:1b:b3:f6:a1:86:fb:ad:ec:97:9d:8e:2f:3c:62:5a:
        58:ad:57:4f:41:24:e7:ae:94:a6:ca:bf:de:9f:2f:a2:a9:2e:
        56:7a:83:ab:d1:d0:c7:b2:fd:78:4f:a0:1b:a1:94:6a:b3:d9:
        a2:9f:73:42:d3:65:3e:16:63:1f:5b:cd:e1:1d:c0:98:10:c6:
        ab:2e:ac:52:35:e6:71:0c:75:93:df:e9:d7:1a:39:f5:d2:3f:
        09:27:5d:a7:21:e7:58:20:c7:29:77:62:87:72:3b:eb:17:8d:
        3e:5e:7f:e2:c4:d9:af:5b:4d:67:6d:92:b4:54:3d:68:ee:06:
        c8:27:d0:e8:2b:1a:4f:ff:17:81:9a:22:16:2e:79:7b:cb:69:
        5b:4c:f0:19:1f:f9:d1:c7:a5:05:1a:8d:f4:9d:53:db:74:42:
        62:37:11:af:d0:01:96:30:aa:8c:f5:d6:cb:a7:2f:d1:6b:ee:
        5b:ba:29:8b:ce:33:ea:c1:06:85:cb:7d:2e:d6:27:ae:7a:e6:
        a6:84:df:cb:03:0f:5b:6a:9a:a7:06:5d:1a:b7:79:90:c3:52:
        96:73:2c:1d:f7:c3:03:3c:c5:02:36:bc:07:11:93:05:78:fe:
        fd:5d:bf:c5:4a:96:98:48:90:be:02:c2:8c:74:32:3e:c6:25:
        71:00:8a:6d:69:6d:48:57:72:1f:81:2e:c4:36:1a:72:5e:f2:
        8a:09:d6:3b:48:af:1f:27:46:a3:84:72:41:57:11:8a:99:99:
        7c:d9:99:25:4b:ea:68:54:76:b7:ce:44:8a:68:30:eb:5e:1d:
        1f:ce:17:3c:76:77:ec:f8:bf:94:37:2a:60:6c:b9:3e:18:1d:
        13:76:1b:23:5a:37:24:a7:13:71:9f:ea:3c:62:a6:fc:2a:e1:
        39:0a:ac:5c:3d:80:a5:61
-----BEGIN CERTIFICATE-----
MIIEBTCCAe2gAwIBAgIESZYC0jANBgkqhkiG9w0BAQsFADAZMRcwFQYDVQQDDA5j
YS5leGFtcGxlLmNvbTAeFw0yNDA5MTEwMTA5NThaFw0yNTA5MTEwMTA5NThaMBsx
GTAXBgNVBAMMEHRlc3QuZXhhbXBsZS5jb20wggEiMA0GCSqGSIb3DQEBAQUAA4IB
DwAwggEKAoIBAQCj4rfnXCYhGVghyb69owoS0rNWDlpgvR61XGDGTSzwonD8kouW
Xdrqcx/lFgPLi/a6CT9sSDnbv26wxQf+vesdPajSPtevceJfuwGrQPoAiQSOq6mH
tvmvhyHKvae8yf3tig+ntp8sKhsyF8oLnFdRB4U+rJz0tUs0c6cYJIOIqnT8B26O
vV7zA0TQYCqoO0QSVbehZLEEndFnbJLDXj11kHq9L3ge6Xu/0wxM16CumZQtzzoS
t0x0pAw2Jb5qTiUR6FXCgiMre2ZM7W0GE1OBl7zlrBuS3T9biaZv2fXpaJvPYg05
kvso744dGBx8rifbqXCuLo0YoA/vs0GYCCf3AgMBAAGjUzBRMB0GA1UdDgQWBBTE
YXDYPkJuCMnEawlQGQq/bgNX0jAfBgNVHSMEGDAWgBTEYXDYPkJuCMnEawlQGQq/
bgNX0jAPBgNVHRMBAf8EBTADAQH/MA0GCSqGSIb3DQEBCwUAA4ICAQCu4/zftcLc
iLCCzINrWyOjjd3spekdgHnkOtLGgraLe986CsmpJ8b1xw5MZNsSIpsKw1875Fnc
6oByhNOPmnxMf3Dkm6zYWGOa2ZS6JxKiVO77NT6Yl7ReGQ/0n8ppC0I2D0RDzAcx
W36+dGyS8RXiAbEuWFFQ8BiGOp8No5TvzjJ7+cs1zao1bXhQgu8jkYWlMER4gYfK
hfjQssM6bv7YIFTAo0Abs/ahhvut7Jedji88YlpYrVdPQSTnrpSmyr/eny+iqS5W
eoOr0dDHsv14T6AboZRqs9min3NC02U+FmMfW83hHcCYEMarLqxSNeZxDHWT3+nX
Gjn10j8JJ12nIedYIMcpd2KHcjvrF40+Xn/ixNmvW01nbZK0VD1o7gbIJ9DoKxpP
/xeBmiIWLnl7y2lbTPAZH/nRx6UFGo30nVPbdEJiNxGv0AGWMKqM9dbLpy/Ra+5b
uimLzjPqwQaFy30u1ieueuamhN/LAw9bapqnBl0at3mQw1KWcywd98MDPMUCNrwH
EZMFeP79Xb/FSpaYSJC+AsKMdDI+xiVxAIptaW1IV3IfgS7ENhpyXvKKCdY7SK8f
J0ajhHJBVxGKmZl82ZklS+poVHa3zkSKaDDrXh0fzhc8dnfs+L+UNypgbLk+GB0T
dhsjWjckpxNxn+o8Yqb8KuE5CqxcPYClYQ==
-----END CERTIFICATE-----
