Certificate:
    Data:
        Version: 3 (0x2)
        Serial Number: 1234567890 (0x499602d2)
        Signature Algorithm: sha256WithRSAEncryption
        Issuer: CN=ca.example.com
        Validity
            Not Before: Aug 12 03:07:35 2024 GMT
            Not After : Aug 12 03:07:35 2025 GMT
        Subject: CN=test.example.com
        Subject Public Key Info:
            Public Key Algorithm: rsaEncryption
                Public-Key: (2048 bit)
                Modulus:
                    00:ea:78:e0:68:b1:22:0b:83:35:39:c5:8c:f6:c6:
                    08:7b:7e:a3:81:43:57:70:d7:f7:d2:78:90:27:36:
                    fe:77:1b:ae:0c:65:ad:7e:a9:54:b5:45:7b:41:59:
                    1a:36:34:fc:bd:cc:ff:db:9c:ca:44:8f:99:fd:61:
                    d5:f0:04:c3:98:dc:c7:60:75:fd:b8:7e:e5:d6:38:
                    42:c8:fa:26:0e:67:fd:4f:24:21:04:4e:31:ae:9a:
                    7f:80:9f:e2:ba:63:a6:15:3d:5f:0d:96:7f:12:b0:
                    6b:83:a1:8f:b7:aa:42:ed:bd:3e:db:55:26:02:98:
                    16:77:d9:80:88:e4:b9:e0:d5:8c:37:2d:b6:9f:a3:
                    90:42:3c:b3:57:af:7f:7d:c9:a5:77:c7:ec:12:89:
                    7f:48:db:65:43:6e:42:9a:31:aa:d8:65:c7:77:ca:
                    40:96:16:dd:46:a4:6e:f0:a5:b9:a8:0b:6f:e2:a6:
                    2a:f0:11:26:da:90:4a:49:27:91:86:0a:29:8a:2d:
                    b2:6b:e8:7c:d0:b8:ab:c0:8a:db:ad:27:e7:0e:fb:
                    d4:5d:72:55:89:7b:10:eb:3c:36:8b:b9:32:ea:41:
                    07:ce:b4:30:72:25:2a:7b:e5:c4:e6:40:af:f8:4d:
                    ec:24:35:3a:dd:fd:f0:95:fc:bf:17:89:a5:5f:14:
                    8f:ff
                Exponent: 65537 (0x10001)
        X509v3 extensions:
            X509v3 Subject Key Identifier: 
                48:86:BA:90:A2:E7:7A:7D:DB:AB:15:F2:07:B0:03:06:D1:91:AE:66
            X509v3 Authority Key Identifier: 
                48:86:BA:90:A2:E7:7A:7D:DB:AB:15:F2:07:B0:03:06:D1:91:AE:66
            X509v3 Basic Constraints: critical
                CA:TRUE
    Signature Algorithm: sha256WithRSAEncryption
    Signature Value:
        2e:73:41:af:3b:50:2a:b7:1f:0d:77:ca:01:4a:bc:e7:ba:39:
        41:10:fc:14:55:32:fc:e1:8f:c7:9e:00:13:ae:fe:6f:79:42:
        7f:85:6a:39:4a:9f:2b:03:71:52:81:42:17:e3:4b:7a:88:a1:
        7b:6f:4b:54:d5:e7:2c:fb:98:90:8b:8a:8f:57:3f:e4:53:87:
        bc:7c:26:98:f1:85:07:6b:51:01:d2:8b:ff:a7:63:42:7f:7b:
        a8:12:0c:10:6b:3c:1a:cb:00:09:cb:e4:5f:b0:7b:f4:4c:bc:
        a3:aa:5e:55:50:0f:89:57:6c:31:e1:41:7d:3e:80:46:24:5e:
        95:81:0a:ce:3f:c2:9f:e5:7b:c0:3a:7d:6b:99:d1:63:61:46:
        0a:6f:09:24:2c:96:aa:90:6d:b8:c6:a5:30:a6:f7:86:b0:82:
        c5:06:a9:3d:ed:0d:4b:a8:3f:7d:16:28:b5:ad:5e:5a:93:cd:
        ea:ab:6a:eb:27:8d:91:da:ee:bf:8d:c7:83:68:13:55:45:ce:
        bb:9d:36:5f:a4:70:5e:ff:5e:82:25:8e:4a:24:0d:08:53:48:
        cb:8a:1e:eb:85:2b:34:e5:5d:d2:4f:7f:3c:2f:a2:a8:b1:8a:
        89:96:88:93:1e:a4:57:1c:95:9b:51:20:23:bf:72:90:ad:75:
        31:7e:00:61:f4:a6:e4:ec:5e:af:06:6f:0b:84:20:88:54:fe:
        ea:d8:84:3c:99:81:ed:a7:66:8e:d6:cb:d0:6b:9a:80:3c:67:
        17:4d:d2:e9:1f:b7:80:da:f4:ce:1f:46:e3:e7:ae:15:72:71:
        f7:ed:40:1a:96:b6:bd:45:2d:1c:39:1d:17:99:67:00:99:a3:
        27:ca:ea:da:22:f3:be:6e:c4:70:91:ee:69:d9:05:a5:ab:f9:
        6e:d2:2a:59:22:9a:a8:0e:34:e7:25:53:f2:8e:5b:ea:ac:68:
        8e:3b:01:67:80:e2:56:43:83:8f:e9:75:4e:05:e5:0d:b6:25:
        89:d4:e0:f2:d4:a8:74:04:4e:1e:83:be:78:ed:57:9f:f1:a5:
        62:5e:26:bf:50:d6:17:af:33:8c:48:dc:56:50:08:9b:41:da:
        50:9b:f5:93:73:88:df:f7:b6:a1:36:51:f6:f6:09:c8:51:ee:
        1b:00:21:41:87:4a:4f:dc:4c:e1:69:5c:9f:c4:48:fd:8c:c1:
        0d:53:f2:16:48:4e:d9:2a:8e:66:7a:81:3d:31:4a:2d:bc:70:
        00:9b:86:89:21:6b:05:5a:5d:2b:e3:67:91:4c:48:61:21:e0:
        ef:d2:78:f0:2f:be:d1:b4:4e:d5:de:49:77:d2:57:e6:c9:7a:
        9b:ce:47:cb:2f:a7:fd:d1
-----BEGIN CERTIFICATE-----
MIIEBTCCAe2gAwIBAgIESZYC0jANBgkqhkiG9w0BAQsFADAZMRcwFQYDVQQDDA5j
YS5leGFtcGxlLmNvbTAeFw0yNDA4MTIwMzA3MzVaFw0yNTA4MTIwMzA3MzVaMBsx
GTAXBgNVBAMMEHRlc3QuZXhhbXBsZS5jb20wggEiMA0GCSqGSIb3DQEBAQUAA4IB
DwAwggEKAoIBAQDqeOBosSILgzU5xYz2xgh7fqOBQ1dw1/fSeJAnNv53G64MZa1+
qVS1RXtBWRo2NPy9zP/bnMpEj5n9YdXwBMOY3Mdgdf24fuXWOELI+iYOZ/1PJCEE
TjGumn+An+K6Y6YVPV8Nln8SsGuDoY+3qkLtvT7bVSYCmBZ32YCI5Lng1Yw3Lbaf
o5BCPLNXr399yaV3x+wSiX9I22VDbkKaMarYZcd3ykCWFt1GpG7wpbmoC2/ipirw
ESbakEpJJ5GGCimKLbJr6HzQuKvAitutJ+cO+9RdclWJexDrPDaLuTLqQQfOtDBy
JSp75cTmQK/4TewkNTrd/fCV/L8XiaVfFI//AgMBAAGjUzBRMB0GA1UdDgQWBBRI
hrqQoud6fdurFfIHsAMG0ZGuZjAfBgNVHSMEGDAWgBRIhrqQoud6fdurFfIHsAMG
0ZGuZjAPBgNVHRMBAf8EBTADAQH/MA0GCSqGSIb3DQEBCwUAA4ICAQAuc0GvO1Aq
tx8Nd8oBSrznujlBEPwUVTL84Y/HngATrv5veUJ/hWo5Sp8rA3FSgUIX40t6iKF7
b0tU1ecs+5iQi4qPVz/kU4e8fCaY8YUHa1EB0ov/p2NCf3uoEgwQazwaywAJy+Rf
sHv0TLyjql5VUA+JV2wx4UF9PoBGJF6VgQrOP8Kf5XvAOn1rmdFjYUYKbwkkLJaq
kG24xqUwpveGsILFBqk97Q1LqD99Fii1rV5ak83qq2rrJ42R2u6/jceDaBNVRc67
nTZfpHBe/16CJY5KJA0IU0jLih7rhSs05V3ST388L6KosYqJloiTHqRXHJWbUSAj
v3KQrXUxfgBh9Kbk7F6vBm8LhCCIVP7q2IQ8mYHtp2aO1svQa5qAPGcXTdLpH7eA
2vTOH0bj564VcnH37UAalra9RS0cOR0XmWcAmaMnyuraIvO+bsRwke5p2QWlq/lu
0ipZIpqoDjTnJVPyjlvqrGiOOwFngOJWQ4OP6XVOBeUNtiWJ1ODy1Kh0BE4eg754
7Vef8aViXia/UNYXrzOMSNxWUAibQdpQm/WTc4jf97ahNlH29gnIUe4bACFBh0pP
3EzhaVyfxEj9jMENU/IWSE7ZKo5meoE9MUotvHAAm4aJIWsFWl0r42eRTEhhIeDv
0njwL77RtE7V3kl30lfmyXqbzkfLL6f90Q==
-----END CERTIFICATE-----
