Certificate:
    Data:
        Version: 3 (0x2)
        Serial Number: 1234567890 (0x499602d2)
        Signature Algorithm: sha256WithRSAEncryption
        Issuer: CN=ca.example.com
        Validity
            Not Before: Aug 12 04:11:31 2024 GMT
            Not After : Aug 12 04:11:31 2025 GMT
        Subject: CN=test.example.com
        Subject Public Key Info:
            Public Key Algorithm: rsaEncryption
                Public-Key: (2048 bit)
                Modulus:
                    00:c0:d6:e6:a8:8f:09:41:ff:cf:ca:5c:fe:f2:86:
                    bc:f1:84:51:20:1b:38:af:d7:71:ab:54:36:19:06:
                    92:15:d3:07:d2:47:2d:b4:61:3c:bc:e7:a9:87:3d:
                    f3:59:fd:83:18:3a:e2:cf:bb:6c:cb:48:85:4a:71:
                    ef:3c:3f:56:ee:37:07:e2:c8:ca:eb:b7:0b:92:d1:
                    49:4d:a7:95:a8:98:8e:73:ab:74:d9:90:69:76:07:
                    7e:13:30:a8:26:f3:c0:80:b4:53:78:eb:40:21:37:
                    f1:1a:9e:79:9a:c1:e8:02:af:8f:85:ef:5d:8f:ca:
                    01:11:87:9c:a1:e9:2f:95:1b:34:c5:dd:0b:14:63:
                    57:11:b2:6b:44:f6:e2:08:8d:83:56:ee:a8:3c:33:
                    55:5e:45:0d:25:ae:7b:09:e2:31:7f:8c:7d:7e:4c:
                    ea:5d:c1:bb:07:40:24:ff:95:34:a8:4a:4e:4d:1a:
                    f8:2c:8b:94:30:c8:e3:13:e3:a0:08:d5:36:9c:7d:
                    79:49:9f:14:98:98:04:2c:14:c3:ae:43:86:7d:7d:
                    5e:2a:bf:64:ac:0b:45:e3:b4:cb:96:ae:a0:11:a6:
                    78:a3:0a:ad:ca:1a:90:11:c9:c6:17:88:fb:a8:6d:
                    b5:da:24:da:ac:af:ff:e5:b5:46:6d:85:46:4e:ab:
                    74:9f
                Exponent: 65537 (0x10001)
        X509v3 extensions:
            X509v3 Subject Key Identifier: 
                5B:88:D5:FC:C6:B5:E1:07:E7:6F:35:54:F0:FE:1B:86:FC:B6:A5:46
            X509v3 Authority Key Identifier: 
                5B:88:D5:FC:C6:B5:E1:07:E7:6F:35:54:F0:FE:1B:86:FC:B6:A5:46
            X509v3 Basic Constraints: critical
                CA:TRUE
    Signature Algorithm: sha256WithRSAEncryption
    Signature Value:
        a1:b2:ec:76:9d:98:e8:78:0b:36:0a:78:00:e6:23:0e:e1:78:
        8e:93:f7:69:e4:95:e8:d6:01:82:53:bc:46:27:ac:62:23:4d:
        5b:62:31:32:31:73:e6:94:4e:0f:b0:a3:dc:aa:04:be:98:3a:
        03:68:c3:b2:8c:99:f8:ff:ff:f2:85:6a:c8:94:7f:a3:db:61:
        e7:51:c3:5e:05:52:ee:72:83:c6:91:49:5b:d8:bf:2c:3d:13:
        05:3b:cc:53:eb:f5:14:17:ea:5a:7e:1a:ad:2c:d3:f0:69:38:
        1f:cf:28:83:f7:7f:6a:29:81:10:a8:56:e1:73:af:0f:7a:52:
        63:b2:71:ba:c7:54:f9:5f:33:f1:9a:7a:24:bf:da:e1:10:16:
        a3:ea:7e:60:6c:d0:0a:34:0a:5e:3b:81:78:bb:e2:59:96:57:
        71:19:34:7c:2e:81:6a:09:0e:55:14:09:09:28:4b:9c:3b:e9:
        2d:e4:06:2f:71:a9:84:5b:7b:62:08:80:54:36:73:45:ad:c8:
        03:b1:4c:39:02:05:8f:8c:23:bc:55:70:20:dc:37:77:18:0c:
        d0:0d:a1:89:0b:56:f7:3e:53:c6:59:fb:0e:3b:3d:7a:d1:11:
        7b:e0:18:09:ee:0f:ec:46:27:ba:81:ad:fe:95:0f:c4:c8:98:
        16:88:e4:69:57:7a:6a:c5:62:a3:c3:80:51:75:c1:23:43:89:
        ef:66:77:f9:97:34:2c:28:be:8b:e4:2e:9d:c0:e5:63:ba:34:
        5c:27:c3:59:ab:5c:1b:1c:b1:7d:36:ec:27:d6:14:ea:88:af:
        ff:ed:7f:25:83:cf:91:6a:83:7b:9b:50:3b:a3:7f:79:b9:88:
        4a:6d:2f:44:8e:46:f7:28:0a:e0:05:4c:97:4e:5a:68:63:43:
        4a:5e:f1:37:0a:a3:45:77:5d:1c:15:65:de:22:05:11:ef:0f:
        c9:f9:6e:e6:de:18:53:5d:96:19:bf:2d:c7:06:70:a6:5c:58:
        6c:be:e6:a8:94:03:a4:b0:ab:a2:e3:c1:ff:b1:fd:fe:2e:77:
        cd:bc:0b:be:ae:45:52:0d:09:84:2f:37:19:d2:ad:f9:48:47:
        9b:09:d4:e9:e5:b2:a5:77:0a:1d:b0:2e:21:1a:51:92:b5:22:
        94:7f:fc:79:71:1a:9f:7b:5b:b4:d7:87:70:38:0a:a7:f4:4f:
        96:85:07:49:09:c4:26:b1:2b:7a:d4:d5:37:84:cc:63:54:43:
        1e:cf:16:c7:70:d4:51:b4:ae:8f:b0:54:93:0d:5d:06:f5:aa:
        d4:96:4c:c3:2a:10:e7:2e:d9:cd:69:03:f4:d7:6a:b2:86:e1:
        be:1a:e8:7d:72:23:d4:a6
-----BEGIN CERTIFICATE-----
MIIEBTCCAe2gAwIBAgIESZYC0jANBgkqhkiG9w0BAQsFADAZMRcwFQYDVQQDDA5j
YS5leGFtcGxlLmNvbTAeFw0yNDA4MTIwNDExMzFaFw0yNTA4MTIwNDExMzFaMBsx
GTAXBgNVBAMMEHRlc3QuZXhhbXBsZS5jb20wggEiMA0GCSqGSIb3DQEBAQUAA4IB
DwAwggEKAoIBAQDA1uaojwlB/8/KXP7yhrzxhFEgGziv13GrVDYZBpIV0wfSRy20
YTy856mHPfNZ/YMYOuLPu2zLSIVKce88P1buNwfiyMrrtwuS0UlNp5WomI5zq3TZ
kGl2B34TMKgm88CAtFN460AhN/EannmawegCr4+F712PygERh5yh6S+VGzTF3QsU
Y1cRsmtE9uIIjYNW7qg8M1VeRQ0lrnsJ4jF/jH1+TOpdwbsHQCT/lTSoSk5NGvgs
i5QwyOMT46AI1TacfXlJnxSYmAQsFMOuQ4Z9fV4qv2SsC0XjtMuWrqARpnijCq3K
GpARycYXiPuobbXaJNqsr//ltUZthUZOq3SfAgMBAAGjUzBRMB0GA1UdDgQWBBRb
iNX8xrXhB+dvNVTw/huG/LalRjAfBgNVHSMEGDAWgBRbiNX8xrXhB+dvNVTw/huG
/LalRjAPBgNVHRMBAf8EBTADAQH/MA0GCSqGSIb3DQEBCwUAA4ICAQChsux2nZjo
eAs2CngA5iMO4XiOk/dp5JXo1gGCU7xGJ6xiI01bYjEyMXPmlE4PsKPcqgS+mDoD
aMOyjJn4///yhWrIlH+j22HnUcNeBVLucoPGkUlb2L8sPRMFO8xT6/UUF+pafhqt
LNPwaTgfzyiD939qKYEQqFbhc68PelJjsnG6x1T5XzPxmnokv9rhEBaj6n5gbNAK
NApeO4F4u+JZlldxGTR8LoFqCQ5VFAkJKEucO+kt5AYvcamEW3tiCIBUNnNFrcgD
sUw5AgWPjCO8VXAg3Dd3GAzQDaGJC1b3PlPGWfsOOz160RF74BgJ7g/sRie6ga3+
lQ/EyJgWiORpV3pqxWKjw4BRdcEjQ4nvZnf5lzQsKL6L5C6dwOVjujRcJ8NZq1wb
HLF9Nuwn1hTqiK//7X8lg8+RaoN7m1A7o395uYhKbS9Ejkb3KArgBUyXTlpoY0NK
XvE3CqNFd10cFWXeIgUR7w/J+W7m3hhTXZYZvy3HBnCmXFhsvuaolAOksKui48H/
sf3+LnfNvAu+rkVSDQmELzcZ0q35SEebCdTp5bKldwodsC4hGlGStSKUf/x5cRqf
e1u014dwOAqn9E+WhQdJCcQmsSt61NU3hMxjVEMezxbHcNRRtK6PsFSTDV0G9arU
lkzDKhDnLtnNaQP012qyhuG+Guh9ciPUpg==
-----END CERTIFICATE-----
