Certificate:
    Data:
        Version: 3 (0x2)
        Serial Number:
            13:46:77:47:5b:19:ca:2b:4c:33:12:62:eb:1e:29:d0:50:06:7a:43
        Signature Algorithm: sha256WithRSAEncryption
        Issuer: CN=ca.example.com
        Validity
            Not Before: Aug 19 05:43:26 2024 GMT
            Not After : Sep 18 05:43:26 2024 GMT
        Subject: CN=b.example.com
        Subject Public Key Info:
            Public Key Algorithm: rsaEncryption
                Public-Key: (4096 bit)
                Modulus:
                    00:a9:87:91:88:28:3a:b0:ba:24:7d:a3:15:cc:fc:
                    96:99:66:b3:c3:3a:b2:ac:62:30:08:c8:7b:52:9a:
                    08:13:eb:66:82:c5:3b:b2:20:28:5c:8a:41:df:47:
                    b3:97:b7:d5:df:3b:4c:a3:de:3b:cc:0c:f3:cd:97:
                    22:08:32:a6:a6:55:70:ca:34:d4:0b:b0:93:dd:49:
                    17:c5:d0:13:cf:aa:8d:f7:da:19:b5:ef:21:a3:4d:
                    69:62:52:d3:2f:64:aa:40:82:a9:71:b1:48:c0:1f:
                    b2:78:cc:9d:20:d3:19:b1:9b:68:75:b6:4b:d3:10:
                    dc:81:22:a1:9f:b9:d9:70:a0:c2:59:86:5a:bb:44:
                    39:b5:47:af:46:97:7e:13:f9:47:17:d0:5b:b7:82:
                    a5:ad:a6:90:37:b2:89:8c:fa:2d:81:6d:45:a4:88:
                    9a:3b:a8:bb:3d:30:60:88:79:da:05:ab:cb:ca:fc:
                    80:f0:52:94:30:fb:78:6f:78:39:23:73:70:81:4e:
                    75:a7:e1:1f:b5:9e:dc:be:a8:c0:b3:9d:18:10:41:
                    c2:ca:7f:b4:83:d2:6d:fb:fb:65:34:72:28:db:5d:
                    5a:06:27:7b:2a:df:05:a9:b9:09:38:09:53:07:6d:
                    fe:6e:28:f4:44:e8:d6:bd:50:f5:8b:92:8f:ca:e2:
                    68:a2:fb:00:01:c9:03:44:a3:01:65:63:31:50:2d:
                    35:4e:97:c3:e6:dd:c3:5b:07:70:52:5e:24:fe:30:
                    b7:9e:ee:a6:73:d0:ec:f5:92:23:0c:40:0a:ce:9c:
                    e4:b9:d9:be:a1:18:72:69:18:69:cd:18:9c:4c:4f:
                    20:c8:d4:8c:81:a8:5e:a9:53:09:15:88:78:70:03:
                    93:5b:6c:69:2a:c1:58:ea:fe:f9:fd:7f:fe:4e:3d:
                    e4:48:15:98:08:2c:95:ce:f2:f0:2b:22:39:2e:cb:
                    d6:54:96:8a:8e:c6:c5:d1:88:f8:a1:33:9b:6c:f5:
                    88:06:b1:d7:e6:21:b2:f5:06:92:80:47:1a:e3:e8:
                    ca:88:56:39:fd:14:8b:33:29:a3:f8:3c:b9:9c:3c:
                    be:1b:6d:2f:aa:cb:d1:db:57:13:cf:3a:7c:af:7c:
                    2d:aa:c7:c8:58:db:b6:6e:07:52:cf:d8:e3:13:1c:
                    88:b3:d9:76:e1:45:64:c2:b7:8e:91:90:07:f5:d3:
                    f4:f9:12:2a:81:93:25:51:8b:f3:f4:eb:15:60:fc:
                    5a:09:36:e7:50:81:e7:46:19:8b:c4:1e:e3:4a:7d:
                    9b:5a:ec:0b:de:9f:e9:13:56:0a:a6:3e:20:a9:d3:
                    ac:a6:82:e0:c0:b0:52:be:d2:61:19:7e:89:62:6d:
                    cf:dc:c5
                Exponent: 65537 (0x10001)
        X509v3 extensions:
            X509v3 Subject Key Identifier: 
                76:81:4B:4C:2B:10:F8:8E:FC:04:3E:8F:24:74:76:33:28:40:74:B9
            X509v3 Authority Key Identifier: 
                E6:FD:C8:0B:A9:E3:5E:26:E8:DC:7C:1D:E9:9B:53:F2:1E:31:F7:84
    Signature Algorithm: sha256WithRSAEncryption
    Signature Value:
        2a:2b:d7:6f:f5:89:ff:99:37:c1:5b:04:4c:61:68:88:3d:6d:
        e3:07:4f:eb:72:33:1c:98:60:b8:c7:13:a3:72:3d:9c:23:7e:
        da:90:ec:cb:3e:51:df:cd:8d:12:6a:db:72:f2:af:4e:bd:f4:
        d7:cc:2b:87:46:c2:78:dc:4e:33:bf:81:bc:69:38:62:38:b7:
        e7:e0:28:d4:a4:3b:6f:a5:27:f3:ab:c8:54:4c:83:7a:90:7b:
        83:f4:64:41:af:1e:65:5d:ef:5d:a2:ae:b6:db:4d:2a:32:77:
        42:a2:e9:10:78:d0:52:8a:1d:0e:ef:e2:83:90:95:87:ed:38:
        6c:e2:30:1a:2f:91:f6:23:c0:b6:c6:61:fb:33:0b:b9:f2:c3:
        3d:d4:e4:8c:5f:8a:60:1b:5b:d5:80:7f:c8:b7:94:ff:f3:a1:
        0e:4f:4f:27:20:4c:4f:b1:55:c7:2a:e8:e6:0d:1c:86:3f:82:
        32:fd:17:44:f0:db:2f:b9:9d:aa:7e:51:11:5e:02:77:7e:3c:
        b3:af:3f:41:fb:bb:a0:84:8c:3f:65:3a:fd:1b:52:8f:a9:72:
        56:9b:9d:e4:19:76:01:70:b7:54:7a:dc:b8:58:2d:ff:44:80:
        71:2a:8f:f1:f9:70:76:05:94:81:0e:85:02:c9:d0:1e:ae:c9:
        91:d4:8e:bc:e0:be:2e:7c:7c:af:5a:46:04:9e:6c:83:d8:5e:
        df:5d:cf:97:54:9c:60:3c:ec:29:a2:d2:d6:8c:cf:b6:9a:8f:
        04:75:0e:4e:94:25:0e:bf:9c:81:f0:29:a5:d0:a8:88:5b:0c:
        bd:d7:1c:48:9d:b5:e7:2c:b4:e1:7b:e7:6e:00:70:1c:12:f7:
        5c:06:61:7f:d1:71:31:c0:aa:29:98:35:ad:5d:bb:90:01:c1:
        a0:87:8e:c0:09:88:5a:d0:aa:57:f5:75:fb:c9:10:b8:06:23:
        66:df:5f:c7:2f:1f:d7:35:e6:bc:84:bf:b9:55:79:6f:32:df:
        bb:5c:7f:24:5e:fa:ea:58:6e:9a:0e:ab:8d:01:c1:7a:24:32:
        0c:b2:98:37:2e:ba:ff:6e:30:fd:4d:90:ac:a5:5b:b9:e9:f7:
        2e:02:9b:68:75:f5:ed:80:ae:ce:37:4c:d1:be:02:c0:e1:2d:
        36:e6:a6:d7:91:09:c5:eb:cc:79:64:19:5e:88:43:35:71:8a:
        f2:2e:d2:b8:ce:fa:e4:33:c9:de:f8:2e:94:71:a2:5e:f4:d8:
        29:34:77:cc:78:a9:00:ff:19:49:e6:29:ab:dc:7d:75:18:d1:
        96:33:b4:3a:fa:8d:77:69:a1:bf:01:d4:e9:be:dc:ae:31:1b:
        25:b5:2a:88:4f:8f:18:55
-----BEGIN CERTIFICATE-----
MIIFATCCAumgAwIBAgIUE0Z3R1sZyitMMxJi6x4p0FAGekMwDQYJKoZIhvcNAQEL
BQAwGTEXMBUGA1UEAwwOY2EuZXhhbXBsZS5jb20wHhcNMjQwODE5MDU0MzI2WhcN
MjQwOTE4MDU0MzI2WjAYMRYwFAYDVQQDDA1iLmV4YW1wbGUuY29tMIICIjANBgkq
hkiG9w0BAQEFAAOCAg8AMIICCgKCAgEAqYeRiCg6sLokfaMVzPyWmWazwzqyrGIw
CMh7UpoIE+tmgsU7siAoXIpB30ezl7fV3ztMo947zAzzzZciCDKmplVwyjTUC7CT
3UkXxdATz6qN99oZte8ho01pYlLTL2SqQIKpcbFIwB+yeMydINMZsZtodbZL0xDc
gSKhn7nZcKDCWYZau0Q5tUevRpd+E/lHF9Bbt4KlraaQN7KJjPotgW1FpIiaO6i7
PTBgiHnaBavLyvyA8FKUMPt4b3g5I3NwgU51p+EftZ7cvqjAs50YEEHCyn+0g9Jt
+/tlNHIo211aBid7Kt8FqbkJOAlTB23+bij0ROjWvVD1i5KPyuJoovsAAckDRKMB
ZWMxUC01TpfD5t3DWwdwUl4k/jC3nu6mc9Ds9ZIjDEAKzpzkudm+oRhyaRhpzRic
TE8gyNSMgaheqVMJFYh4cAOTW2xpKsFY6v75/X/+Tj3kSBWYCCyVzvLwKyI5LsvW
VJaKjsbF0Yj4oTObbPWIBrHX5iGy9QaSgEca4+jKiFY5/RSLMymj+Dy5nDy+G20v
qsvR21cTzzp8r3wtqsfIWNu2bgdSz9jjExyIs9l24UVkwreOkZAH9dP0+RIqgZMl
UYvz9OsVYPxaCTbnUIHnRhmLxB7jSn2bWuwL3p/pE1YKpj4gqdOspoLgwLBSvtJh
GX6JYm3P3MUCAwEAAaNCMEAwHQYDVR0OBBYEFHaBS0wrEPiO/AQ+jyR0djMoQHS5
MB8GA1UdIwQYMBaAFOb9yAup414m6Nx8HembU/IeMfeEMA0GCSqGSIb3DQEBCwUA
A4ICAQAqK9dv9Yn/mTfBWwRMYWiIPW3jB0/rcjMcmGC4xxOjcj2cI37akOzLPlHf
zY0Satty8q9OvfTXzCuHRsJ43E4zv4G8aThiOLfn4CjUpDtvpSfzq8hUTIN6kHuD
9GRBrx5lXe9doq62200qMndCoukQeNBSih0O7+KDkJWH7Ths4jAaL5H2I8C2xmH7
Mwu58sM91OSMX4pgG1vVgH/It5T/86EOT08nIExPsVXHKujmDRyGP4Iy/RdE8Nsv
uZ2qflERXgJ3fjyzrz9B+7ughIw/ZTr9G1KPqXJWm53kGXYBcLdUety4WC3/RIBx
Ko/x+XB2BZSBDoUCydAersmR1I684L4ufHyvWkYEnmyD2F7fXc+XVJxgPOwpotLW
jM+2mo8EdQ5OlCUOv5yB8Cml0KiIWwy91xxInbXnLLThe+duAHAcEvdcBmF/0XEx
wKopmDWtXbuQAcGgh47ACYha0KpX9XX7yRC4BiNm31/HLx/XNea8hL+5VXlvMt+7
XH8kXvrqWG6aDquNAcF6JDIMspg3Lrr/bjD9TZCspVu56fcuAptodfXtgK7ON0zR
vgLA4S025qbXkQnF68x5ZBleiEM1cYryLtK4zvrkM8ne+C6UcaJe9NgpNHfMeKkA
/xlJ5imr3H11GNGWM7Q6+o13aaG/AdTpvtyuMRsltSqIT48YVQ==
-----END CERTIFICATE-----
