Certificate:
    Data:
        Version: 3 (0x2)
        Serial Number:
            17:1d:4c:40:cc:d9:59:7c:f3:06:62:2c:37:74:84:9a:55:ab:f8:cc
        Signature Algorithm: sha256WithRSAEncryption
        Issuer: CN=ca.example.com
        Validity
            Not Before: Aug 27 15:16:30 2024 GMT
            Not After : Sep 26 15:16:30 2024 GMT
        Subject: CN=b.example.com
        Subject Public Key Info:
            Public Key Algorithm: rsaEncryption
                Public-Key: (4096 bit)
                Modulus:
                    00:cc:94:34:6a:fd:82:9d:e9:e3:6c:17:86:94:22:
                    7f:f7:0d:26:0e:fb:01:be:9c:ec:7b:0c:5c:7e:1c:
                    70:3c:d0:b3:b4:23:f0:88:91:af:b4:62:64:f4:b1:
                    b5:c3:62:ad:d2:a1:bb:1b:ce:20:03:32:d7:b2:d7:
                    15:f0:06:90:1c:c0:1a:40:87:f3:b5:a6:ab:05:e3:
                    b5:63:5c:52:0d:f2:13:ae:f0:42:c0:11:dc:d3:1d:
                    b5:2d:06:58:0d:9d:50:f2:c2:61:41:f0:09:33:64:
                    d4:3e:96:3c:7e:6b:14:00:7d:8e:f1:40:bc:ab:76:
                    77:39:0c:03:66:75:bf:b5:ec:b6:99:27:2c:1b:11:
                    0a:2b:e7:2c:82:42:f3:fd:de:f3:bf:92:46:c0:d1:
                    1c:07:f5:30:a1:54:3a:9c:47:67:92:3d:cb:7e:20:
                    7c:5a:6c:e0:db:53:4e:64:69:20:1a:ea:c0:b8:04:
                    a2:b2:e7:04:3b:1e:02:ed:52:99:28:ba:83:b1:4d:
                    3b:8d:a7:83:4d:3e:e6:20:0d:e1:92:a6:0c:12:ae:
                    3e:58:72:b0:8b:fb:08:f4:7f:e2:31:ed:f2:31:c0:
                    9d:b5:d6:e6:96:06:7c:6f:e3:df:7c:5a:8f:47:14:
                    1b:6e:b9:40:57:a0:db:18:1a:9c:f8:61:a2:cd:3a:
                    b4:60:6c:3b:ba:34:79:b1:97:45:02:8d:2b:a3:c3:
                    16:71:d6:f7:55:ac:db:d1:d0:95:ff:15:a6:fe:0f:
                    2d:c5:1e:fe:7b:2f:3a:29:f5:b9:c3:87:45:a8:dc:
                    12:c7:51:e6:78:71:4b:1c:09:7b:79:f6:7e:a8:3d:
                    9e:b8:18:2e:9a:85:b5:de:37:d8:d4:d8:65:14:9c:
                    9d:8d:87:79:58:16:0c:54:c0:cb:36:56:b0:45:70:
                    30:88:90:6f:01:51:74:f1:c7:e3:73:28:15:ca:f0:
                    3d:fe:26:42:76:59:a6:19:cb:48:ae:85:00:11:8b:
                    ed:1a:52:00:15:0e:50:f9:6c:27:19:42:47:7a:ac:
                    85:95:29:81:1c:a2:f9:68:0b:80:b3:43:68:cc:c3:
                    85:f1:53:f2:67:1a:3b:54:ec:5e:91:45:9b:fe:4c:
                    a7:19:fe:3b:58:ed:fd:f5:a3:ca:aa:8e:ea:6d:12:
                    fc:b3:72:7a:78:4b:4c:17:75:1d:5d:00:29:71:d4:
                    f7:a0:07:64:17:ac:13:05:7e:7c:1e:92:78:ce:86:
                    ce:37:ba:1f:ba:10:b7:db:fd:52:45:41:1e:71:c1:
                    19:a9:0a:71:53:ce:26:88:ce:86:70:5d:ca:ed:0b:
                    3e:83:cb:9e:94:4e:b2:7d:e3:26:62:1b:58:6e:23:
                    ca:03:db
                Exponent: 65537 (0x10001)
        X509v3 extensions:
            X509v3 Subject Key Identifier: 
                AF:59:09:FB:A7:3A:95:F1:87:40:D1:59:83:A4:58:3A:15:27:D2:F5
            X509v3 Authority Key Identifier: 
                DD:F0:27:43:74:69:63:A3:BD:55:50:B4:36:C6:06:EE:80:E2:82:D1
    Signature Algorithm: sha256WithRSAEncryption
    Signature Value:
        71:69:ff:6a:48:5d:07:bf:bc:a1:8b:d7:57:9a:24:bb:9d:3f:
        a5:15:d6:6d:8f:a7:73:5e:e2:23:cf:26:24:3b:fd:89:67:43:
        49:5f:22:71:1c:ef:0b:20:4d:b2:d6:0e:19:dd:d1:a4:f5:23:
        d9:02:d3:6e:08:3f:2e:c1:ab:68:e2:8f:c9:34:56:b8:6c:3f:
        7a:0c:93:c9:29:c5:40:dd:3a:f1:51:78:25:6e:55:7a:f2:a8:
        fd:0b:18:8c:1c:fd:e0:4b:b9:90:53:c0:cd:d5:3e:dd:36:1a:
        60:2d:8a:02:fa:39:a3:43:41:fa:4b:b7:67:8f:28:ce:d9:ba:
        86:c6:6e:07:0d:a7:e0:ff:1e:27:02:6c:98:64:04:58:bd:e9:
        d2:29:a0:e9:15:2c:71:7d:0e:83:16:de:20:e5:a1:f0:9d:a1:
        8b:61:72:04:fc:96:25:90:69:cc:da:e8:d1:65:15:b7:64:c1:
        b9:47:94:25:51:33:b8:bd:fa:c7:2f:5c:9b:a6:bd:43:3b:63:
        c1:48:9b:47:6f:c1:e9:ef:2c:1a:42:b9:4f:cf:65:fb:9d:ac:
        7e:f0:4d:39:12:3d:28:50:bf:0a:a4:ed:a7:1e:3f:e8:11:8a:
        a6:68:68:b7:e1:6b:85:12:69:d1:7a:08:43:8e:3f:89:03:14:
        b0:1a:53:0a:96:68:9f:78:fd:b1:56:8b:de:9d:b8:5e:53:0e:
        f1:41:23:a3:34:d9:dc:ca:67:ea:bc:89:56:6c:f2:3d:74:7f:
        2f:7e:12:67:6c:43:eb:be:62:89:35:62:d8:d0:46:dd:f7:ac:
        f2:63:95:09:77:89:6c:18:99:e5:2c:35:60:04:91:14:1b:0f:
        4e:53:c3:0e:e2:59:85:30:b7:f6:e5:7a:0b:0b:da:8d:c1:c0:
        c6:18:ae:be:ba:da:72:e1:ec:b4:38:e6:6d:f9:0e:16:fa:c2:
        59:d6:60:62:8c:40:02:b4:ca:ba:91:4b:38:35:df:3c:61:13:
        dc:cc:ef:65:cc:31:a8:aa:09:e1:7b:f5:a9:31:9a:2d:8a:ef:
        03:aa:34:7e:52:4d:a6:60:f6:4c:31:5c:96:92:f3:3a:f1:23:
        8f:13:de:d7:20:86:b6:21:19:bc:2e:0e:43:0f:98:31:59:80:
        0a:e3:9b:bb:e3:2c:93:36:4b:77:8f:9f:80:5e:ce:d8:26:67:
        44:94:04:60:f2:1b:7d:e5:1f:26:fe:ae:d1:ba:b7:0f:60:ac:
        f0:b9:9c:1f:d4:62:e2:6e:a3:58:f9:ea:6c:62:4e:84:a1:b2:
        6d:4b:a1:4e:dc:de:98:fa:e1:e4:8d:43:57:8a:fa:0c:5f:cb:
        26:ef:02:d2:de:88:15:fe
-----BEGIN CERTIFICATE-----
MIIFATCCAumgAwIBAgIUFx1MQMzZWXzzBmIsN3SEmlWr+MwwDQYJKoZIhvcNAQEL
BQAwGTEXMBUGA1UEAwwOY2EuZXhhbXBsZS5jb20wHhcNMjQwODI3MTUxNjMwWhcN
MjQwOTI2MTUxNjMwWjAYMRYwFAYDVQQDDA1iLmV4YW1wbGUuY29tMIICIjANBgkq
hkiG9w0BAQEFAAOCAg8AMIICCgKCAgEAzJQ0av2CnenjbBeGlCJ/9w0mDvsBvpzs
ewxcfhxwPNCztCPwiJGvtGJk9LG1w2Kt0qG7G84gAzLXstcV8AaQHMAaQIfztaar
BeO1Y1xSDfITrvBCwBHc0x21LQZYDZ1Q8sJhQfAJM2TUPpY8fmsUAH2O8UC8q3Z3
OQwDZnW/tey2mScsGxEKK+csgkLz/d7zv5JGwNEcB/UwoVQ6nEdnkj3LfiB8Wmzg
21NOZGkgGurAuASisucEOx4C7VKZKLqDsU07jaeDTT7mIA3hkqYMEq4+WHKwi/sI
9H/iMe3yMcCdtdbmlgZ8b+PffFqPRxQbbrlAV6DbGBqc+GGizTq0YGw7ujR5sZdF
Ao0ro8MWcdb3Vazb0dCV/xWm/g8txR7+ey86KfW5w4dFqNwSx1HmeHFLHAl7efZ+
qD2euBgumoW13jfY1NhlFJydjYd5WBYMVMDLNlawRXAwiJBvAVF08cfjcygVyvA9
/iZCdlmmGctIroUAEYvtGlIAFQ5Q+WwnGUJHeqyFlSmBHKL5aAuAs0NozMOF8VPy
Zxo7VOxekUWb/kynGf47WO399aPKqo7qbRL8s3J6eEtMF3UdXQApcdT3oAdkF6wT
BX58HpJ4zobON7ofuhC32/1SRUEeccEZqQpxU84miM6GcF3K7Qs+g8uelE6yfeMm
YhtYbiPKA9sCAwEAAaNCMEAwHQYDVR0OBBYEFK9ZCfunOpXxh0DRWYOkWDoVJ9L1
MB8GA1UdIwQYMBaAFN3wJ0N0aWOjvVVQtDbGBu6A4oLRMA0GCSqGSIb3DQEBCwUA
A4ICAQBxaf9qSF0Hv7yhi9dXmiS7nT+lFdZtj6dzXuIjzyYkO/2JZ0NJXyJxHO8L
IE2y1g4Z3dGk9SPZAtNuCD8uwato4o/JNFa4bD96DJPJKcVA3TrxUXglblV68qj9
CxiMHP3gS7mQU8DN1T7dNhpgLYoC+jmjQ0H6S7dnjyjO2bqGxm4HDafg/x4nAmyY
ZARYvenSKaDpFSxxfQ6DFt4g5aHwnaGLYXIE/JYlkGnM2ujRZRW3ZMG5R5QlUTO4
vfrHL1ybpr1DO2PBSJtHb8Hp7ywaQrlPz2X7nax+8E05Ej0oUL8KpO2nHj/oEYqm
aGi34WuFEmnReghDjj+JAxSwGlMKlmifeP2xVovenbheUw7xQSOjNNncymfqvIlW
bPI9dH8vfhJnbEPrvmKJNWLY0Ebd96zyY5UJd4lsGJnlLDVgBJEUGw9OU8MO4lmF
MLf25XoLC9qNwcDGGK6+utpy4ey0OOZt+Q4W+sJZ1mBijEACtMq6kUs4Nd88YRPc
zO9lzDGoqgnhe/WpMZotiu8DqjR+Uk2mYPZMMVyWkvM68SOPE97XIIa2IRm8Lg5D
D5gxWYAK45u74yyTNkt3j5+AXs7YJmdElARg8ht95R8m/q7RurcPYKzwuZwf1GLi
bqNY+epsYk6EobJtS6FO3N6Y+uHkjUNXivoMX8sm7wLS3ogV/g==
-----END CERTIFICATE-----
