Certificate:
    Data:
        Version: 3 (0x2)
        Serial Number:
            65:4c:e0:5b:5c:a9:6c:68:23:98:5f:94:5e:ab:eb:37:ae:06:08:a5
        Signature Algorithm: sha256WithRSAEncryption
        Issuer: CN=ca.example.com
        Validity
            Not Before: Aug 12 04:11:34 2024 GMT
            Not After : Sep 11 04:11:34 2024 GMT
        Subject: CN=b.example.com
        Subject Public Key Info:
            Public Key Algorithm: rsaEncryption
                Public-Key: (4096 bit)
                Modulus:
                    00:cb:b6:d5:06:d2:48:b9:7e:e2:48:b7:39:9d:48:
                    77:4b:ec:f5:8b:64:f3:ac:f9:3a:0c:9b:43:4d:8b:
                    54:77:6e:06:a9:de:24:8d:78:a5:1a:65:4b:d2:14:
                    32:a2:24:f7:08:08:16:84:02:0a:e5:98:6c:42:e3:
                    49:88:0a:87:f2:1e:91:b9:7f:df:2d:7f:a7:68:d6:
                    bf:76:c4:8e:59:4f:a6:75:8a:fd:68:dd:bc:78:29:
                    8f:f6:77:ff:a7:fe:aa:82:dc:3f:8e:ca:4a:56:92:
                    b1:c4:cd:d2:43:93:03:96:e2:07:df:da:36:b0:9c:
                    2e:59:23:fc:f1:73:dd:9e:d6:10:b1:d6:5f:e4:ae:
                    4f:04:13:a2:f3:14:bf:ce:b1:f7:ce:0d:f4:33:96:
                    67:ab:a9:a4:cd:a6:fa:02:d0:90:d9:a7:56:e0:33:
                    e3:c8:dc:db:c7:cf:da:f4:ea:ae:2b:c3:33:44:9f:
                    f4:99:08:18:76:4e:61:16:31:6d:93:66:1f:7e:60:
                    70:36:74:95:ec:94:78:45:67:d7:bd:92:94:c0:10:
                    b3:9a:66:54:8d:63:76:5f:b0:79:47:bb:94:f4:39:
                    ad:ff:4e:a8:81:0b:29:fd:68:d0:5e:3d:16:66:16:
                    34:71:06:94:ee:39:56:a4:0e:74:5d:d2:d1:62:7c:
                    2c:56:55:42:d4:eb:fb:85:aa:2c:31:da:70:36:4a:
                    16:24:2f:81:46:f6:5b:aa:cb:2c:10:4a:3a:9d:2f:
                    53:ae:27:cc:ec:d0:18:64:76:02:a7:4b:09:47:d8:
                    d9:ac:6f:2a:6d:2b:62:5a:cb:16:78:a7:5d:8e:f6:
                    00:c3:a6:27:2b:a9:24:9c:36:c5:55:cb:c4:d2:69:
                    4a:d1:48:04:d0:8e:c1:ec:a5:ec:96:56:7a:e2:05:
                    26:60:ae:3e:60:10:66:12:7b:56:6d:bd:9d:c2:b9:
                    2e:3a:dd:d0:ae:ea:40:92:fa:7f:f6:4e:71:95:e1:
                    fc:79:24:88:1b:ec:a8:95:44:78:51:0e:e4:c0:d5:
                    17:07:bc:87:42:53:5e:0f:d8:78:7f:6b:6c:06:8a:
                    54:e8:43:3c:89:23:fe:b0:f8:3c:d6:38:f5:0e:bd:
                    2c:6a:05:72:85:22:6c:b7:b4:78:6b:3a:73:c6:5c:
                    ba:5a:d7:cc:1d:b0:24:24:32:3f:47:50:8d:05:96:
                    62:d7:de:c8:b0:26:87:99:b2:a6:0e:43:7a:b9:ab:
                    3c:c5:75:ed:a7:35:b0:1c:26:c9:21:32:88:70:88:
                    4f:47:ac:10:8a:fd:15:0c:19:e0:19:92:b0:93:b0:
                    8e:29:bd:ff:b1:ae:ec:bf:2c:79:a9:f8:14:fe:d8:
                    1a:6b:21
                Exponent: 65537 (0x10001)
        X509v3 extensions:
            X509v3 Subject Key Identifier: 
                E9:8C:FE:92:25:71:A8:6E:63:C4:99:51:B6:89:2A:5C:1B:AC:76:C3
            X509v3 Authority Key Identifier: 
                10:BD:A2:69:63:E4:BA:B9:35:0C:F9:08:47:C0:36:F5:30:19:E8:CB
    Signature Algorithm: sha256WithRSAEncryption
    Signature Value:
        5b:b4:24:bc:4a:4e:df:24:dc:76:1d:bd:f3:81:e9:27:73:e4:
        af:ef:20:a6:8e:5e:5e:95:1e:6b:65:61:8a:0c:2f:82:f2:14:
        af:65:b0:9a:68:71:db:aa:b1:de:d6:26:dc:61:15:cd:ca:6e:
        5d:ca:46:e6:9a:2e:a5:c1:87:4a:cd:c2:64:6b:03:57:54:05:
        07:6d:72:c5:c5:30:b0:1b:99:3c:37:b2:8f:2c:63:28:5c:ad:
        8d:4e:dc:40:07:f5:97:c3:0e:43:bc:5e:5b:bb:6e:a3:6b:b6:
        2e:01:ad:6f:af:f3:a0:12:63:49:70:c6:86:0f:2b:4b:a4:a5:
        43:ac:cc:85:dd:b9:41:12:47:4b:a1:68:e7:72:48:2b:3b:4c:
        9e:6b:ca:f7:07:e8:38:7a:7a:72:1b:9b:e6:b2:85:e4:7b:ce:
        11:10:71:f9:59:6c:a5:30:66:51:52:8b:4f:c2:da:a6:f6:ae:
        bc:a2:0c:b0:f2:a0:36:55:5d:8d:7f:c8:bc:89:f3:7e:a2:ed:
        de:2e:fb:16:5f:5c:47:95:f9:38:f5:02:3f:9b:60:22:85:0b:
        f2:3c:dd:cc:48:92:7a:1e:e5:a5:77:f8:8f:6c:cc:45:48:f8:
        6b:bd:0a:f2:56:d6:e2:39:0b:aa:56:1c:3c:d7:d9:6e:62:40:
        70:4b:27:a6:d1:af:52:8f:a2:b9:4a:ea:cb:01:a4:ac:31:fe:
        b1:5e:ca:35:9b:ef:c2:4d:2f:a7:b7:0a:17:bf:87:c1:ad:a1:
        4c:fe:25:c2:51:c5:96:ad:04:fd:68:65:fe:10:39:e1:d6:d7:
        88:85:92:76:f7:37:fb:39:c4:b0:05:2b:20:64:33:5b:6b:e7:
        4a:50:6d:af:cc:75:08:74:c3:14:04:3a:b5:70:4b:a6:52:0d:
        19:3e:9d:16:43:0d:87:12:e4:8b:ee:08:cd:ce:e1:17:01:ef:
        26:e7:30:ea:a4:ee:37:72:20:00:0e:fd:11:82:37:ce:eb:b0:
        d8:11:4c:e0:9a:5b:cb:48:46:d7:7b:56:e9:32:23:96:9c:1c:
        6e:24:97:18:2d:03:37:6b:1a:79:a3:94:a4:75:4a:1c:9e:ee:
        da:21:c0:cf:34:6b:f2:7f:04:d2:a9:a7:cf:53:d0:c4:d1:52:
        85:d0:c1:7d:1e:10:68:1f:61:de:e8:4a:11:ed:49:43:19:0e:
        5c:ac:35:64:f4:e5:bf:21:66:eb:26:a8:b3:c1:a8:c3:5e:1a:
        42:36:c0:2e:5d:94:2f:0e:a0:53:d5:fe:40:64:c9:fd:7a:bf:
        ce:a9:8c:7c:44:0f:88:a2:87:92:fc:2b:ee:07:14:9d:8d:23:
        8b:a6:b9:a2:28:fe:6a:75
-----BEGIN CERTIFICATE-----
MIIFATCCAumgAwIBAgIUZUzgW1ypbGgjmF+UXqvrN64GCKUwDQYJKoZIhvcNAQEL
BQAwGTEXMBUGA1UEAwwOY2EuZXhhbXBsZS5jb20wHhcNMjQwODEyMDQxMTM0WhcN
MjQwOTExMDQxMTM0WjAYMRYwFAYDVQQDDA1iLmV4YW1wbGUuY29tMIICIjANBgkq
hkiG9w0BAQEFAAOCAg8AMIICCgKCAgEAy7bVBtJIuX7iSLc5nUh3S+z1i2TzrPk6
DJtDTYtUd24Gqd4kjXilGmVL0hQyoiT3CAgWhAIK5ZhsQuNJiAqH8h6RuX/fLX+n
aNa/dsSOWU+mdYr9aN28eCmP9nf/p/6qgtw/jspKVpKxxM3SQ5MDluIH39o2sJwu
WSP88XPdntYQsdZf5K5PBBOi8xS/zrH3zg30M5Znq6mkzab6AtCQ2adW4DPjyNzb
x8/a9OquK8MzRJ/0mQgYdk5hFjFtk2YffmBwNnSV7JR4RWfXvZKUwBCzmmZUjWN2
X7B5R7uU9Dmt/06ogQsp/WjQXj0WZhY0cQaU7jlWpA50XdLRYnwsVlVC1Ov7haos
MdpwNkoWJC+BRvZbqsssEEo6nS9TrifM7NAYZHYCp0sJR9jZrG8qbStiWssWeKdd
jvYAw6YnK6kknDbFVcvE0mlK0UgE0I7B7KXsllZ64gUmYK4+YBBmEntWbb2dwrku
Ot3QrupAkvp/9k5xleH8eSSIG+yolUR4UQ7kwNUXB7yHQlNeD9h4f2tsBopU6EM8
iSP+sPg81jj1Dr0sagVyhSJst7R4azpzxly6WtfMHbAkJDI/R1CNBZZi197IsCaH
mbKmDkN6uas8xXXtpzWwHCbJITKIcIhPR6wQiv0VDBngGZKwk7COKb3/sa7svyx5
qfgU/tgaayECAwEAAaNCMEAwHQYDVR0OBBYEFOmM/pIlcahuY8SZUbaJKlwbrHbD
MB8GA1UdIwQYMBaAFBC9omlj5Lq5NQz5CEfANvUwGejLMA0GCSqGSIb3DQEBCwUA
A4ICAQBbtCS8Sk7fJNx2Hb3zgeknc+Sv7yCmjl5elR5rZWGKDC+C8hSvZbCaaHHb
qrHe1ibcYRXNym5dykbmmi6lwYdKzcJkawNXVAUHbXLFxTCwG5k8N7KPLGMoXK2N
TtxAB/WXww5DvF5bu26ja7YuAa1vr/OgEmNJcMaGDytLpKVDrMyF3blBEkdLoWjn
ckgrO0yea8r3B+g4enpyG5vmsoXke84REHH5WWylMGZRUotPwtqm9q68ogyw8qA2
VV2Nf8i8ifN+ou3eLvsWX1xHlfk49QI/m2AihQvyPN3MSJJ6HuWld/iPbMxFSPhr
vQryVtbiOQuqVhw819luYkBwSyem0a9Sj6K5SurLAaSsMf6xXso1m+/CTS+ntwoX
v4fBraFM/iXCUcWWrQT9aGX+EDnh1teIhZJ29zf7OcSwBSsgZDNba+dKUG2vzHUI
dMMUBDq1cEumUg0ZPp0WQw2HEuSL7gjNzuEXAe8m5zDqpO43ciAADv0RgjfO67DY
EUzgmlvLSEbXe1bpMiOWnBxuJJcYLQM3axp5o5SkdUocnu7aIcDPNGvyfwTSqafP
U9DE0VKF0MF9HhBoH2He6EoR7UlDGQ5crDVk9OW/IWbrJqizwajDXhpCNsAuXZQv
DqBT1f5AZMn9er/OqYx8RA+IooeS/CvuBxSdjSOLprmiKP5qdQ==
-----END CERTIFICATE-----
