Certificate:
    Data:
        Version: 3 (0x2)
        Serial Number:
            60:76:2c:ee:40:b0:2d:f6:4b:42:fe:4c:91:92:1c:41:74:0d:e4:ee
        Signature Algorithm: sha256WithRSAEncryption
        Issuer: CN=ca.example.com
        Validity
            Not Before: Sep 19 23:56:52 2024 GMT
            Not After : Oct 19 23:56:52 2024 GMT
        Subject: CN=b.example.com
        Subject Public Key Info:
            Public Key Algorithm: rsaEncryption
                Public-Key: (4096 bit)
                Modulus:
                    00:af:8d:97:c5:b1:9d:f3:2d:33:f1:a6:5a:8e:c8:
                    54:80:0f:7b:53:a7:b6:70:00:46:22:86:40:29:30:
                    0c:c1:67:4a:8c:22:88:83:6a:09:5b:f0:13:d6:ae:
                    01:29:32:56:f5:40:62:3c:f8:fd:f3:79:5d:6e:59:
                    c2:50:67:19:b0:d7:91:7d:d2:fb:c5:e6:38:91:93:
                    78:ad:aa:c4:0e:80:08:5a:20:39:e7:9e:d1:ec:7b:
                    63:10:0a:cc:7b:42:c1:2a:01:49:10:bf:0a:db:32:
                    f6:3a:8a:9c:4e:c4:9e:0d:f1:47:50:38:ca:79:d3:
                    01:cb:98:95:f6:72:c5:3c:cf:f9:03:3c:0e:b9:f6:
                    da:f6:08:d8:04:6d:d9:ce:2c:14:68:13:42:3a:15:
                    3c:ba:26:59:2a:ef:c8:66:ea:e4:48:05:27:05:63:
                    be:4e:68:21:a6:d3:6e:56:49:fe:72:0c:a7:4b:b6:
                    b4:4c:19:e8:33:3e:1c:c3:0b:4b:ca:c8:18:0f:22:
                    f3:17:56:79:69:48:ef:31:d5:33:c1:c4:07:ce:62:
                    b6:5a:c9:14:f5:00:71:64:10:78:a9:55:6b:ad:3a:
                    f3:f2:e8:e3:9f:a5:ce:91:4f:20:14:f0:1b:37:e8:
                    2d:76:64:48:c5:14:da:59:11:cc:94:d0:21:5b:73:
                    27:35:ac:bc:4f:4d:4a:f0:8e:8c:0d:6b:79:7f:e1:
                    cb:70:b3:c4:88:a3:d6:3f:54:cd:59:54:c4:b8:84:
                    fd:fb:c1:a1:ee:80:b9:74:96:06:46:9b:e6:4c:b1:
                    61:0e:b8:59:36:74:6a:5c:3a:d4:23:fc:e8:f5:a9:
                    bd:7a:78:02:52:ff:2b:a9:0c:6c:80:d8:61:3a:5b:
                    20:7d:60:48:e7:28:45:d0:38:a7:8b:7a:c8:fa:07:
                    da:50:22:2f:54:a5:07:b8:b0:d7:b2:91:07:49:4a:
                    d9:ff:53:04:72:f0:32:a8:63:57:a2:3d:75:3a:86:
                    b0:fd:46:19:3e:46:e4:6e:04:b4:1c:3a:fb:30:0c:
                    72:54:cc:43:f9:30:43:78:fb:70:7e:2a:e3:92:4a:
                    d7:cc:9d:d0:3d:1d:1b:75:2f:06:19:52:db:58:83:
                    89:c1:df:d1:cd:95:f3:7c:67:ae:f7:ef:f1:c1:25:
                    ba:53:2f:83:da:7b:7e:0e:ca:f9:7d:94:ff:9a:df:
                    18:72:2e:dd:22:91:3e:4e:96:8f:b6:d4:2f:62:8e:
                    be:7f:ed:42:3f:64:c6:8a:19:b9:a8:80:53:21:cd:
                    53:ae:0a:a1:51:d1:69:9a:72:1f:3d:08:4c:ac:25:
                    31:ec:65:2d:b6:72:5c:b1:88:23:be:e3:37:11:27:
                    b7:17:63
                Exponent: 65537 (0x10001)
        X509v3 extensions:
            X509v3 Subject Key Identifier: 
                F1:01:93:5C:56:74:AC:FF:5F:22:82:B7:0B:09:3B:A5:AF:4C:6C:42
            X509v3 Authority Key Identifier: 
                57:FC:D7:82:F1:EB:C3:74:D9:55:4B:85:E5:6F:53:21:B3:50:D0:5D
    Signature Algorithm: sha256WithRSAEncryption
    Signature Value:
        96:66:90:2e:9f:f9:69:3a:f7:65:e8:91:51:db:48:91:5b:9c:
        76:83:0f:0d:08:cd:cb:c9:2c:18:f6:ec:88:b4:97:17:2c:55:
        ac:31:cd:7a:33:83:cf:bb:92:39:d8:97:f9:4d:ed:70:99:ca:
        0c:11:ec:e7:6c:fe:73:ab:20:9f:2b:89:0f:91:56:08:0d:05:
        e4:9d:f7:ad:bb:ef:20:fc:8a:5f:6b:0a:14:91:3c:c4:f8:bb:
        f8:62:af:49:2f:f6:7f:dc:fe:6c:cd:31:68:96:fd:67:33:62:
        15:89:2e:cb:5b:c5:b7:a0:37:af:6b:f3:e3:c9:a3:98:fa:79:
        42:2e:5a:65:b1:13:a1:bd:ca:d7:11:2d:78:68:3c:a6:8d:ae:
        35:8c:95:89:dc:f9:c4:8b:09:49:da:29:52:a4:66:16:bd:83:
        f5:d9:95:51:9e:97:c5:f1:b8:87:3b:57:e7:e7:51:a3:eb:74:
        50:0c:f9:42:c7:1c:52:e2:46:c2:c3:52:59:3c:d2:9e:84:a6:
        77:04:5d:2e:88:e3:ab:e2:09:91:13:dc:c0:ee:8f:a7:ad:c3:
        79:e0:23:53:56:6f:6a:91:fb:e8:60:62:8e:c0:28:77:f4:ad:
        f2:60:45:8f:05:77:5b:ec:b1:be:77:ca:4e:16:e9:2c:4a:c7:
        cd:6c:54:bb:33:0e:ee:1b:f4:a8:25:d7:94:ff:6b:ff:4e:16:
        f2:71:0f:01:35:12:33:64:be:22:9c:c1:86:4e:77:78:19:1a:
        c2:8d:2d:1b:f4:85:b6:e1:7b:90:ca:b0:8e:49:c5:2e:07:9a:
        34:16:09:03:b6:25:52:3f:21:4c:8d:38:bd:63:92:fb:ba:cf:
        a5:30:18:70:b2:26:d7:bb:eb:34:e5:33:91:2d:0b:6c:3f:ce:
        6b:5e:0e:6e:69:a6:ac:73:01:b9:c2:c6:0f:bf:6b:8a:71:65:
        d1:92:46:ef:1e:99:11:55:d6:cc:22:2a:a8:5c:20:41:8f:c4:
        01:ae:93:bc:a5:92:a8:cb:96:4f:39:1b:b3:f2:49:9d:3e:61:
        9d:52:ff:a7:94:06:89:df:62:77:cc:8c:97:a5:85:70:7c:af:
        cf:d7:a9:d7:ac:49:39:1c:e5:de:72:5f:5e:e2:38:27:10:ba:
        6f:b8:02:c9:eb:35:8d:94:07:1f:ab:f8:30:12:07:d2:48:70:
        c5:07:22:ff:e1:51:e1:60:55:83:76:3b:37:bc:92:f3:0b:22:
        bb:fc:8f:4e:a7:1a:c9:c9:9a:75:c4:f4:16:d8:84:1b:54:47:
        1c:ff:9b:8c:a6:2f:aa:f1:57:bc:ac:76:d3:48:bf:a7:16:18:
        9e:72:2c:ab:7e:e5:ac:6a
-----BEGIN CERTIFICATE-----
MIIFATCCAumgAwIBAgIUYHYs7kCwLfZLQv5MkZIcQXQN5O4wDQYJKoZIhvcNAQEL
BQAwGTEXMBUGA1UEAwwOY2EuZXhhbXBsZS5jb20wHhcNMjQwOTE5MjM1NjUyWhcN
MjQxMDE5MjM1NjUyWjAYMRYwFAYDVQQDDA1iLmV4YW1wbGUuY29tMIICIjANBgkq
hkiG9w0BAQEFAAOCAg8AMIICCgKCAgEAr42XxbGd8y0z8aZajshUgA97U6e2cABG
IoZAKTAMwWdKjCKIg2oJW/AT1q4BKTJW9UBiPPj983ldblnCUGcZsNeRfdL7xeY4
kZN4rarEDoAIWiA5557R7HtjEArMe0LBKgFJEL8K2zL2OoqcTsSeDfFHUDjKedMB
y5iV9nLFPM/5AzwOufba9gjYBG3ZziwUaBNCOhU8uiZZKu/IZurkSAUnBWO+Tmgh
ptNuVkn+cgynS7a0TBnoMz4cwwtLysgYDyLzF1Z5aUjvMdUzwcQHzmK2WskU9QBx
ZBB4qVVrrTrz8ujjn6XOkU8gFPAbN+gtdmRIxRTaWRHMlNAhW3MnNay8T01K8I6M
DWt5f+HLcLPEiKPWP1TNWVTEuIT9+8Gh7oC5dJYGRpvmTLFhDrhZNnRqXDrUI/zo
9am9engCUv8rqQxsgNhhOlsgfWBI5yhF0Dini3rI+gfaUCIvVKUHuLDXspEHSUrZ
/1MEcvAyqGNXoj11Ooaw/UYZPkbkbgS0HDr7MAxyVMxD+TBDePtwfirjkkrXzJ3Q
PR0bdS8GGVLbWIOJwd/RzZXzfGeu9+/xwSW6Uy+D2nt+Dsr5fZT/mt8Yci7dIpE+
TpaPttQvYo6+f+1CP2TGihm5qIBTIc1TrgqhUdFpmnIfPQhMrCUx7GUttnJcsYgj
vuM3ESe3F2MCAwEAAaNCMEAwHQYDVR0OBBYEFPEBk1xWdKz/XyKCtwsJO6WvTGxC
MB8GA1UdIwQYMBaAFFf814Lx68N02VVLheVvUyGzUNBdMA0GCSqGSIb3DQEBCwUA
A4ICAQCWZpAun/lpOvdl6JFR20iRW5x2gw8NCM3LySwY9uyItJcXLFWsMc16M4PP
u5I52Jf5Te1wmcoMEeznbP5zqyCfK4kPkVYIDQXknfetu+8g/IpfawoUkTzE+Lv4
Yq9JL/Z/3P5szTFolv1nM2IViS7LW8W3oDeva/PjyaOY+nlCLlplsROhvcrXES14
aDymja41jJWJ3PnEiwlJ2ilSpGYWvYP12ZVRnpfF8biHO1fn51Gj63RQDPlCxxxS
4kbCw1JZPNKehKZ3BF0uiOOr4gmRE9zA7o+nrcN54CNTVm9qkfvoYGKOwCh39K3y
YEWPBXdb7LG+d8pOFuksSsfNbFS7Mw7uG/SoJdeU/2v/ThbycQ8BNRIzZL4inMGG
Tnd4GRrCjS0b9IW24XuQyrCOScUuB5o0FgkDtiVSPyFMjTi9Y5L7us+lMBhwsibX
u+s05TORLQtsP85rXg5uaaascwG5wsYPv2uKcWXRkkbvHpkRVdbMIiqoXCBBj8QB
rpO8pZKoy5ZPORuz8kmdPmGdUv+nlAaJ32J3zIyXpYVwfK/P16nXrEk5HOXecl9e
4jgnELpvuALJ6zWNlAcfq/gwEgfSSHDFByL/4VHhYFWDdjs3vJLzCyK7/I9OpxrJ
yZp1xPQW2IQbVEcc/5uMpi+q8Ve8rHbTSL+nFhieciyrfuWsag==
-----END CERTIFICATE-----
