Certificate:
    Data:
        Version: 3 (0x2)
        Serial Number:
            41:00:88:68:50:15:56:fb:04:d6:9c:9e:e8:bf:0d:49:6b:0b:98:cb
        Signature Algorithm: sha256WithRSAEncryption
        Issuer: CN=ca.example.com
        Validity
            Not Before: Sep 11 01:09:59 2024 GMT
            Not After : Oct 11 01:09:59 2024 GMT
        Subject: CN=b.example.com
        Subject Public Key Info:
            Public Key Algorithm: rsaEncryption
                Public-Key: (4096 bit)
                Modulus:
                    00:c8:50:cf:4e:0f:cc:98:54:dd:d1:f4:f0:4a:40:
                    5f:86:02:38:46:89:c2:0f:74:66:2f:c4:0f:cf:e1:
                    04:c9:f5:2b:5a:df:43:44:a6:6d:4d:29:c6:1a:1e:
                    15:20:28:a7:f4:ce:ad:db:bd:f7:64:4b:cd:1c:a6:
                    0e:e0:c8:9d:0a:65:34:f7:2c:6d:51:6b:4f:0f:36:
                    bc:39:7e:c5:c3:8a:ae:21:8c:a5:ac:48:ad:bb:5b:
                    14:61:16:de:a2:88:a9:7b:ad:73:f1:f6:f3:c9:6c:
                    a4:b4:f5:df:d6:9e:78:45:a9:d9:f8:f1:de:00:bc:
                    03:95:55:7c:05:91:3f:91:69:9e:ae:2a:94:db:1b:
                    c6:d4:c6:d1:32:d8:47:e2:3b:e4:89:5a:d6:23:0c:
                    e3:e3:4f:11:76:d4:80:e3:75:13:cf:d9:41:14:76:
                    93:fd:f4:e5:61:14:49:a7:61:2e:f2:e3:71:6c:2f:
                    7f:dd:19:f5:ab:f7:2c:ee:0b:ab:e7:cc:02:db:83:
                    72:6d:ca:a6:68:ce:e0:9f:fe:b1:c4:75:cf:18:1b:
                    5f:48:64:e6:78:47:8e:7e:aa:84:f6:6b:9f:bb:a5:
                    a6:d1:af:79:d7:3c:32:e7:88:b0:a0:27:ef:ca:03:
                    1d:d6:40:fb:27:97:1b:d7:81:7d:d7:98:07:e2:7c:
                    b4:d5:40:57:b6:6a:c2:ef:21:5d:80:ff:e0:38:31:
                    77:bf:c9:56:b3:72:55:7e:42:4b:23:76:b0:8b:98:
                    d9:f1:1b:2a:3e:dc:d1:9c:5d:61:88:f9:37:6c:1b:
                    02:ac:82:0e:d4:9d:17:84:88:8a:44:75:d9:e9:56:
                    0f:e1:3e:83:52:0e:dc:67:96:c1:68:49:7e:94:72:
                    c6:e7:6b:bd:b5:a0:b1:11:a0:bb:fc:e2:ef:2c:24:
                    ec:7d:82:4e:32:4a:93:16:15:b2:93:29:00:b8:f6:
                    3a:84:5f:87:85:6f:2a:cc:5b:97:91:a5:e1:00:d2:
                    2e:70:69:8d:e1:e8:75:ef:7b:c1:8c:e0:47:28:68:
                    9e:ee:d0:26:ac:1f:a1:58:e1:d8:0c:45:a1:1e:fc:
                    8e:4e:15:7b:5f:e4:13:3c:ff:17:e1:fc:45:dc:32:
                    04:58:1b:8a:86:9e:f6:4b:3a:ec:3a:32:a7:d0:1c:
                    03:cc:fd:4e:a3:7d:13:7b:b1:99:be:84:91:d1:e9:
                    5d:93:d6:17:70:67:8a:8e:e8:89:99:7d:5c:2e:b1:
                    de:20:43:d1:b8:74:58:50:95:95:63:03:89:57:6d:
                    7e:8b:4f:db:d8:9b:22:98:4e:3d:b9:a5:0f:7d:63:
                    1a:a2:27:13:da:be:51:96:8d:47:7e:9a:9d:37:73:
                    df:83:47
                Exponent: 65537 (0x10001)
        X509v3 extensions:
            X509v3 Subject Key Identifier: 
                A2:41:B3:5C:D4:BB:47:CF:5F:C0:F8:DD:05:04:2D:46:0C:06:F4:9C
            X509v3 Authority Key Identifier: 
                62:3E:47:D0:DF:C2:B6:46:04:C9:58:06:B4:22:0E:D0:A1:C1:1A:40
    Signature Algorithm: sha256WithRSAEncryption
    Signature Value:
        61:cd:80:b4:bc:af:47:b0:d1:29:22:9f:8f:2f:ca:86:63:98:
        f6:23:8e:05:6d:85:f1:08:22:fa:93:f3:ea:17:d6:b9:14:db:
        b2:fb:03:95:b2:8d:80:1b:b2:11:05:00:18:1c:6e:fd:51:a9:
        be:a4:9e:2f:57:fa:20:37:d2:62:55:6b:df:92:5b:22:98:f7:
        f8:61:a7:d5:9b:7d:a3:16:72:64:52:a4:c0:69:62:33:49:c7:
        48:5e:18:0e:e0:46:60:a0:7a:67:79:26:82:08:d0:fc:3b:1d:
        66:e6:e7:da:0d:b7:ee:f2:ab:fd:3d:b4:d1:1f:a4:7f:db:7c:
        62:d7:df:3e:08:bd:03:17:ea:f2:fd:3b:eb:cc:47:a4:11:a6:
        8d:53:d6:ae:b7:dc:31:bb:da:6b:c6:14:ef:bf:3b:6e:5c:f2:
        06:75:7d:11:f1:b1:e9:78:8b:21:09:34:ad:88:d5:6a:f3:ca:
        58:71:2d:71:f2:57:2f:35:0e:53:5f:d5:79:9b:ff:a9:f1:db:
        67:24:89:8b:7a:95:0c:a3:3b:0c:a3:21:23:ac:d7:df:4d:44:
        76:00:2a:8d:f3:07:b1:af:80:7d:5f:16:8a:3b:b2:5c:1c:5c:
        d6:99:8b:1d:6b:a2:91:1c:9c:be:d1:8c:d1:dd:ce:41:a8:74:
        9c:15:7b:19:1d:af:2f:d6:9a:de:23:5c:f2:1f:34:aa:e8:8d:
        ec:93:1c:56:a9:1b:e0:b1:dd:59:9c:e0:1d:29:3b:e6:1b:9e:
        bb:0d:ee:fc:46:4c:df:3e:36:92:87:fa:e4:d6:fa:0e:c1:60:
        6b:9d:1c:f8:d7:fd:31:7e:65:d3:07:68:ef:46:04:55:90:74:
        64:33:33:dc:e6:6b:f0:24:8c:a6:6c:7a:15:2e:8a:3a:4d:e5:
        c4:6a:a3:88:ef:f6:9b:d5:51:e9:fd:20:d5:ff:60:0b:0c:9e:
        b3:32:e7:d1:db:ae:40:c4:4b:02:6d:d8:a7:df:38:b3:27:75:
        a6:44:86:ea:5a:46:0b:68:21:96:39:5c:69:13:aa:4c:86:2a:
        94:82:47:8e:ae:e4:7a:42:ad:85:87:7a:88:6e:8d:6c:9f:a9:
        97:b2:31:24:4d:5f:dd:30:40:60:81:f9:bf:78:41:2a:d2:30:
        db:77:71:79:90:c0:2b:e5:8f:08:4f:18:47:cf:5c:6a:fc:80:
        1e:df:fa:b1:9c:b1:f9:55:14:39:a4:ce:68:eb:e5:86:a4:8d:
        97:da:e3:19:05:0c:35:37:79:1c:e0:1b:8d:39:28:08:47:a1:
        80:4a:7f:3c:d7:63:21:0d:01:b6:4e:ea:46:bf:08:10:b4:4a:
        2c:66:93:c9:1f:49:20:68
-----BEGIN CERTIFICATE-----
MIIFATCCAumgAwIBAgIUQQCIaFAVVvsE1pye6L8NSWsLmMswDQYJKoZIhvcNAQEL
BQAwGTEXMBUGA1UEAwwOY2EuZXhhbXBsZS5jb20wHhcNMjQwOTExMDEwOTU5WhcN
MjQxMDExMDEwOTU5WjAYMRYwFAYDVQQDDA1iLmV4YW1wbGUuY29tMIICIjANBgkq
hkiG9w0BAQEFAAOCAg8AMIICCgKCAgEAyFDPTg/MmFTd0fTwSkBfhgI4RonCD3Rm
L8QPz+EEyfUrWt9DRKZtTSnGGh4VICin9M6t2733ZEvNHKYO4MidCmU09yxtUWtP
Dza8OX7Fw4quIYylrEitu1sUYRbeooipe61z8fbzyWyktPXf1p54RanZ+PHeALwD
lVV8BZE/kWmeriqU2xvG1MbRMthH4jvkiVrWIwzj408RdtSA43UTz9lBFHaT/fTl
YRRJp2Eu8uNxbC9/3Rn1q/cs7gur58wC24NybcqmaM7gn/6xxHXPGBtfSGTmeEeO
fqqE9mufu6Wm0a951zwy54iwoCfvygMd1kD7J5cb14F915gH4ny01UBXtmrC7yFd
gP/gODF3v8lWs3JVfkJLI3awi5jZ8RsqPtzRnF1hiPk3bBsCrIIO1J0XhIiKRHXZ
6VYP4T6DUg7cZ5bBaEl+lHLG52u9taCxEaC7/OLvLCTsfYJOMkqTFhWykykAuPY6
hF+HhW8qzFuXkaXhANIucGmN4eh173vBjOBHKGie7tAmrB+hWOHYDEWhHvyOThV7
X+QTPP8X4fxF3DIEWBuKhp72SzrsOjKn0BwDzP1Oo30Te7GZvoSR0eldk9YXcGeK
juiJmX1cLrHeIEPRuHRYUJWVYwOJV21+i0/b2JsimE49uaUPfWMaoicT2r5Rlo1H
fpqdN3Pfg0cCAwEAAaNCMEAwHQYDVR0OBBYEFKJBs1zUu0fPX8D43QUELUYMBvSc
MB8GA1UdIwQYMBaAFGI+R9DfwrZGBMlYBrQiDtChwRpAMA0GCSqGSIb3DQEBCwUA
A4ICAQBhzYC0vK9HsNEpIp+PL8qGY5j2I44FbYXxCCL6k/PqF9a5FNuy+wOVso2A
G7IRBQAYHG79Uam+pJ4vV/ogN9JiVWvfklsimPf4YafVm32jFnJkUqTAaWIzScdI
XhgO4EZgoHpneSaCCND8Ox1m5ufaDbfu8qv9PbTRH6R/23xi198+CL0DF+ry/Tvr
zEekEaaNU9aut9wxu9prxhTvvztuXPIGdX0R8bHpeIshCTStiNVq88pYcS1x8lcv
NQ5TX9V5m/+p8dtnJImLepUMozsMoyEjrNffTUR2ACqN8wexr4B9XxaKO7JcHFzW
mYsda6KRHJy+0YzR3c5BqHScFXsZHa8v1preI1zyHzSq6I3skxxWqRvgsd1ZnOAd
KTvmG567De78RkzfPjaSh/rk1voOwWBrnRz41/0xfmXTB2jvRgRVkHRkMzPc5mvw
JIymbHoVLoo6TeXEaqOI7/ab1VHp/SDV/2ALDJ6zMufR265AxEsCbdin3zizJ3Wm
RIbqWkYLaCGWOVxpE6pMhiqUgkeOruR6Qq2Fh3qIbo1sn6mXsjEkTV/dMEBggfm/
eEEq0jDbd3F5kMAr5Y8ITxhHz1xq/IAe3/qxnLH5VRQ5pM5o6+WGpI2X2uMZBQw1
N3kc4BuNOSgIR6GASn8812MhDQG2TupGvwgQtEosZpPJH0kgaA==
-----END CERTIFICATE-----
