Certificate:
    Data:
        Version: 3 (0x2)
        Serial Number:
            4b:04:88:00:4c:bb:a4:7a:a0:41:6a:08:41:25:40:db:6e:2c:a8:52
        Signature Algorithm: sha256WithRSAEncryption
        Issuer: CN=ca.example.com
        Validity
            Not Before: Aug 12 00:43:38 2024 GMT
            Not After : Sep 11 00:43:38 2024 GMT
        Subject: CN=b.example.com
        Subject Public Key Info:
            Public Key Algorithm: rsaEncryption
                Public-Key: (4096 bit)
                Modulus:
                    00:cb:21:cb:ba:7a:7f:97:71:36:75:93:b5:cc:7f:
                    47:46:7c:28:14:aa:b3:06:55:13:3b:55:24:67:1e:
                    35:f8:25:be:7f:e9:c5:29:f1:1e:02:16:25:4f:8d:
                    da:ba:d6:4b:ef:e2:19:09:2e:30:c2:0b:14:02:9d:
                    26:68:2b:bc:a9:bf:09:72:06:3d:5c:69:9e:a5:14:
                    96:36:c5:f4:c9:c5:50:ef:33:24:cf:82:99:24:ab:
                    3d:5e:90:a5:40:10:bf:b0:07:54:b0:10:4f:73:30:
                    ca:07:e7:3d:0b:ac:14:7d:e8:1e:5e:91:44:31:f5:
                    ca:28:fc:a0:46:cb:b0:56:48:d4:1e:e9:64:fe:f0:
                    9a:4a:75:b2:4c:78:15:f6:35:45:7f:66:5d:fd:16:
                    38:a8:f2:2b:f5:f3:4f:52:eb:76:3c:0b:2d:05:01:
                    0c:05:d0:a6:05:57:f9:aa:21:e3:a1:04:fb:93:0b:
                    f5:c0:b7:79:05:82:6d:36:78:df:07:e2:4f:2b:a2:
                    92:a3:e9:36:32:eb:a6:5c:af:2d:45:6c:44:e6:c8:
                    0c:fc:2a:61:89:37:ef:db:48:53:1b:7f:87:e8:a3:
                    e3:e8:ab:38:bd:e7:cf:57:1c:2c:ba:43:33:7b:f7:
                    8c:f1:1d:0a:e8:c3:2a:01:5a:2b:b2:5b:a7:4d:12:
                    b2:dc:59:2c:79:c3:ab:7c:6c:12:9c:15:e2:17:14:
                    aa:6e:21:be:de:ca:46:62:d8:52:6f:aa:5e:c4:fe:
                    4e:26:67:ff:68:55:44:0b:1b:98:4f:eb:d6:78:58:
                    05:8f:26:2a:02:14:40:4d:27:3b:f1:4b:59:1f:15:
                    c8:8a:e8:d6:2f:e0:04:4d:be:25:de:53:b6:bd:e2:
                    79:93:4a:05:a8:db:43:6b:ca:b7:9d:5e:88:f7:0a:
                    92:a1:88:67:c3:14:a8:f2:05:1c:c3:08:99:53:2b:
                    e2:0e:5c:6c:b6:c5:d0:17:14:6a:3d:c4:15:d0:70:
                    48:70:82:73:8e:45:11:92:f5:b3:9e:a1:5f:9a:14:
                    c3:86:38:c5:e2:73:2f:28:26:7f:4f:9d:d0:61:59:
                    02:7e:62:1b:6d:4a:e6:8a:a1:69:e5:15:d7:f0:bc:
                    c6:6a:f2:0c:4f:e2:8e:df:5f:33:13:42:2d:f0:b6:
                    bb:c9:e2:35:4d:ef:e1:fc:16:f0:ff:cf:9b:d1:0b:
                    3f:29:4a:65:c5:26:15:56:7e:5d:ca:40:01:93:08:
                    5a:0c:37:a2:19:08:90:df:f2:84:75:85:d2:61:7e:
                    93:69:d5:2b:92:09:f8:4b:f3:a4:8c:1d:e8:e6:ed:
                    90:eb:c7:c5:e5:f4:cb:ba:a1:d4:49:e4:22:af:3e:
                    13:53:fb
                Exponent: 65537 (0x10001)
        X509v3 extensions:
            X509v3 Subject Key Identifier: 
                7F:77:BE:EF:51:CB:2C:B0:1C:A9:CA:1D:87:EC:1F:9B:AC:E9:9D:4B
            X509v3 Authority Key Identifier: 
                BB:28:AE:E0:ED:48:3F:69:8D:F4:41:05:7C:2A:F2:98:3F:39:FB:C0
    Signature Algorithm: sha256WithRSAEncryption
    Signature Value:
        81:67:2f:b3:3e:a1:c1:01:6b:05:2e:60:fc:08:f4:bf:7c:21:
        01:8c:25:ca:a6:e2:b2:ca:1d:d4:05:63:c5:68:6d:2a:f5:51:
        29:1c:a1:bc:d0:4d:6b:23:83:37:b2:e6:8c:68:9d:47:0a:b9:
        78:21:50:43:64:ac:c1:a3:b7:a5:25:98:c7:93:4a:d2:6b:72:
        e6:74:6c:da:ba:52:0b:29:be:33:8d:1a:f4:42:1b:cb:a3:5a:
        90:95:13:e2:c9:e4:1e:b6:10:34:a6:b5:39:96:a0:a6:e4:e8:
        83:c4:0b:5b:ac:bf:20:4b:15:b0:cf:af:d8:94:58:48:c5:8e:
        5e:4d:7e:dc:a5:3b:6e:f9:8a:e9:81:f4:47:49:39:a0:24:60:
        fa:66:58:83:f1:d0:23:65:5d:c6:eb:6d:19:2e:34:9f:c1:18:
        50:c9:81:6e:75:4b:b3:ed:4c:72:c1:c9:1e:16:d3:15:40:1b:
        93:0a:33:03:da:97:5d:5f:ca:72:9d:f7:40:82:41:4a:d7:e1:
        0f:0c:ea:e4:be:79:64:90:65:fd:db:b6:b0:78:66:8f:3a:e5:
        ec:28:29:25:7a:85:e8:76:7a:bb:0e:7e:3d:a7:ed:2d:18:16:
        4b:e4:b9:04:7b:26:08:d2:87:11:4c:4d:3d:86:84:82:9f:4a:
        28:4e:e9:9a:31:d5:55:b7:ac:7c:03:b7:9d:f2:4b:44:30:0f:
        7d:25:de:af:f9:bc:54:fc:06:64:16:b5:76:d8:01:ff:6c:44:
        5f:63:2a:7c:54:22:29:05:8b:1a:7f:09:3c:e7:8d:45:b7:e0:
        fe:85:f4:db:c7:b3:27:b2:4f:88:e5:f2:e1:39:46:51:96:bf:
        7c:fb:2f:67:d1:b6:9c:c5:b2:9c:fd:a7:ab:65:4c:13:d4:61:
        72:e6:72:8a:c4:82:68:b0:b2:5e:d7:91:79:35:27:93:2a:bf:
        08:b9:de:83:38:4c:c2:f2:31:64:7f:fd:39:86:72:4b:fa:8e:
        36:37:32:07:91:84:7a:51:0b:7e:8c:71:47:1b:3c:00:b1:98:
        b2:77:e8:03:ed:bf:c8:99:74:fa:68:e8:51:16:f9:fa:58:c9:
        95:3c:5a:46:95:e4:d5:4e:90:15:19:d9:c4:39:89:b8:b7:29:
        29:7c:f6:8b:46:73:b3:11:01:2e:dc:6b:6c:7d:f6:5d:18:e8:
        e4:c5:50:80:c7:da:18:70:ec:91:8b:6a:cf:8d:2b:fa:fb:da:
        7d:a0:59:d1:56:83:f5:7d:2c:2b:db:b9:3d:2f:7b:d2:5b:29:
        8a:84:ff:4f:5b:ea:57:f9:a3:52:c6:9b:32:82:26:c2:bd:9d:
        ad:9b:b2:f5:78:1f:1d:06
-----BEGIN CERTIFICATE-----
MIIFATCCAumgAwIBAgIUSwSIAEy7pHqgQWoIQSVA224sqFIwDQYJKoZIhvcNAQEL
BQAwGTEXMBUGA1UEAwwOY2EuZXhhbXBsZS5jb20wHhcNMjQwODEyMDA0MzM4WhcN
MjQwOTExMDA0MzM4WjAYMRYwFAYDVQQDDA1iLmV4YW1wbGUuY29tMIICIjANBgkq
hkiG9w0BAQEFAAOCAg8AMIICCgKCAgEAyyHLunp/l3E2dZO1zH9HRnwoFKqzBlUT
O1UkZx41+CW+f+nFKfEeAhYlT43autZL7+IZCS4wwgsUAp0maCu8qb8JcgY9XGme
pRSWNsX0ycVQ7zMkz4KZJKs9XpClQBC/sAdUsBBPczDKB+c9C6wUfegeXpFEMfXK
KPygRsuwVkjUHulk/vCaSnWyTHgV9jVFf2Zd/RY4qPIr9fNPUut2PAstBQEMBdCm
BVf5qiHjoQT7kwv1wLd5BYJtNnjfB+JPK6KSo+k2MuumXK8tRWxE5sgM/CphiTfv
20hTG3+H6KPj6Ks4vefPVxwsukMze/eM8R0K6MMqAVorslunTRKy3FksecOrfGwS
nBXiFxSqbiG+3spGYthSb6pexP5OJmf/aFVECxuYT+vWeFgFjyYqAhRATSc78UtZ
HxXIiujWL+AETb4l3lO2veJ5k0oFqNtDa8q3nV6I9wqSoYhnwxSo8gUcwwiZUyvi
DlxstsXQFxRqPcQV0HBIcIJzjkURkvWznqFfmhTDhjjF4nMvKCZ/T53QYVkCfmIb
bUrmiqFp5RXX8LzGavIMT+KO318zE0It8La7yeI1Te/h/Bbw/8+b0Qs/KUplxSYV
Vn5dykABkwhaDDeiGQiQ3/KEdYXSYX6TadUrkgn4S/OkjB3o5u2Q68fF5fTLuqHU
SeQirz4TU/sCAwEAAaNCMEAwHQYDVR0OBBYEFH93vu9RyyywHKnKHYfsH5us6Z1L
MB8GA1UdIwQYMBaAFLsoruDtSD9pjfRBBXwq8pg/OfvAMA0GCSqGSIb3DQEBCwUA
A4ICAQCBZy+zPqHBAWsFLmD8CPS/fCEBjCXKpuKyyh3UBWPFaG0q9VEpHKG80E1r
I4M3suaMaJ1HCrl4IVBDZKzBo7elJZjHk0rSa3LmdGzaulILKb4zjRr0QhvLo1qQ
lRPiyeQethA0prU5lqCm5OiDxAtbrL8gSxWwz6/YlFhIxY5eTX7cpTtu+YrpgfRH
STmgJGD6ZliD8dAjZV3G620ZLjSfwRhQyYFudUuz7UxywckeFtMVQBuTCjMD2pdd
X8pynfdAgkFK1+EPDOrkvnlkkGX927aweGaPOuXsKCkleoXodnq7Dn49p+0tGBZL
5LkEeyYI0ocRTE09hoSCn0ooTumaMdVVt6x8A7ed8ktEMA99Jd6v+bxU/AZkFrV2
2AH/bERfYyp8VCIpBYsafwk8541Ft+D+hfTbx7Mnsk+I5fLhOUZRlr98+y9n0bac
xbKc/aerZUwT1GFy5nKKxIJosLJe15F5NSeTKr8Iud6DOEzC8jFkf/05hnJL+o42
NzIHkYR6UQt+jHFHGzwAsZiyd+gD7b/ImXT6aOhRFvn6WMmVPFpGleTVTpAVGdnE
OYm4tykpfPaLRnOzEQEu3GtsffZdGOjkxVCAx9oYcOyRi2rPjSv6+9p9oFnRVoP1
fSwr27k9L3vSWymKhP9PW+pX+aNSxpsygibCvZ2tm7L1eB8dBg==
-----END CERTIFICATE-----
