Certificate:
    Data:
        Version: 3 (0x2)
        Serial Number:
            36:ed:f6:87:3a:a1:08:a7:47:01:35:f3:6e:8c:88:11
        Signature Algorithm: sha1WithRSAEncryption
        Issuer: CN=anonymous
        Validity
            Not Before: Jul 19 22:00:01 2016 GMT
            Not After : Jun 25 22:00:01 2116 GMT
        Subject: CN=anonymous
        Subject Public Key Info:
            Public Key Algorithm: rsaEncryption
                Public-Key: (2048 bit)
                Modulus:
                    00:bc:b6:b0:42:4c:18:d7:5c:0e:0e:81:23:b9:9d:
                    14:ce:53:94:fc:e8:e6:c2:81:ce:f5:27:6a:02:b9:
                    48:a0:49:d7:5c:4c:3c:de:6d:a0:f4:c1:cc:80:81:
                    fd:74:d6:10:1d:c0:c2:90:f4:3b:eb:2b:49:c6:be:
                    6e:c5:00:c9:e7:52:e5:5e:01:36:9f:2a:0b:21:2e:
                    e5:13:51:47:ca:8f:1e:17:89:fe:0b:a1:2d:3f:7a:
                    fe:01:88:e2:39:6b:53:25:21:16:7b:4f:90:b2:8e:
                    0f:1b:be:ec:a6:a7:33:2e:8a:74:3f:8f:54:4f:2c:
                    85:74:54:65:36:1e:e0:f1:ba:e3:f7:3b:cf:7c:1a:
                    a6:77:f8:5e:80:97:90:94:73:09:8e:5f:dc:c2:b3:
                    dd:49:74:df:d9:15:9d:39:49:72:29:1d:0b:b2:3d:
                    23:d4:5f:95:72:f0:5d:59:78:9f:15:1b:79:e4:6d:
                    e9:9f:16:55:64:b8:a4:2a:be:d7:8b:f6:69:53:ef:
                    3f:79:ad:56:60:18:1d:e7:51:92:f4:b4:e0:7a:f1:
                    e3:1c:7d:f0:3d:cd:49:2c:3a:67:93:8b:93:3a:8e:
                    70:5c:35:e5:f6:26:1f:63:4b:76:18:77:e2:04:96:
                    26:66:9a:08:10:1b:b9:0f:b5:af:1f:f8:da:9e:cc:
                    be:fb
                Exponent: 65537 (0x10001)
        X509v3 extensions:
            X509v3 Extended Key Usage: 
                Microsoft Encrypted File System
            X509v3 Subject Alternative Name: 
                0&.$.
+.....7.......anonymous@windows-x.
            X509v3 Basic Constraints: 
                CA:FALSE
    Signature Algorithm: sha1WithRSAEncryption
    Signature Value:
        b8:7e:e2:a9:8d:3f:30:ba:33:c0:56:f7:f4:82:d8:00:90:c7:
        13:e1:d3:a1:90:50:6c:74:0f:e1:8b:62:7a:7a:d4:4a:d9:3a:
        d2:b2:29:d1:61:fa:e6:56:a6:ee:6f:c9:86:00:1c:22:d7:3f:
        b5:5d:4b:f2:61:27:2e:bb:ef:29:c0:3e:35:e2:0b:f2:c0:ce:
        b4:cd:bc:6b:3b:e0:70:e8:b4:3f:7a:e8:78:b2:cb:44:2b:a2:
        ca:45:1a:2a:65:1c:64:40:e6:f5:c0:d8:28:8a:49:7f:b4:1e:
        b5:64:37:ba:e1:93:93:d8:91:ce:91:fb:f7:1d:a2:c7:7e:41:
        9f:25:90:46:bd:c8:35:9c:e6:5f:ff:bd:61:1b:cf:05:72:98:
        97:ff:3d:17:fc:35:39:16:00:ae:92:3d:5e:d8:df:b8:f5:9a:
        19:09:8c:e1:fd:56:44:71:36:b7:7a:91:c8:a1:45:ae:2e:d0:
        89:97:69:71:2c:79:ce:fb:11:1d:2c:a3:7d:43:28:2a:cf:9b:
        ea:ea:64:f8:fd:35:94:88:60:fd:ec:30:62:78:06:69:bf:9f:
        66:11:75:e6:94:cd:37:68:71:f0:f7:4d:19:ca:c6:ce:b9:0d:
        28:29:89:2a:b5:82:6b:6c:5c:ce:e3:00:fb:3f:12:0a:e0:b5:
        b5:84:ca:98
No Trusted Uses.
No Rejected Uses.
Key Id: 01:00:00:00
-----BEGIN CERTIFICATE-----
MIIDCTCCAfGgAwIBAgIQNu32hzqhCKdHATXzboyIETANBgkqhkiG9w0BAQUFADAU
MRIwEAYDVQQDEwlhbm9ueW1vdXMwIBcNMTYwNzE5MjIwMDAxWhgPMjExNjA2MjUy
MjAwMDFaMBQxEjAQBgNVBAMTCWFub255bW91czCCASIwDQYJKoZIhvcNAQEBBQAD
ggEPADCCAQoCggEBALy2sEJMGNdcDg6BI7mdFM5TlPzo5sKBzvUnagK5SKBJ11xM
PN5toPTBzICB/XTWEB3AwpD0O+srSca+bsUAyedS5V4BNp8qCyEu5RNRR8qPHheJ
/guhLT96/gGI4jlrUyUhFntPkLKODxu+7KanMy6KdD+PVE8shXRUZTYe4PG64/c7
z3wapnf4XoCXkJRzCY5f3MKz3Ul039kVnTlJcikdC7I9I9RflXLwXVl4nxUbeeRt
6Z8WVWS4pCq+14v2aVPvP3mtVmAYHedRkvS04Hrx4xx98D3NSSw6Z5OLkzqOcFw1
5fYmH2NLdhh34gSWJmaaCBAbuQ+1rx/42p7MvvsCAwEAAaNVMFMwFQYDVR0lBA4w
DAYKKwYBBAGCNwoDBDAvBgNVHREEKDAmoCQGCisGAQQBgjcUAgOgFgwUYW5vbnlt
b3VzQHdpbmRvd3MteAAwCQYDVR0TBAIwADANBgkqhkiG9w0BAQUFAAOCAQEAuH7i
qY0/MLozwFb39ILYAJDHE+HToZBQbHQP4YtienrUStk60rIp0WH65lam7m/JhgAc
Itc/tV1L8mEnLrvvKcA+NeIL8sDOtM28azvgcOi0P3roeLLLRCuiykUaKmUcZEDm
9cDYKIpJf7QetWQ3uuGTk9iRzpH79x2ix35BnyWQRr3INZzmX/+9YRvPBXKYl/89
F/w1ORYArpI9XtjfuPWaGQmM4f1WRHE2t3qRyKFFri7QiZdpcSx5zvsRHSyjfUMo
Ks+b6upk+P01lIhg/ewwYngGab+fZhF15pTNN2hx8PdNGcrGzrkNKCmJKrWCa2xc
zuMA+z8SCuC1tYTKmA==
-----END CERTIFICATE-----
