Certificate:
    Data:
        Version: 3 (0x2)
        Serial Number:
            25:60:fa:c9:ce:18:c7:8f:c1:df:20:3c:6a:4a:69:ed:bd:52:69:ec
        Signature Algorithm: sha1WithRSAEncryption
        Issuer: C=AU, O=Dodgy Brothers, CN=Dodgy CA
        Validity
            Not Before: Aug 25 05:08:03 2024 GMT
            Not After : Aug 25 05:08:03 2027 GMT
        Subject: C=AU, O=Dodgy Brothers, CN=Dodgy CA
        Subject Public Key Info:
            Public Key Algorithm: rsaEncryption
                Public-Key: (2048 bit)
                Modulus:
                    00:96:9d:a4:3d:00:4b:1c:5f:c6:cb:dd:8f:d2:31:
                    b2:88:15:cc:c4:86:2c:5c:e2:69:8b:84:f4:a7:a3:
                    53:df:91:e3:bf:51:89:fb:f0:7c:10:0d:3b:ad:ac:
                    35:62:75:f5:7f:ff:f4:6e:54:8f:05:a6:92:23:b3:
                    9f:59:39:d0:39:18:b0:10:40:de:62:73:8a:4e:b0:
                    8e:df:dc:e7:c9:41:22:54:84:80:08:29:bc:35:3c:
                    86:df:30:de:dd:b4:24:ff:7e:62:a5:c0:7a:e8:2a:
                    16:3f:d6:97:da:c5:42:db:2f:69:64:91:cb:08:d7:
                    56:5a:79:7f:1b:84:41:e9:4d:9d:77:09:10:a8:6c:
                    29:33:44:c6:c0:54:65:e6:e8:e3:f2:75:05:6a:64:
                    95:6c:c0:f4:fd:25:61:6e:48:36:f0:c0:03:07:05:
                    d6:7c:e5:11:fd:18:e8:4a:2d:d3:72:0c:37:28:36:
                    31:31:38:85:e8:71:8d:d8:02:49:c8:bc:19:89:c5:
                    8a:b1:3f:a2:35:ea:aa:90:1c:64:68:7b:af:67:6a:
                    5a:06:54:0f:50:e1:f9:b4:f6:be:3a:d4:ce:3f:1e:
                    4c:7d:c6:77:32:3e:a2:58:ed:db:dd:74:d8:92:14:
                    6a:a8:f7:cb:34:58:91:a8:7c:14:b1:7d:08:b3:4d:
                    b1:47
                Exponent: 65537 (0x10001)
        X509v3 extensions:
            X509v3 Subject Key Identifier: 
                B4:11:33:F1:D7:E2:5E:F7:53:9E:20:22:10:4F:86:06:BF:1F:C9:5E
            X509v3 Authority Key Identifier: 
                keyid:B4:11:33:F1:D7:E2:5E:F7:53:9E:20:22:10:4F:86:06:BF:1F:C9:5E
                DirName:/C=AU/O=Dodgy Brothers/CN=Dodgy CA
                serial:25:60:FA:C9:CE:18:C7:8F:C1:DF:20:3C:6A:4A:69:ED:BD:52:69:EC
            X509v3 Basic Constraints: critical
                CA:TRUE, pathlen:1
            X509v3 Key Usage: 
                Certificate Sign, CRL Sign
            X509v3 Issuer Alternative Name: 
                <EMPTY>

    Signature Algorithm: sha1WithRSAEncryption
    Signature Value:
        1a:56:70:e8:f9:58:0d:22:50:eb:ef:95:d2:a2:25:88:75:63:
        50:98:cd:4d:f6:cb:d0:31:b9:2d:15:55:56:e2:f4:58:05:e8:
        ef:a1:ee:1f:29:51:0e:ea:81:f7:62:62:98:e4:34:96:31:c3:
        f8:75:90:07:08:2b:89:7f:14:fc:c8:83:90:53:de:57:e9:d6:
        35:ad:d7:49:b3:7b:4a:74:74:7b:99:ed:a0:40:19:1d:f0:b3:
        eb:f4:04:a9:f9:ce:77:c4:55:ae:7a:02:dd:97:df:8b:cc:7c:
        7f:51:3c:93:e8:21:b7:b5:41:93:da:9f:32:d7:63:00:d2:96:
        dd:df:cf:11:3f:bf:87:f5:37:6d:9f:5f:4a:3b:9b:2a:73:63:
        31:af:21:85:b4:82:46:50:53:a8:87:41:a9:01:e2:37:da:0c:
        95:8d:1b:62:b8:02:de:89:82:0c:20:90:ca:eb:a7:37:14:ef:
        b9:6a:8d:a1:72:48:ff:a9:42:76:7f:47:13:83:af:2c:c6:75:
        4f:bb:fa:12:78:f2:cc:86:bb:c8:d9:bc:9a:da:10:d0:17:71:
        26:d6:c2:45:81:03:1d:65:73:ee:73:bb:5d:00:d7:3f:7a:e2:
        e0:82:0c:61:90:3a:4f:f2:f4:90:66:8b:3c:73:1d:81:a4:71:
        12:60:98:54
-----BEGIN CERTIFICATE-----
MIIDxTCCAq2gAwIBAgIUJWD6yc4Yx4/B3yA8akpp7b1SaewwDQYJKoZIhvcNAQEF
BQAwOTELMAkGA1UEBhMCQVUxFzAVBgNVBAoMDkRvZGd5IEJyb3RoZXJzMREwDwYD
VQQDDAhEb2RneSBDQTAeFw0yNDA4MjUwNTA4MDNaFw0yNzA4MjUwNTA4MDNaMDkx
CzAJBgNVBAYTAkFVMRcwFQYDVQQKDA5Eb2RneSBCcm90aGVyczERMA8GA1UEAwwI
RG9kZ3kgQ0EwggEiMA0GCSqGSIb3DQEBAQUAA4IBDwAwggEKAoIBAQCWnaQ9AEsc
X8bL3Y/SMbKIFczEhixc4mmLhPSno1PfkeO/UYn78HwQDTutrDVidfV///RuVI8F
ppIjs59ZOdA5GLAQQN5ic4pOsI7f3OfJQSJUhIAIKbw1PIbfMN7dtCT/fmKlwHro
KhY/1pfaxULbL2lkkcsI11ZaeX8bhEHpTZ13CRCobCkzRMbAVGXm6OPydQVqZJVs
wPT9JWFuSDbwwAMHBdZ85RH9GOhKLdNyDDcoNjExOIXocY3YAknIvBmJxYqxP6I1
6qqQHGRoe69naloGVA9Q4fm09r461M4/Hkx9xncyPqJY7dvddNiSFGqo98s0WJGo
fBSxfQizTbFHAgMBAAGjgcQwgcEwHQYDVR0OBBYEFLQRM/HX4l73U54gIhBPhga/
H8leMHQGA1UdIwRtMGuAFLQRM/HX4l73U54gIhBPhga/H8leoT2kOzA5MQswCQYD
VQQGEwJBVTEXMBUGA1UECgwORG9kZ3kgQnJvdGhlcnMxETAPBgNVBAMMCERvZGd5
IENBghQlYPrJzhjHj8HfIDxqSmntvVJp7DASBgNVHRMBAf8ECDAGAQH/AgEBMAsG
A1UdDwQEAwIBBjAJBgNVHRIEAjAAMA0GCSqGSIb3DQEBBQUAA4IBAQAaVnDo+VgN
IlDr75XSoiWIdWNQmM1N9svQMbktFVVW4vRYBejvoe4fKVEO6oH3YmKY5DSWMcP4
dZAHCCuJfxT8yIOQU95X6dY1rddJs3tKdHR7me2gQBkd8LPr9ASp+c53xFWuegLd
l9+LzHx/UTyT6CG3tUGT2p8y12MA0pbd388RP7+H9Tdtn19KO5sqc2MxryGFtIJG
UFOoh0GpAeI32gyVjRtiuALeiYIMIJDK66c3FO+5ao2hckj/qUJ2f0cTg68sxnVP
u/oSePLMhrvI2bya2hDQF3Em1sJFgQMdZXPuc7tdANc/euLgggxhkDpP8vSQZos8
cx2BpHESYJhU
-----END CERTIFICATE-----
