Certificate:
    Data:
        Version: 3 (0x2)
        Serial Number:
            2f:2e:0b:52:f2:92:75:01:c1:12:bd:c8:4a:d2:8a:dc:e8:86:7a:d8
        Signature Algorithm: sha256WithRSAEncryption
        Issuer: C=AU, O=Dodgy Brothers, CN=Dodgy CA
        Validity
            Not Before: Aug 25 05:08:03 2024 GMT
            Not After : Aug 25 05:08:03 2025 GMT
        Subject: C=AU, O=Dodgy Brothers, CN=Brother 1, CN=Brother 2
        Subject Public Key Info:
            Public Key Algorithm: rsaEncryption
                Public-Key: (2048 bit)
                Modulus:
                    00:a8:ff:89:58:61:85:ae:de:db:2c:0f:d5:73:fb:
                    e2:b7:a8:1b:7a:75:60:2b:d4:7d:3c:73:76:b5:ae:
                    de:93:2f:7f:24:90:6d:c9:1c:f4:8a:38:cd:9f:a2:
                    80:16:56:cb:b4:2c:bb:93:e5:17:1f:ff:0d:c6:43:
                    fe:31:34:f8:28:d8:75:e9:a3:bb:88:82:ef:a3:72:
                    e2:53:62:05:45:4d:e0:31:97:ef:aa:9d:10:d2:58:
                    0d:9e:06:9e:32:bb:1b:08:56:5d:65:0f:3f:66:8e:
                    c2:36:a0:11:ff:c0:59:35:fd:49:1c:dd:1c:42:33:
                    06:78:ae:04:38:23:e5:e7:75:67:d3:94:ad:5a:a9:
                    40:1f:ac:59:10:f5:0c:c1:64:ad:4a:c4:c6:35:53:
                    b3:96:6a:82:1b:15:8b:d1:99:ab:e4:9e:6f:94:aa:
                    d2:96:e5:57:fb:8c:91:64:8a:3c:24:16:c6:d2:19:
                    be:82:60:13:3b:62:b0:ed:3e:1d:b3:ca:f9:6b:df:
                    31:b9:7a:9e:4b:47:68:a7:29:c7:3f:4a:e2:22:27:
                    b4:ef:90:63:d7:ef:d0:72:49:3e:5b:ad:b9:1b:d4:
                    2b:6f:86:68:dd:d5:73:12:b8:43:c9:dc:41:0f:a2:
                    a3:46:4f:8b:67:88:84:0f:61:fe:79:34:1f:4a:89:
                    1f:b7
                Exponent: 65537 (0x10001)
        X509v3 extensions:
            X509v3 Basic Constraints: 
                CA:FALSE
            X509v3 Subject Key Identifier: 
                E7:9B:E2:2A:AD:8A:6C:3A:CB:76:51:E5:8E:07:98:22:97:E1:73:A2
            X509v3 Authority Key Identifier: 
                B4:11:33:F1:D7:E2:5E:F7:53:9E:20:22:10:4F:86:06:BF:1F:C9:5E
    Signature Algorithm: sha256WithRSAEncryption
    Signature Value:
        92:9a:23:d3:ca:20:d6:22:29:24:73:57:12:41:2c:9b:3c:a3:
        c2:bc:44:b6:f7:29:b6:7a:ed:2d:45:15:4c:08:ad:18:89:b3:
        7e:84:6f:63:e4:cb:be:82:02:78:15:42:5b:d2:72:f0:7b:14:
        34:6e:f5:a9:04:f1:e6:34:80:16:8b:22:0b:40:d3:01:33:81:
        c6:f6:fc:af:d9:1b:08:78:32:71:99:2a:5c:4b:b2:51:31:d8:
        9f:e8:6a:6d:72:21:91:81:31:39:a3:2a:26:43:4c:47:9d:3e:
        db:7d:5b:b0:04:f1:5f:d2:c3:16:85:f1:1a:64:d5:b9:6f:04:
        88:ac:82:34:1b:94:b6:8f:f6:ab:e8:e9:cb:a3:64:6c:ca:25:
        e7:69:57:38:c6:2d:1c:a3:ae:7d:a5:94:3d:cc:a4:ac:f5:4f:
        8e:ea:5d:db:ec:d2:d8:32:6f:55:91:ee:19:eb:9c:fa:a6:5d:
        56:04:d9:26:9f:dd:61:95:cf:77:b6:17:4b:8e:52:a7:3a:a2:
        b7:c1:17:72:75:5a:d2:bf:f8:ce:32:08:a0:58:a1:5d:d6:40:
        47:35:db:53:aa:4b:0b:c5:e3:72:fe:07:c1:6d:d2:35:7e:00:
        b1:5e:36:d0:54:5c:1f:1d:eb:be:43:17:07:73:98:d9:f0:05:
        d0:00:14:b9
-----BEGIN CERTIFICATE-----
MIIDYjCCAkqgAwIBAgIULy4LUvKSdQHBEr3IStKK3OiGetgwDQYJKoZIhvcNAQEL
BQAwOTELMAkGA1UEBhMCQVUxFzAVBgNVBAoMDkRvZGd5IEJyb3RoZXJzMREwDwYD
VQQDDAhEb2RneSBDQTAeFw0yNDA4MjUwNTA4MDNaFw0yNTA4MjUwNTA4MDNaME4x
CzAJBgNVBAYTAkFVMRcwFQYDVQQKDA5Eb2RneSBCcm90aGVyczESMBAGA1UEAwwJ
QnJvdGhlciAxMRIwEAYDVQQDDAlCcm90aGVyIDIwggEiMA0GCSqGSIb3DQEBAQUA
A4IBDwAwggEKAoIBAQCo/4lYYYWu3tssD9Vz++K3qBt6dWAr1H08c3a1rt6TL38k
kG3JHPSKOM2fooAWVsu0LLuT5Rcf/w3GQ/4xNPgo2HXpo7uIgu+jcuJTYgVFTeAx
l++qnRDSWA2eBp4yuxsIVl1lDz9mjsI2oBH/wFk1/Ukc3RxCMwZ4rgQ4I+XndWfT
lK1aqUAfrFkQ9QzBZK1KxMY1U7OWaoIbFYvRmavknm+UqtKW5Vf7jJFkijwkFsbS
Gb6CYBM7YrDtPh2zyvlr3zG5ep5LR2inKcc/SuIiJ7TvkGPX79ByST5brbkb1Ctv
hmjd1XMSuEPJ3EEPoqNGT4tniIQPYf55NB9KiR+3AgMBAAGjTTBLMAkGA1UdEwQC
MAAwHQYDVR0OBBYEFOeb4iqtimw6y3ZR5Y4HmCKX4XOiMB8GA1UdIwQYMBaAFLQR
M/HX4l73U54gIhBPhga/H8leMA0GCSqGSIb3DQEBCwUAA4IBAQCSmiPTyiDWIikk
c1cSQSybPKPCvES29ym2eu0tRRVMCK0YibN+hG9j5Mu+ggJ4FUJb0nLwexQ0bvWp
BPHmNIAWiyILQNMBM4HG9vyv2RsIeDJxmSpcS7JRMdif6GptciGRgTE5oyomQ0xH
nT7bfVuwBPFf0sMWhfEaZNW5bwSIrII0G5S2j/ar6OnLo2RsyiXnaVc4xi0co659
pZQ9zKSs9U+O6l3b7NLYMm9Vke4Z65z6pl1WBNkmn91hlc93thdLjlKnOqK3wRdy
dVrSv/jOMgigWKFd1kBHNdtTqksLxeNy/gfBbdI1fgCxXjbQVFwfHeu+QxcHc5jZ
8AXQABS5
-----END CERTIFICATE-----
