Certificate:
    Data:
        Version: 3 (0x2)
        Serial Number:
            2f:2e:0b:52:f2:92:75:01:c1:12:bd:c8:4a:d2:8a:dc:e8:86:7a:df
        Signature Algorithm: sha1WithRSAEncryption
        Issuer: C=AU, O=Dodgy Brothers, CN=Dodgy CA
        Validity
            Not Before: Aug 25 05:08:04 2024 GMT
            Not After : Aug 25 05:08:04 2025 GMT
        Subject: C=AU, O=Dodgy Brothers, CN=Brother 1, CN=nextupdate_invalid
        Subject Public Key Info:
            Public Key Algorithm: rsaEncryption
                Public-Key: (2048 bit)
                Modulus:
                    00:be:95:86:fa:71:4c:6a:ea:51:98:50:4b:99:a1:
                    2c:66:15:f3:60:f3:e1:ff:69:fb:ce:48:01:1d:fe:
                    e1:2c:38:b0:e3:bd:8f:4b:48:a7:7e:3a:c6:73:e3:
                    ab:bf:e1:da:6e:96:f5:fe:c3:e4:b4:a8:ad:bc:56:
                    34:d4:96:25:74:27:c3:10:db:35:10:25:1c:8e:4b:
                    81:9b:fb:42:04:7c:6f:3d:e2:38:6c:0e:e4:2e:8e:
                    2a:18:6d:30:cd:67:2a:23:6b:37:cf:05:9f:cc:b7:
                    59:58:7f:ba:c4:0a:3f:8c:a4:ad:cb:98:9c:c0:f2:
                    8f:69:67:0f:c1:4e:33:cf:fc:85:5e:bb:5e:cf:93:
                    b0:cf:d9:f4:52:79:87:b1:f8:4d:15:68:65:d5:b7:
                    19:08:63:7f:5e:b1:34:ad:05:8f:5a:f0:e4:e1:8f:
                    25:f2:5c:5c:61:95:b0:56:2d:31:2b:08:65:79:e5:
                    b1:3b:9d:3e:b9:52:4b:ac:5d:c4:58:66:85:8d:81:
                    b3:04:28:f4:3f:2f:ac:92:01:62:d5:fd:8e:0b:da:
                    02:0c:7a:c7:6e:09:1c:ac:1c:b2:4c:d7:54:b8:26:
                    33:b2:5f:14:f3:b1:f9:3d:62:4d:40:99:6b:b6:e7:
                    89:58:97:d6:d4:4d:ea:4b:68:52:f3:3c:a8:b1:35:
                    88:db
                Exponent: 65537 (0x10001)
        X509v3 extensions:
            X509v3 Subject Key Identifier: 
                A1:DF:33:C3:CF:3E:53:41:A7:68:44:CC:AA:19:E1:84:C9:0D:BC:C6
            X509v3 Authority Key Identifier: 
                keyid:B4:11:33:F1:D7:E2:5E:F7:53:9E:20:22:10:4F:86:06:BF:1F:C9:5E
                DirName:/C=AU/O=Dodgy Brothers/CN=Dodgy CA
                serial:25:60:FA:C9:CE:18:C7:8F:C1:DF:20:3C:6A:4A:69:ED:BD:52:69:EC
            X509v3 Basic Constraints: critical
                CA:TRUE, pathlen:1
            X509v3 Key Usage: 
                Certificate Sign, CRL Sign
            X509v3 Issuer Alternative Name: 
                <EMPTY>

    Signature Algorithm: sha1WithRSAEncryption
    Signature Value:
        71:e5:0a:d4:97:40:43:95:f3:99:f9:39:3e:08:0e:1b:da:1c:
        3d:db:da:8b:c5:04:9f:42:48:7d:56:cd:0c:ab:4b:46:81:4a:
        42:01:ed:90:ce:b8:e8:58:4f:c9:6b:55:69:88:ce:60:be:27:
        b6:d1:8d:fc:29:26:27:fc:6a:bf:6e:98:06:8f:52:42:47:df:
        38:43:7a:b0:cd:14:55:de:a7:67:ec:b9:cd:91:a8:ca:8f:72:
        d0:3a:4a:d8:45:69:50:35:67:b4:c4:1e:d2:da:65:79:5c:89:
        39:1e:70:33:fd:bb:9c:52:52:d7:5c:e0:f3:72:10:a8:25:43:
        45:25:5c:93:8e:bc:45:b1:a7:ca:4e:ca:db:90:d1:42:0f:87:
        39:d2:0c:e6:e9:50:a9:ef:ef:5d:48:e2:8e:07:21:39:c3:0a:
        aa:45:5a:7f:e8:5b:a0:bc:3b:f0:9d:33:d1:0c:3f:31:97:8b:
        e8:90:df:bc:8d:0b:be:9e:18:f5:26:6e:f8:93:7c:1b:d2:ec:
        4c:f3:74:d0:1d:8a:fa:f8:8d:7b:b3:ae:d4:c5:8c:22:b8:61:
        b0:7e:50:91:62:93:85:75:ed:6b:e4:96:c1:d8:95:f2:b5:4a:
        3f:7b:b9:a2:4f:82:1c:51:f0:df:23:47:bc:8c:06:b9:89:75:
        c1:ae:2c:75
-----BEGIN CERTIFICATE-----
MIID4zCCAsugAwIBAgIULy4LUvKSdQHBEr3IStKK3OiGet8wDQYJKoZIhvcNAQEF
BQAwOTELMAkGA1UEBhMCQVUxFzAVBgNVBAoMDkRvZGd5IEJyb3RoZXJzMREwDwYD
VQQDDAhEb2RneSBDQTAeFw0yNDA4MjUwNTA4MDRaFw0yNTA4MjUwNTA4MDRaMFcx
CzAJBgNVBAYTAkFVMRcwFQYDVQQKDA5Eb2RneSBCcm90aGVyczESMBAGA1UEAwwJ
QnJvdGhlciAxMRswGQYDVQQDDBJuZXh0dXBkYXRlX2ludmFsaWQwggEiMA0GCSqG
SIb3DQEBAQUAA4IBDwAwggEKAoIBAQC+lYb6cUxq6lGYUEuZoSxmFfNg8+H/afvO
SAEd/uEsOLDjvY9LSKd+OsZz46u/4dpulvX+w+S0qK28VjTUliV0J8MQ2zUQJRyO
S4Gb+0IEfG894jhsDuQujioYbTDNZyojazfPBZ/Mt1lYf7rECj+MpK3LmJzA8o9p
Zw/BTjPP/IVeu17Pk7DP2fRSeYex+E0VaGXVtxkIY39esTStBY9a8OThjyXyXFxh
lbBWLTErCGV55bE7nT65UkusXcRYZoWNgbMEKPQ/L6ySAWLV/Y4L2gIMesduCRys
HLJM11S4JjOyXxTzsfk9Yk1AmWu254lYl9bUTepLaFLzPKixNYjbAgMBAAGjgcQw
gcEwHQYDVR0OBBYEFKHfM8PPPlNBp2hEzKoZ4YTJDbzGMHQGA1UdIwRtMGuAFLQR
M/HX4l73U54gIhBPhga/H8leoT2kOzA5MQswCQYDVQQGEwJBVTEXMBUGA1UECgwO
RG9kZ3kgQnJvdGhlcnMxETAPBgNVBAMMCERvZGd5IENBghQlYPrJzhjHj8HfIDxq
SmntvVJp7DASBgNVHRMBAf8ECDAGAQH/AgEBMAsGA1UdDwQEAwIBBjAJBgNVHRIE
AjAAMA0GCSqGSIb3DQEBBQUAA4IBAQBx5QrUl0BDlfOZ+Tk+CA4b2hw929qLxQSf
Qkh9Vs0Mq0tGgUpCAe2QzrjoWE/Ja1VpiM5gvie20Y38KSYn/Gq/bpgGj1JCR984
Q3qwzRRV3qdn7LnNkajKj3LQOkrYRWlQNWe0xB7S2mV5XIk5HnAz/bucUlLXXODz
chCoJUNFJVyTjrxFsafKTsrbkNFCD4c50gzm6VCp7+9dSOKOByE5wwqqRVp/6Fug
vDvwnTPRDD8xl4vokN+8jQu+nhj1Jm74k3wb0uxM83TQHYr6+I17s67UxYwiuGGw
flCRYpOFde1r5JbB2JXytUo/e7miT4IcUfDfI0e8jAa5iXXBrix1
-----END CERTIFICATE-----
