Certificate:
    Data:
        Version: 3 (0x2)
        Serial Number:
            2f:2e:0b:52:f2:92:75:01:c1:12:bd:c8:4a:d2:8a:dc:e8:86:7a:de
        Signature Algorithm: sha1WithRSAEncryption
        Issuer: C=AU, O=Dodgy Brothers, CN=Dodgy CA
        Validity
            Not Before: Aug 25 05:08:04 2024 GMT
            Not After : Aug 25 05:08:04 2025 GMT
        Subject: C=AU, O=Dodgy Brothers, CN=Brother 1, CN=lastupdate_generalizedtime
        Subject Public Key Info:
            Public Key Algorithm: rsaEncryption
                Public-Key: (2048 bit)
                Modulus:
                    00:be:95:86:fa:71:4c:6a:ea:51:98:50:4b:99:a1:
                    2c:66:15:f3:60:f3:e1:ff:69:fb:ce:48:01:1d:fe:
                    e1:2c:38:b0:e3:bd:8f:4b:48:a7:7e:3a:c6:73:e3:
                    ab:bf:e1:da:6e:96:f5:fe:c3:e4:b4:a8:ad:bc:56:
                    34:d4:96:25:74:27:c3:10:db:35:10:25:1c:8e:4b:
                    81:9b:fb:42:04:7c:6f:3d:e2:38:6c:0e:e4:2e:8e:
                    2a:18:6d:30:cd:67:2a:23:6b:37:cf:05:9f:cc:b7:
                    59:58:7f:ba:c4:0a:3f:8c:a4:ad:cb:98:9c:c0:f2:
                    8f:69:67:0f:c1:4e:33:cf:fc:85:5e:bb:5e:cf:93:
                    b0:cf:d9:f4:52:79:87:b1:f8:4d:15:68:65:d5:b7:
                    19:08:63:7f:5e:b1:34:ad:05:8f:5a:f0:e4:e1:8f:
                    25:f2:5c:5c:61:95:b0:56:2d:31:2b:08:65:79:e5:
                    b1:3b:9d:3e:b9:52:4b:ac:5d:c4:58:66:85:8d:81:
                    b3:04:28:f4:3f:2f:ac:92:01:62:d5:fd:8e:0b:da:
                    02:0c:7a:c7:6e:09:1c:ac:1c:b2:4c:d7:54:b8:26:
                    33:b2:5f:14:f3:b1:f9:3d:62:4d:40:99:6b:b6:e7:
                    89:58:97:d6:d4:4d:ea:4b:68:52:f3:3c:a8:b1:35:
                    88:db
                Exponent: 65537 (0x10001)
        X509v3 extensions:
            X509v3 Subject Key Identifier: 
                A1:DF:33:C3:CF:3E:53:41:A7:68:44:CC:AA:19:E1:84:C9:0D:BC:C6
            X509v3 Authority Key Identifier: 
                keyid:B4:11:33:F1:D7:E2:5E:F7:53:9E:20:22:10:4F:86:06:BF:1F:C9:5E
                DirName:/C=AU/O=Dodgy Brothers/CN=Dodgy CA
                serial:25:60:FA:C9:CE:18:C7:8F:C1:DF:20:3C:6A:4A:69:ED:BD:52:69:EC
            X509v3 Basic Constraints: critical
                CA:TRUE, pathlen:1
            X509v3 Key Usage: 
                Certificate Sign, CRL Sign
            X509v3 Issuer Alternative Name: 
                <EMPTY>

    Signature Algorithm: sha1WithRSAEncryption
    Signature Value:
        44:8a:6a:e9:3b:06:3c:74:a4:1e:31:18:13:a7:c6:b2:9e:29:
        6d:46:ec:19:6f:d0:50:1b:d2:eb:e1:86:e3:02:4a:5e:ad:8b:
        41:b7:14:03:08:18:46:b0:e0:94:91:62:f1:a3:76:bb:41:75:
        16:a8:0a:66:7d:38:78:9f:96:e7:94:f9:72:44:e7:df:29:31:
        9e:e1:b5:48:7d:29:a2:3d:22:d3:a6:04:5f:ec:1f:7b:33:b7:
        db:ae:c9:f3:cd:8d:42:81:16:b1:17:7b:da:8b:a5:f6:79:34:
        bc:a8:71:62:89:cb:a0:92:b0:01:1a:db:cf:77:0a:ca:60:43:
        ea:63:61:46:54:a5:b8:f8:8d:1a:a6:93:fc:36:98:34:a6:10:
        b5:f0:d3:75:2c:7e:e1:11:b4:c1:c4:a3:1b:ec:06:1e:69:ec:
        16:99:9b:aa:3b:27:32:8a:2f:7b:c2:4e:06:ed:fd:39:c3:e7:
        f3:3f:95:c8:1b:14:c4:51:88:8c:ca:b0:06:c0:52:ad:bb:f7:
        6c:f6:10:cb:05:ab:66:e1:c5:6b:88:e5:1c:8f:a2:95:b5:06:
        3f:b6:24:e1:cb:a5:ac:2b:9a:2a:16:9d:d7:86:31:44:6f:9f:
        3a:b4:e7:d1:4a:2d:8a:28:bb:61:05:20:12:35:3d:82:0d:a4:
        71:a8:b9:be
-----BEGIN CERTIFICATE-----
MIID6zCCAtOgAwIBAgIULy4LUvKSdQHBEr3IStKK3OiGet4wDQYJKoZIhvcNAQEF
BQAwOTELMAkGA1UEBhMCQVUxFzAVBgNVBAoMDkRvZGd5IEJyb3RoZXJzMREwDwYD
VQQDDAhEb2RneSBDQTAeFw0yNDA4MjUwNTA4MDRaFw0yNTA4MjUwNTA4MDRaMF8x
CzAJBgNVBAYTAkFVMRcwFQYDVQQKDA5Eb2RneSBCcm90aGVyczESMBAGA1UEAwwJ
QnJvdGhlciAxMSMwIQYDVQQDDBpsYXN0dXBkYXRlX2dlbmVyYWxpemVkdGltZTCC
ASIwDQYJKoZIhvcNAQEBBQADggEPADCCAQoCggEBAL6VhvpxTGrqUZhQS5mhLGYV
82Dz4f9p+85IAR3+4Sw4sOO9j0tIp346xnPjq7/h2m6W9f7D5LSorbxWNNSWJXQn
wxDbNRAlHI5LgZv7QgR8bz3iOGwO5C6OKhhtMM1nKiNrN88Fn8y3WVh/usQKP4yk
rcuYnMDyj2lnD8FOM8/8hV67Xs+TsM/Z9FJ5h7H4TRVoZdW3GQhjf16xNK0Fj1rw
5OGPJfJcXGGVsFYtMSsIZXnlsTudPrlSS6xdxFhmhY2BswQo9D8vrJIBYtX9jgva
Agx6x24JHKwcskzXVLgmM7JfFPOx+T1iTUCZa7bniViX1tRN6ktoUvM8qLE1iNsC
AwEAAaOBxDCBwTAdBgNVHQ4EFgQUod8zw88+U0GnaETMqhnhhMkNvMYwdAYDVR0j
BG0wa4AUtBEz8dfiXvdTniAiEE+GBr8fyV6hPaQ7MDkxCzAJBgNVBAYTAkFVMRcw
FQYDVQQKDA5Eb2RneSBCcm90aGVyczERMA8GA1UEAwwIRG9kZ3kgQ0GCFCVg+snO
GMePwd8gPGpKae29UmnsMBIGA1UdEwEB/wQIMAYBAf8CAQEwCwYDVR0PBAQDAgEG
MAkGA1UdEgQCMAAwDQYJKoZIhvcNAQEFBQADggEBAESKauk7Bjx0pB4xGBOnxrKe
KW1G7Blv0FAb0uvhhuMCSl6ti0G3FAMIGEaw4JSRYvGjdrtBdRaoCmZ9OHiflueU
+XJE598pMZ7htUh9KaI9ItOmBF/sH3szt9uuyfPNjUKBFrEXe9qLpfZ5NLyocWKJ
y6CSsAEa2893CspgQ+pjYUZUpbj4jRqmk/w2mDSmELXw03UsfuERtMHEoxvsBh5p
7BaZm6o7JzKKL3vCTgbt/TnD5/M/lcgbFMRRiIzKsAbAUq2792z2EMsFq2bhxWuI
5RyPopW1Bj+2JOHLpawrmioWndeGMURvnzq059FKLYoou2EFIBI1PYINpHGoub4=
-----END CERTIFICATE-----
