Certificate:
    Data:
        Version: 3 (0x2)
        Serial Number:
            2f:2e:0b:52:f2:92:75:01:c1:12:bd:c8:4a:d2:8a:dc:e8:86:7a:e1
        Signature Algorithm: sha1WithRSAEncryption
        Issuer: C=AU, O=Dodgy Brothers, CN=Dodgy CA
        Validity
            Not Before: Aug 25 05:08:04 2024 GMT
            Not After : Aug 25 05:08:04 2025 GMT
        Subject: C=AU, O=Dodgy Brothers, CN=Brother 1, CN=nextupdate_generalizedtime
        Subject Public Key Info:
            Public Key Algorithm: rsaEncryption
                Public-Key: (2048 bit)
                Modulus:
                    00:be:95:86:fa:71:4c:6a:ea:51:98:50:4b:99:a1:
                    2c:66:15:f3:60:f3:e1:ff:69:fb:ce:48:01:1d:fe:
                    e1:2c:38:b0:e3:bd:8f:4b:48:a7:7e:3a:c6:73:e3:
                    ab:bf:e1:da:6e:96:f5:fe:c3:e4:b4:a8:ad:bc:56:
                    34:d4:96:25:74:27:c3:10:db:35:10:25:1c:8e:4b:
                    81:9b:fb:42:04:7c:6f:3d:e2:38:6c:0e:e4:2e:8e:
                    2a:18:6d:30:cd:67:2a:23:6b:37:cf:05:9f:cc:b7:
                    59:58:7f:ba:c4:0a:3f:8c:a4:ad:cb:98:9c:c0:f2:
                    8f:69:67:0f:c1:4e:33:cf:fc:85:5e:bb:5e:cf:93:
                    b0:cf:d9:f4:52:79:87:b1:f8:4d:15:68:65:d5:b7:
                    19:08:63:7f:5e:b1:34:ad:05:8f:5a:f0:e4:e1:8f:
                    25:f2:5c:5c:61:95:b0:56:2d:31:2b:08:65:79:e5:
                    b1:3b:9d:3e:b9:52:4b:ac:5d:c4:58:66:85:8d:81:
                    b3:04:28:f4:3f:2f:ac:92:01:62:d5:fd:8e:0b:da:
                    02:0c:7a:c7:6e:09:1c:ac:1c:b2:4c:d7:54:b8:26:
                    33:b2:5f:14:f3:b1:f9:3d:62:4d:40:99:6b:b6:e7:
                    89:58:97:d6:d4:4d:ea:4b:68:52:f3:3c:a8:b1:35:
                    88:db
                Exponent: 65537 (0x10001)
        X509v3 extensions:
            X509v3 Subject Key Identifier: 
                A1:DF:33:C3:CF:3E:53:41:A7:68:44:CC:AA:19:E1:84:C9:0D:BC:C6
            X509v3 Authority Key Identifier: 
                keyid:B4:11:33:F1:D7:E2:5E:F7:53:9E:20:22:10:4F:86:06:BF:1F:C9:5E
                DirName:/C=AU/O=Dodgy Brothers/CN=Dodgy CA
                serial:25:60:FA:C9:CE:18:C7:8F:C1:DF:20:3C:6A:4A:69:ED:BD:52:69:EC
            X509v3 Basic Constraints: critical
                CA:TRUE, pathlen:1
            X509v3 Key Usage: 
                Certificate Sign, CRL Sign
            X509v3 Issuer Alternative Name: 
                <EMPTY>

    Signature Algorithm: sha1WithRSAEncryption
    Signature Value:
        39:e8:f4:e0:89:85:e1:ea:a1:31:6d:5a:53:e0:9a:e6:26:b2:
        92:44:58:e3:46:aa:70:6e:91:76:8b:e6:f6:da:76:66:8b:21:
        f2:1e:f2:5b:66:af:03:6d:56:08:97:70:d1:ca:04:4b:ed:d7:
        50:7d:a0:e4:fe:b7:06:fd:39:89:70:be:b3:43:97:b9:96:1d:
        20:57:a9:fb:fd:1f:e9:22:4e:8b:38:73:96:3a:91:e8:a7:5c:
        e1:f4:72:e1:4f:6d:2f:98:4b:95:f5:a3:6c:f9:2e:05:58:d2:
        7a:87:7f:7e:a6:ea:e0:2b:17:00:09:36:15:f3:ff:11:38:1f:
        a8:8e:b0:1a:e6:7a:96:61:8e:f4:eb:91:9d:bc:b0:bf:20:f5:
        c7:38:3c:70:04:c7:77:46:f7:ec:b5:49:62:54:0f:6c:25:79:
        f6:2e:d9:48:8a:05:4a:b8:e7:3c:2a:17:53:7a:2e:37:3a:75:
        29:e7:0d:fd:33:3d:30:ac:77:61:f1:af:bf:f9:b2:80:13:63:
        b7:9a:95:09:2b:28:f3:77:05:17:30:34:ed:e7:a1:bf:17:54:
        a2:05:a4:5f:7a:96:e7:80:fd:1b:48:ca:9f:88:aa:ea:28:88:
        f4:39:c7:fb:95:f7:d0:5f:98:ff:3a:69:c1:98:2a:29:86:70:
        28:26:fe:03
-----BEGIN CERTIFICATE-----
MIID6zCCAtOgAwIBAgIULy4LUvKSdQHBEr3IStKK3OiGeuEwDQYJKoZIhvcNAQEF
BQAwOTELMAkGA1UEBhMCQVUxFzAVBgNVBAoMDkRvZGd5IEJyb3RoZXJzMREwDwYD
VQQDDAhEb2RneSBDQTAeFw0yNDA4MjUwNTA4MDRaFw0yNTA4MjUwNTA4MDRaMF8x
CzAJBgNVBAYTAkFVMRcwFQYDVQQKDA5Eb2RneSBCcm90aGVyczESMBAGA1UEAwwJ
QnJvdGhlciAxMSMwIQYDVQQDDBpuZXh0dXBkYXRlX2dlbmVyYWxpemVkdGltZTCC
ASIwDQYJKoZIhvcNAQEBBQADggEPADCCAQoCggEBAL6VhvpxTGrqUZhQS5mhLGYV
82Dz4f9p+85IAR3+4Sw4sOO9j0tIp346xnPjq7/h2m6W9f7D5LSorbxWNNSWJXQn
wxDbNRAlHI5LgZv7QgR8bz3iOGwO5C6OKhhtMM1nKiNrN88Fn8y3WVh/usQKP4yk
rcuYnMDyj2lnD8FOM8/8hV67Xs+TsM/Z9FJ5h7H4TRVoZdW3GQhjf16xNK0Fj1rw
5OGPJfJcXGGVsFYtMSsIZXnlsTudPrlSS6xdxFhmhY2BswQo9D8vrJIBYtX9jgva
Agx6x24JHKwcskzXVLgmM7JfFPOx+T1iTUCZa7bniViX1tRN6ktoUvM8qLE1iNsC
AwEAAaOBxDCBwTAdBgNVHQ4EFgQUod8zw88+U0GnaETMqhnhhMkNvMYwdAYDVR0j
BG0wa4AUtBEz8dfiXvdTniAiEE+GBr8fyV6hPaQ7MDkxCzAJBgNVBAYTAkFVMRcw
FQYDVQQKDA5Eb2RneSBCcm90aGVyczERMA8GA1UEAwwIRG9kZ3kgQ0GCFCVg+snO
GMePwd8gPGpKae29UmnsMBIGA1UdEwEB/wQIMAYBAf8CAQEwCwYDVR0PBAQDAgEG
MAkGA1UdEgQCMAAwDQYJKoZIhvcNAQEFBQADggEBADno9OCJheHqoTFtWlPgmuYm
spJEWONGqnBukXaL5vbadmaLIfIe8ltmrwNtVgiXcNHKBEvt11B9oOT+twb9OYlw
vrNDl7mWHSBXqfv9H+kiTos4c5Y6keinXOH0cuFPbS+YS5X1o2z5LgVY0nqHf36m
6uArFwAJNhXz/xE4H6iOsBrmepZhjvTrkZ28sL8g9cc4PHAEx3dG9+y1SWJUD2wl
efYu2UiKBUq45zwqF1N6Ljc6dSnnDf0zPTCsd2Hxr7/5soATY7ealQkrKPN3BRcw
NO3nob8XVKIFpF96lueA/RtIyp+IquooiPQ5x/uV99BfmP86acGYKimGcCgm/gM=
-----END CERTIFICATE-----
