Certificate:
    Data:
        Version: 3 (0x2)
        Serial Number:
            65:cc:0b:e9:74:b7:45:d0:d9:c7:ef:20:b5:f7:45:24:23:46:2d:2f
        Signature Algorithm: sha1WithRSAEncryption
        Issuer: C=AU, O=Dodgy Brothers, CN=Dodgy CA
        Validity
            Not Before: Sep 19 23:58:19 2024 GMT
            Not After : Sep 19 23:58:19 2025 GMT
        Subject: C=AU, O=Dodgy Brothers, CN=Brother 1, CN=both_generalizedtime
        Subject Public Key Info:
            Public Key Algorithm: rsaEncryption
                Public-Key: (2048 bit)
                Modulus:
                    00:be:95:86:fa:71:4c:6a:ea:51:98:50:4b:99:a1:
                    2c:66:15:f3:60:f3:e1:ff:69:fb:ce:48:01:1d:fe:
                    e1:2c:38:b0:e3:bd:8f:4b:48:a7:7e:3a:c6:73:e3:
                    ab:bf:e1:da:6e:96:f5:fe:c3:e4:b4:a8:ad:bc:56:
                    34:d4:96:25:74:27:c3:10:db:35:10:25:1c:8e:4b:
                    81:9b:fb:42:04:7c:6f:3d:e2:38:6c:0e:e4:2e:8e:
                    2a:18:6d:30:cd:67:2a:23:6b:37:cf:05:9f:cc:b7:
                    59:58:7f:ba:c4:0a:3f:8c:a4:ad:cb:98:9c:c0:f2:
                    8f:69:67:0f:c1:4e:33:cf:fc:85:5e:bb:5e:cf:93:
                    b0:cf:d9:f4:52:79:87:b1:f8:4d:15:68:65:d5:b7:
                    19:08:63:7f:5e:b1:34:ad:05:8f:5a:f0:e4:e1:8f:
                    25:f2:5c:5c:61:95:b0:56:2d:31:2b:08:65:79:e5:
                    b1:3b:9d:3e:b9:52:4b:ac:5d:c4:58:66:85:8d:81:
                    b3:04:28:f4:3f:2f:ac:92:01:62:d5:fd:8e:0b:da:
                    02:0c:7a:c7:6e:09:1c:ac:1c:b2:4c:d7:54:b8:26:
                    33:b2:5f:14:f3:b1:f9:3d:62:4d:40:99:6b:b6:e7:
                    89:58:97:d6:d4:4d:ea:4b:68:52:f3:3c:a8:b1:35:
                    88:db
                Exponent: 65537 (0x10001)
        X509v3 extensions:
            X509v3 Subject Key Identifier: 
                A1:DF:33:C3:CF:3E:53:41:A7:68:44:CC:AA:19:E1:84:C9:0D:BC:C6
            X509v3 Authority Key Identifier: 
                keyid:B4:11:33:F1:D7:E2:5E:F7:53:9E:20:22:10:4F:86:06:BF:1F:C9:5E
                DirName:/C=AU/O=Dodgy Brothers/CN=Dodgy CA
                serial:30:96:C7:0A:A8:EE:18:78:C1:97:CE:D9:63:EE:A6:54:74:5A:86:F1
            X509v3 Basic Constraints: critical
                CA:TRUE, pathlen:1
            X509v3 Key Usage: 
                Certificate Sign, CRL Sign
            X509v3 Issuer Alternative Name: 
                <EMPTY>

    Signature Algorithm: sha1WithRSAEncryption
    Signature Value:
        5d:e2:e3:2c:15:0a:70:a0:d7:0e:5a:6a:43:f8:39:49:f0:f9:
        a8:78:98:22:23:f6:e5:bb:1a:4b:c4:d5:0b:6a:45:19:01:d1:
        6a:b1:c0:f1:16:ac:cb:1f:bd:02:c1:51:d1:dc:ef:c0:63:7d:
        ad:fb:a1:2a:b4:3e:5e:e8:46:1c:93:6f:da:99:b5:95:d0:d2:
        a6:27:38:01:33:4c:cc:79:29:79:4e:19:e3:35:9a:5c:50:05:
        7e:57:51:38:ff:8b:5a:bf:e9:50:f5:d9:d8:1a:6a:02:88:45:
        e2:a0:d2:ca:71:10:be:75:c6:49:57:8e:c7:13:c4:36:76:37:
        ef:98:6e:6a:39:16:6e:99:ea:0d:15:2e:20:4d:e5:e0:d8:f8:
        7e:da:16:ea:1c:9f:d2:ff:68:c6:c5:77:89:d0:73:5e:d7:15:
        eb:b5:80:9b:30:39:85:09:ea:f4:04:78:61:ac:14:82:5d:b7:
        e3:59:14:ea:59:f3:60:84:be:f5:66:4e:d6:7e:76:34:74:7b:
        3f:75:4a:bf:1f:3b:b3:45:7b:ab:6f:59:05:8c:8c:c6:7b:54:
        3d:3e:be:e3:b2:f3:b2:07:34:1d:8b:c7:98:fa:4b:33:f0:68:
        92:dd:21:04:14:f0:9c:f0:c6:0a:02:01:ab:b9:b7:63:cc:9d:
        0c:6f:b3:a6
-----BEGIN CERTIFICATE-----
MIID5TCCAs2gAwIBAgIUZcwL6XS3RdDZx+8gtfdFJCNGLS8wDQYJKoZIhvcNAQEF
BQAwOTELMAkGA1UEBhMCQVUxFzAVBgNVBAoMDkRvZGd5IEJyb3RoZXJzMREwDwYD
VQQDDAhEb2RneSBDQTAeFw0yNDA5MTkyMzU4MTlaFw0yNTA5MTkyMzU4MTlaMFkx
CzAJBgNVBAYTAkFVMRcwFQYDVQQKDA5Eb2RneSBCcm90aGVyczESMBAGA1UEAwwJ
QnJvdGhlciAxMR0wGwYDVQQDDBRib3RoX2dlbmVyYWxpemVkdGltZTCCASIwDQYJ
KoZIhvcNAQEBBQADggEPADCCAQoCggEBAL6VhvpxTGrqUZhQS5mhLGYV82Dz4f9p
+85IAR3+4Sw4sOO9j0tIp346xnPjq7/h2m6W9f7D5LSorbxWNNSWJXQnwxDbNRAl
HI5LgZv7QgR8bz3iOGwO5C6OKhhtMM1nKiNrN88Fn8y3WVh/usQKP4ykrcuYnMDy
j2lnD8FOM8/8hV67Xs+TsM/Z9FJ5h7H4TRVoZdW3GQhjf16xNK0Fj1rw5OGPJfJc
XGGVsFYtMSsIZXnlsTudPrlSS6xdxFhmhY2BswQo9D8vrJIBYtX9jgvaAgx6x24J
HKwcskzXVLgmM7JfFPOx+T1iTUCZa7bniViX1tRN6ktoUvM8qLE1iNsCAwEAAaOB
xDCBwTAdBgNVHQ4EFgQUod8zw88+U0GnaETMqhnhhMkNvMYwdAYDVR0jBG0wa4AU
tBEz8dfiXvdTniAiEE+GBr8fyV6hPaQ7MDkxCzAJBgNVBAYTAkFVMRcwFQYDVQQK
DA5Eb2RneSBCcm90aGVyczERMA8GA1UEAwwIRG9kZ3kgQ0GCFDCWxwqo7hh4wZfO
2WPuplR0WobxMBIGA1UdEwEB/wQIMAYBAf8CAQEwCwYDVR0PBAQDAgEGMAkGA1Ud
EgQCMAAwDQYJKoZIhvcNAQEFBQADggEBAF3i4ywVCnCg1w5aakP4OUnw+ah4mCIj
9uW7GkvE1QtqRRkB0WqxwPEWrMsfvQLBUdHc78Bjfa37oSq0Pl7oRhyTb9qZtZXQ
0qYnOAEzTMx5KXlOGeM1mlxQBX5XUTj/i1q/6VD12dgaagKIReKg0spxEL51xklX
jscTxDZ2N++Ybmo5Fm6Z6g0VLiBN5eDY+H7aFuocn9L/aMbFd4nQc17XFeu1gJsw
OYUJ6vQEeGGsFIJdt+NZFOpZ82CEvvVmTtZ+djR0ez91Sr8fO7NFe6tvWQWMjMZ7
VD0+vuOy87IHNB2Lx5j6SzPwaJLdIQQU8JzwxgoCAau5t2PMnQxvs6Y=
-----END CERTIFICATE-----
