Certificate:
    Data:
        Version: 3 (0x2)
        Serial Number:
            59:69:af:84:7e:66:14:d8:46:e9:d2:53:2a:9a:7a:b7:65:0d:29:99
        Signature Algorithm: sha1WithRSAEncryption
        Issuer: C=AU, O=Dodgy Brothers, CN=Dodgy CA
        Validity
            Not Before: Sep 11 01:11:17 2024 GMT
            Not After : Sep 11 01:11:17 2025 GMT
        Subject: C=AU, O=Dodgy Brothers, CN=Brother 1, CN=both_generalizedtime
        Subject Public Key Info:
            Public Key Algorithm: rsaEncryption
                Public-Key: (2048 bit)
                Modulus:
                    00:be:95:86:fa:71:4c:6a:ea:51:98:50:4b:99:a1:
                    2c:66:15:f3:60:f3:e1:ff:69:fb:ce:48:01:1d:fe:
                    e1:2c:38:b0:e3:bd:8f:4b:48:a7:7e:3a:c6:73:e3:
                    ab:bf:e1:da:6e:96:f5:fe:c3:e4:b4:a8:ad:bc:56:
                    34:d4:96:25:74:27:c3:10:db:35:10:25:1c:8e:4b:
                    81:9b:fb:42:04:7c:6f:3d:e2:38:6c:0e:e4:2e:8e:
                    2a:18:6d:30:cd:67:2a:23:6b:37:cf:05:9f:cc:b7:
                    59:58:7f:ba:c4:0a:3f:8c:a4:ad:cb:98:9c:c0:f2:
                    8f:69:67:0f:c1:4e:33:cf:fc:85:5e:bb:5e:cf:93:
                    b0:cf:d9:f4:52:79:87:b1:f8:4d:15:68:65:d5:b7:
                    19:08:63:7f:5e:b1:34:ad:05:8f:5a:f0:e4:e1:8f:
                    25:f2:5c:5c:61:95:b0:56:2d:31:2b:08:65:79:e5:
                    b1:3b:9d:3e:b9:52:4b:ac:5d:c4:58:66:85:8d:81:
                    b3:04:28:f4:3f:2f:ac:92:01:62:d5:fd:8e:0b:da:
                    02:0c:7a:c7:6e:09:1c:ac:1c:b2:4c:d7:54:b8:26:
                    33:b2:5f:14:f3:b1:f9:3d:62:4d:40:99:6b:b6:e7:
                    89:58:97:d6:d4:4d:ea:4b:68:52:f3:3c:a8:b1:35:
                    88:db
                Exponent: 65537 (0x10001)
        X509v3 extensions:
            X509v3 Subject Key Identifier: 
                A1:DF:33:C3:CF:3E:53:41:A7:68:44:CC:AA:19:E1:84:C9:0D:BC:C6
            X509v3 Authority Key Identifier: 
                keyid:B4:11:33:F1:D7:E2:5E:F7:53:9E:20:22:10:4F:86:06:BF:1F:C9:5E
                DirName:/C=AU/O=Dodgy Brothers/CN=Dodgy CA
                serial:36:5D:75:35:1E:45:10:A3:8C:19:FC:86:AF:6C:C7:53:22:FE:2E:37
            X509v3 Basic Constraints: critical
                CA:TRUE, pathlen:1
            X509v3 Key Usage: 
                Certificate Sign, CRL Sign
            X509v3 Issuer Alternative Name: 
                <EMPTY>

    Signature Algorithm: sha1WithRSAEncryption
    Signature Value:
        49:8b:7c:ac:9a:10:7c:18:20:f2:71:11:ab:81:19:0a:c8:79:
        a7:4d:6f:4b:a1:10:e5:94:e8:a9:fe:42:55:ab:0f:1c:01:44:
        c6:87:b9:f7:7a:4a:42:bb:b3:d9:c2:7b:1f:4e:19:ff:46:aa:
        a1:e3:a8:ba:3b:93:c6:df:2f:76:25:1e:35:bb:55:34:cc:ba:
        63:84:6e:7f:22:3b:7a:02:b9:e5:3b:79:4e:3e:c0:5a:c6:04:
        f9:4a:5f:67:69:ce:ea:6c:f0:16:82:bb:cf:c3:1b:c9:dc:14:
        c8:fd:d7:33:55:68:0d:dd:c8:ab:6c:52:38:d7:c2:87:38:19:
        9d:c7:2f:64:d5:26:12:4a:20:1f:b8:75:24:f5:f6:e4:2f:36:
        81:74:f4:25:73:76:57:3e:21:ca:74:44:08:2b:91:99:8e:c7:
        63:ba:c1:87:a3:9b:bc:af:01:b8:46:74:83:b2:39:23:bb:74:
        88:55:a3:84:6e:2e:0f:10:05:57:e1:4d:47:45:98:16:99:23:
        b9:12:74:ea:c5:62:58:e2:94:68:42:49:ec:6d:14:1c:26:57:
        ac:b3:6d:80:c0:ce:2f:dc:ca:07:fe:fd:93:f5:09:27:f4:4b:
        03:92:76:b6:24:cd:28:1d:7f:28:38:90:71:6e:6c:a0:3d:0c:
        19:36:ed:aa
-----BEGIN CERTIFICATE-----
MIID5TCCAs2gAwIBAgIUWWmvhH5mFNhG6dJTKpp6t2UNKZkwDQYJKoZIhvcNAQEF
BQAwOTELMAkGA1UEBhMCQVUxFzAVBgNVBAoMDkRvZGd5IEJyb3RoZXJzMREwDwYD
VQQDDAhEb2RneSBDQTAeFw0yNDA5MTEwMTExMTdaFw0yNTA5MTEwMTExMTdaMFkx
CzAJBgNVBAYTAkFVMRcwFQYDVQQKDA5Eb2RneSBCcm90aGVyczESMBAGA1UEAwwJ
QnJvdGhlciAxMR0wGwYDVQQDDBRib3RoX2dlbmVyYWxpemVkdGltZTCCASIwDQYJ
KoZIhvcNAQEBBQADggEPADCCAQoCggEBAL6VhvpxTGrqUZhQS5mhLGYV82Dz4f9p
+85IAR3+4Sw4sOO9j0tIp346xnPjq7/h2m6W9f7D5LSorbxWNNSWJXQnwxDbNRAl
HI5LgZv7QgR8bz3iOGwO5C6OKhhtMM1nKiNrN88Fn8y3WVh/usQKP4ykrcuYnMDy
j2lnD8FOM8/8hV67Xs+TsM/Z9FJ5h7H4TRVoZdW3GQhjf16xNK0Fj1rw5OGPJfJc
XGGVsFYtMSsIZXnlsTudPrlSS6xdxFhmhY2BswQo9D8vrJIBYtX9jgvaAgx6x24J
HKwcskzXVLgmM7JfFPOx+T1iTUCZa7bniViX1tRN6ktoUvM8qLE1iNsCAwEAAaOB
xDCBwTAdBgNVHQ4EFgQUod8zw88+U0GnaETMqhnhhMkNvMYwdAYDVR0jBG0wa4AU
tBEz8dfiXvdTniAiEE+GBr8fyV6hPaQ7MDkxCzAJBgNVBAYTAkFVMRcwFQYDVQQK
DA5Eb2RneSBCcm90aGVyczERMA8GA1UEAwwIRG9kZ3kgQ0GCFDZddTUeRRCjjBn8
hq9sx1Mi/i43MBIGA1UdEwEB/wQIMAYBAf8CAQEwCwYDVR0PBAQDAgEGMAkGA1Ud
EgQCMAAwDQYJKoZIhvcNAQEFBQADggEBAEmLfKyaEHwYIPJxEauBGQrIeadNb0uh
EOWU6Kn+QlWrDxwBRMaHufd6SkK7s9nCex9OGf9GqqHjqLo7k8bfL3YlHjW7VTTM
umOEbn8iO3oCueU7eU4+wFrGBPlKX2dpzups8BaCu8/DG8ncFMj91zNVaA3dyKts
UjjXwoc4GZ3HL2TVJhJKIB+4dST19uQvNoF09CVzdlc+Icp0RAgrkZmOx2O6wYej
m7yvAbhGdIOyOSO7dIhVo4RuLg8QBVfhTUdFmBaZI7kSdOrFYljilGhCSextFBwm
V6yzbYDAzi/cygf+/ZP1CSf0SwOSdrYkzSgdfyg4kHFubKA9DBk27ao=
-----END CERTIFICATE-----
