Certificate:
    Data:
        Version: 3 (0x2)
        Serial Number:
            59:69:af:84:7e:66:14:d8:46:e9:d2:53:2a:9a:7a:b7:65:0d:29:98
        Signature Algorithm: sha1WithRSAEncryption
        Issuer: C=AU, O=Dodgy Brothers, CN=Dodgy CA
        Validity
            Not Before: Sep 11 01:11:17 2024 GMT
            Not After : Sep 11 01:11:17 2025 GMT
        Subject: C=AU, O=Dodgy Brothers, CN=Brother 1, CN=both_utctime
        Subject Public Key Info:
            Public Key Algorithm: rsaEncryption
                Public-Key: (2048 bit)
                Modulus:
                    00:be:95:86:fa:71:4c:6a:ea:51:98:50:4b:99:a1:
                    2c:66:15:f3:60:f3:e1:ff:69:fb:ce:48:01:1d:fe:
                    e1:2c:38:b0:e3:bd:8f:4b:48:a7:7e:3a:c6:73:e3:
                    ab:bf:e1:da:6e:96:f5:fe:c3:e4:b4:a8:ad:bc:56:
                    34:d4:96:25:74:27:c3:10:db:35:10:25:1c:8e:4b:
                    81:9b:fb:42:04:7c:6f:3d:e2:38:6c:0e:e4:2e:8e:
                    2a:18:6d:30:cd:67:2a:23:6b:37:cf:05:9f:cc:b7:
                    59:58:7f:ba:c4:0a:3f:8c:a4:ad:cb:98:9c:c0:f2:
                    8f:69:67:0f:c1:4e:33:cf:fc:85:5e:bb:5e:cf:93:
                    b0:cf:d9:f4:52:79:87:b1:f8:4d:15:68:65:d5:b7:
                    19:08:63:7f:5e:b1:34:ad:05:8f:5a:f0:e4:e1:8f:
                    25:f2:5c:5c:61:95:b0:56:2d:31:2b:08:65:79:e5:
                    b1:3b:9d:3e:b9:52:4b:ac:5d:c4:58:66:85:8d:81:
                    b3:04:28:f4:3f:2f:ac:92:01:62:d5:fd:8e:0b:da:
                    02:0c:7a:c7:6e:09:1c:ac:1c:b2:4c:d7:54:b8:26:
                    33:b2:5f:14:f3:b1:f9:3d:62:4d:40:99:6b:b6:e7:
                    89:58:97:d6:d4:4d:ea:4b:68:52:f3:3c:a8:b1:35:
                    88:db
                Exponent: 65537 (0x10001)
        X509v3 extensions:
            X509v3 Subject Key Identifier: 
                A1:DF:33:C3:CF:3E:53:41:A7:68:44:CC:AA:19:E1:84:C9:0D:BC:C6
            X509v3 Authority Key Identifier: 
                keyid:B4:11:33:F1:D7:E2:5E:F7:53:9E:20:22:10:4F:86:06:BF:1F:C9:5E
                DirName:/C=AU/O=Dodgy Brothers/CN=Dodgy CA
                serial:36:5D:75:35:1E:45:10:A3:8C:19:FC:86:AF:6C:C7:53:22:FE:2E:37
            X509v3 Basic Constraints: critical
                CA:TRUE, pathlen:1
            X509v3 Key Usage: 
                Certificate Sign, CRL Sign
            X509v3 Issuer Alternative Name: 
                <EMPTY>

    Signature Algorithm: sha1WithRSAEncryption
    Signature Value:
        45:94:bf:d4:aa:ac:3f:e3:af:3c:ea:9b:e4:91:bc:b7:6a:5d:
        a4:a1:e0:a3:f9:84:5c:fa:2c:c9:40:b1:b1:e9:c3:54:ba:6b:
        1a:58:51:28:0b:db:80:1c:33:76:00:dc:59:e6:a7:2e:55:06:
        e7:42:c0:86:03:1b:df:d8:bb:1e:76:71:61:0b:1e:03:c1:b7:
        16:5c:d6:f2:36:d7:a5:36:12:ea:f0:25:9f:d6:08:61:3a:e1:
        19:4d:e6:3c:64:ae:a8:c6:45:22:8a:6a:ca:35:af:c1:e8:81:
        2a:e5:e5:ad:8c:ba:ab:15:5b:c7:bd:a3:43:f7:d1:e1:ec:c9:
        65:bf:57:2e:db:c1:a2:8a:15:60:44:f3:1a:98:09:51:fa:b3:
        2b:fa:3d:e1:d1:4c:04:ea:68:d2:d0:21:96:de:1c:7b:9b:b4:
        4f:b2:65:af:1f:1b:07:eb:a6:1f:b5:83:6a:12:c6:01:af:c0:
        1f:58:43:f1:9e:f1:c9:55:96:b4:71:e8:4b:94:d6:81:08:1a:
        28:f2:5d:13:27:ad:40:e7:d5:46:7b:48:ad:d0:74:25:d5:33:
        33:7b:d8:a3:e4:b3:8d:0b:4c:cf:26:05:36:6c:e3:d4:40:42:
        a7:5e:2a:d5:7b:6c:c5:ae:3c:84:9d:22:7e:a5:c1:c3:f5:18:
        a2:e5:c8:ab
-----BEGIN CERTIFICATE-----
MIID3TCCAsWgAwIBAgIUWWmvhH5mFNhG6dJTKpp6t2UNKZgwDQYJKoZIhvcNAQEF
BQAwOTELMAkGA1UEBhMCQVUxFzAVBgNVBAoMDkRvZGd5IEJyb3RoZXJzMREwDwYD
VQQDDAhEb2RneSBDQTAeFw0yNDA5MTEwMTExMTdaFw0yNTA5MTEwMTExMTdaMFEx
CzAJBgNVBAYTAkFVMRcwFQYDVQQKDA5Eb2RneSBCcm90aGVyczESMBAGA1UEAwwJ
QnJvdGhlciAxMRUwEwYDVQQDDAxib3RoX3V0Y3RpbWUwggEiMA0GCSqGSIb3DQEB
AQUAA4IBDwAwggEKAoIBAQC+lYb6cUxq6lGYUEuZoSxmFfNg8+H/afvOSAEd/uEs
OLDjvY9LSKd+OsZz46u/4dpulvX+w+S0qK28VjTUliV0J8MQ2zUQJRyOS4Gb+0IE
fG894jhsDuQujioYbTDNZyojazfPBZ/Mt1lYf7rECj+MpK3LmJzA8o9pZw/BTjPP
/IVeu17Pk7DP2fRSeYex+E0VaGXVtxkIY39esTStBY9a8OThjyXyXFxhlbBWLTEr
CGV55bE7nT65UkusXcRYZoWNgbMEKPQ/L6ySAWLV/Y4L2gIMesduCRysHLJM11S4
JjOyXxTzsfk9Yk1AmWu254lYl9bUTepLaFLzPKixNYjbAgMBAAGjgcQwgcEwHQYD
VR0OBBYEFKHfM8PPPlNBp2hEzKoZ4YTJDbzGMHQGA1UdIwRtMGuAFLQRM/HX4l73
U54gIhBPhga/H8leoT2kOzA5MQswCQYDVQQGEwJBVTEXMBUGA1UECgwORG9kZ3kg
QnJvdGhlcnMxETAPBgNVBAMMCERvZGd5IENBghQ2XXU1HkUQo4wZ/IavbMdTIv4u
NzASBgNVHRMBAf8ECDAGAQH/AgEBMAsGA1UdDwQEAwIBBjAJBgNVHRIEAjAAMA0G
CSqGSIb3DQEBBQUAA4IBAQBFlL/Uqqw/46886pvkkby3al2koeCj+YRc+izJQLGx
6cNUumsaWFEoC9uAHDN2ANxZ5qcuVQbnQsCGAxvf2LsednFhCx4DwbcWXNbyNtel
NhLq8CWf1ghhOuEZTeY8ZK6oxkUiimrKNa/B6IEq5eWtjLqrFVvHvaND99Hh7Mll
v1cu28GiihVgRPMamAlR+rMr+j3h0UwE6mjS0CGW3hx7m7RPsmWvHxsH66YftYNq
EsYBr8AfWEPxnvHJVZa0cehLlNaBCBoo8l0TJ61A59VGe0it0HQl1TMze9ij5LON
C0zPJgU2bOPUQEKnXirVe2zFrjyEnSJ+pcHD9Rii5cir
-----END CERTIFICATE-----
