Certificate:
    Data:
        Version: 3 (0x2)
        Serial Number:
            6f:1e:9a:03:72:dd:db:48:cd:c2:2a:1b:24:6b:8d:92:c2:10:75:d9
        Signature Algorithm: sha1WithRSAEncryption
        Issuer: C=AU, O=Dodgy Brothers, CN=Dodgy CA
        Validity
            Not Before: Aug 12 00:44:59 2024 GMT
            Not After : Aug 12 00:44:59 2025 GMT
        Subject: C=AU, O=Dodgy Brothers, CN=Brother 1, CN=both_utctime
        Subject Public Key Info:
            Public Key Algorithm: rsaEncryption
                Public-Key: (2048 bit)
                Modulus:
                    00:be:95:86:fa:71:4c:6a:ea:51:98:50:4b:99:a1:
                    2c:66:15:f3:60:f3:e1:ff:69:fb:ce:48:01:1d:fe:
                    e1:2c:38:b0:e3:bd:8f:4b:48:a7:7e:3a:c6:73:e3:
                    ab:bf:e1:da:6e:96:f5:fe:c3:e4:b4:a8:ad:bc:56:
                    34:d4:96:25:74:27:c3:10:db:35:10:25:1c:8e:4b:
                    81:9b:fb:42:04:7c:6f:3d:e2:38:6c:0e:e4:2e:8e:
                    2a:18:6d:30:cd:67:2a:23:6b:37:cf:05:9f:cc:b7:
                    59:58:7f:ba:c4:0a:3f:8c:a4:ad:cb:98:9c:c0:f2:
                    8f:69:67:0f:c1:4e:33:cf:fc:85:5e:bb:5e:cf:93:
                    b0:cf:d9:f4:52:79:87:b1:f8:4d:15:68:65:d5:b7:
                    19:08:63:7f:5e:b1:34:ad:05:8f:5a:f0:e4:e1:8f:
                    25:f2:5c:5c:61:95:b0:56:2d:31:2b:08:65:79:e5:
                    b1:3b:9d:3e:b9:52:4b:ac:5d:c4:58:66:85:8d:81:
                    b3:04:28:f4:3f:2f:ac:92:01:62:d5:fd:8e:0b:da:
                    02:0c:7a:c7:6e:09:1c:ac:1c:b2:4c:d7:54:b8:26:
                    33:b2:5f:14:f3:b1:f9:3d:62:4d:40:99:6b:b6:e7:
                    89:58:97:d6:d4:4d:ea:4b:68:52:f3:3c:a8:b1:35:
                    88:db
                Exponent: 65537 (0x10001)
        X509v3 extensions:
            X509v3 Subject Key Identifier: 
                A1:DF:33:C3:CF:3E:53:41:A7:68:44:CC:AA:19:E1:84:C9:0D:BC:C6
            X509v3 Authority Key Identifier: 
                keyid:B4:11:33:F1:D7:E2:5E:F7:53:9E:20:22:10:4F:86:06:BF:1F:C9:5E
                DirName:/C=AU/O=Dodgy Brothers/CN=Dodgy CA
                serial:72:BD:08:50:B3:F6:1E:9B:52:7A:8B:4A:46:D3:12:9A:51:77:66:FB
            X509v3 Basic Constraints: critical
                CA:TRUE, pathlen:1
            X509v3 Key Usage: 
                Certificate Sign, CRL Sign
            X509v3 Issuer Alternative Name: 
                <EMPTY>

    Signature Algorithm: sha1WithRSAEncryption
    Signature Value:
        0f:78:1e:2f:5d:85:20:97:e8:15:99:24:a7:b9:d2:87:90:88:
        ee:e2:ac:5f:76:5c:ab:fa:30:ff:be:df:7f:84:2b:dd:fb:a1:
        5e:93:b9:c6:2d:c0:61:57:20:14:1b:67:d6:cc:12:d4:79:d9:
        62:42:61:de:da:02:5d:e2:53:6a:d1:38:ba:ce:b0:1c:e4:d2:
        ad:b4:12:d1:8a:66:3c:de:1a:2a:7d:bd:88:a1:06:2d:00:41:
        a5:b2:eb:22:10:2e:03:5b:1a:a4:be:d8:50:bc:b4:bc:04:92:
        ee:78:fa:42:7e:44:78:41:0a:e4:94:e2:44:db:fb:16:17:8b:
        55:ec:d6:0a:2b:ee:6c:24:9a:ac:6f:6e:33:55:38:dd:42:6e:
        7d:64:fe:e4:82:13:1b:80:cc:aa:4c:9f:2c:31:8e:ca:92:c1:
        bf:e6:0a:25:36:99:eb:c0:4d:ac:77:c5:dd:4b:13:13:b6:c4:
        56:cb:85:e4:a1:d0:c7:58:de:6e:6b:9e:fb:c1:5a:e8:cf:6a:
        f9:32:57:78:66:97:6b:35:64:04:80:b0:cf:ba:c7:a6:f3:ac:
        de:2f:f0:8e:40:14:66:1f:68:92:81:7a:e1:00:9e:ed:31:57:
        76:f6:32:02:b2:8a:dd:c1:90:59:5e:ad:d6:3a:ed:c0:94:35:
        c8:e3:21:cd
-----BEGIN CERTIFICATE-----
MIID3TCCAsWgAwIBAgIUbx6aA3Ld20jNwiobJGuNksIQddkwDQYJKoZIhvcNAQEF
BQAwOTELMAkGA1UEBhMCQVUxFzAVBgNVBAoMDkRvZGd5IEJyb3RoZXJzMREwDwYD
VQQDDAhEb2RneSBDQTAeFw0yNDA4MTIwMDQ0NTlaFw0yNTA4MTIwMDQ0NTlaMFEx
CzAJBgNVBAYTAkFVMRcwFQYDVQQKDA5Eb2RneSBCcm90aGVyczESMBAGA1UEAwwJ
QnJvdGhlciAxMRUwEwYDVQQDDAxib3RoX3V0Y3RpbWUwggEiMA0GCSqGSIb3DQEB
AQUAA4IBDwAwggEKAoIBAQC+lYb6cUxq6lGYUEuZoSxmFfNg8+H/afvOSAEd/uEs
OLDjvY9LSKd+OsZz46u/4dpulvX+w+S0qK28VjTUliV0J8MQ2zUQJRyOS4Gb+0IE
fG894jhsDuQujioYbTDNZyojazfPBZ/Mt1lYf7rECj+MpK3LmJzA8o9pZw/BTjPP
/IVeu17Pk7DP2fRSeYex+E0VaGXVtxkIY39esTStBY9a8OThjyXyXFxhlbBWLTEr
CGV55bE7nT65UkusXcRYZoWNgbMEKPQ/L6ySAWLV/Y4L2gIMesduCRysHLJM11S4
JjOyXxTzsfk9Yk1AmWu254lYl9bUTepLaFLzPKixNYjbAgMBAAGjgcQwgcEwHQYD
VR0OBBYEFKHfM8PPPlNBp2hEzKoZ4YTJDbzGMHQGA1UdIwRtMGuAFLQRM/HX4l73
U54gIhBPhga/H8leoT2kOzA5MQswCQYDVQQGEwJBVTEXMBUGA1UECgwORG9kZ3kg
QnJvdGhlcnMxETAPBgNVBAMMCERvZGd5IENBghRyvQhQs/Yem1J6i0pG0xKaUXdm
+zASBgNVHRMBAf8ECDAGAQH/AgEBMAsGA1UdDwQEAwIBBjAJBgNVHRIEAjAAMA0G
CSqGSIb3DQEBBQUAA4IBAQAPeB4vXYUgl+gVmSSnudKHkIju4qxfdlyr+jD/vt9/
hCvd+6Fek7nGLcBhVyAUG2fWzBLUedliQmHe2gJd4lNq0Ti6zrAc5NKttBLRimY8
3hoqfb2IoQYtAEGlsusiEC4DWxqkvthQvLS8BJLuePpCfkR4QQrklOJE2/sWF4tV
7NYKK+5sJJqsb24zVTjdQm59ZP7kghMbgMyqTJ8sMY7KksG/5golNpnrwE2sd8Xd
SxMTtsRWy4XkodDHWN5ua577wVroz2r5Mld4ZpdrNWQEgLDPusem86zeL/COQBRm
H2iSgXrhAJ7tMVd29jICsordwZBZXq3WOu3AlDXI4yHN
-----END CERTIFICATE-----
