Certificate:
    Data:
        Version: 3 (0x2)
        Serial Number:
            6f:1e:9a:03:72:dd:db:48:cd:c2:2a:1b:24:6b:8d:92:c2:10:75:da
        Signature Algorithm: sha1WithRSAEncryption
        Issuer: C=AU, O=Dodgy Brothers, CN=Dodgy CA
        Validity
            Not Before: Aug 12 00:45:00 2024 GMT
            Not After : Aug 12 00:45:00 2025 GMT
        Subject: C=AU, O=Dodgy Brothers, CN=Brother 1, CN=both_generalizedtime
        Subject Public Key Info:
            Public Key Algorithm: rsaEncryption
                Public-Key: (2048 bit)
                Modulus:
                    00:be:95:86:fa:71:4c:6a:ea:51:98:50:4b:99:a1:
                    2c:66:15:f3:60:f3:e1:ff:69:fb:ce:48:01:1d:fe:
                    e1:2c:38:b0:e3:bd:8f:4b:48:a7:7e:3a:c6:73:e3:
                    ab:bf:e1:da:6e:96:f5:fe:c3:e4:b4:a8:ad:bc:56:
                    34:d4:96:25:74:27:c3:10:db:35:10:25:1c:8e:4b:
                    81:9b:fb:42:04:7c:6f:3d:e2:38:6c:0e:e4:2e:8e:
                    2a:18:6d:30:cd:67:2a:23:6b:37:cf:05:9f:cc:b7:
                    59:58:7f:ba:c4:0a:3f:8c:a4:ad:cb:98:9c:c0:f2:
                    8f:69:67:0f:c1:4e:33:cf:fc:85:5e:bb:5e:cf:93:
                    b0:cf:d9:f4:52:79:87:b1:f8:4d:15:68:65:d5:b7:
                    19:08:63:7f:5e:b1:34:ad:05:8f:5a:f0:e4:e1:8f:
                    25:f2:5c:5c:61:95:b0:56:2d:31:2b:08:65:79:e5:
                    b1:3b:9d:3e:b9:52:4b:ac:5d:c4:58:66:85:8d:81:
                    b3:04:28:f4:3f:2f:ac:92:01:62:d5:fd:8e:0b:da:
                    02:0c:7a:c7:6e:09:1c:ac:1c:b2:4c:d7:54:b8:26:
                    33:b2:5f:14:f3:b1:f9:3d:62:4d:40:99:6b:b6:e7:
                    89:58:97:d6:d4:4d:ea:4b:68:52:f3:3c:a8:b1:35:
                    88:db
                Exponent: 65537 (0x10001)
        X509v3 extensions:
            X509v3 Subject Key Identifier: 
                A1:DF:33:C3:CF:3E:53:41:A7:68:44:CC:AA:19:E1:84:C9:0D:BC:C6
            X509v3 Authority Key Identifier: 
                keyid:B4:11:33:F1:D7:E2:5E:F7:53:9E:20:22:10:4F:86:06:BF:1F:C9:5E
                DirName:/C=AU/O=Dodgy Brothers/CN=Dodgy CA
                serial:72:BD:08:50:B3:F6:1E:9B:52:7A:8B:4A:46:D3:12:9A:51:77:66:FB
            X509v3 Basic Constraints: critical
                CA:TRUE, pathlen:1
            X509v3 Key Usage: 
                Certificate Sign, CRL Sign
            X509v3 Issuer Alternative Name: 
                <EMPTY>

    Signature Algorithm: sha1WithRSAEncryption
    Signature Value:
        2f:3e:52:a5:cc:99:9e:f8:5b:22:32:58:fa:1f:94:b5:f5:d7:
        40:5c:ea:bb:ac:5e:6d:8e:f2:74:7c:f7:7c:2f:50:7c:9d:cb:
        39:90:56:92:1e:45:d6:a7:e6:a8:61:f3:30:3d:6d:ca:7a:7b:
        0b:5a:36:de:6b:aa:71:60:64:d9:d6:05:76:c8:e5:74:5d:aa:
        8b:f0:7a:b2:5f:70:86:3c:c3:23:ee:f1:22:01:39:75:fb:d0:
        f5:80:c6:ab:3c:fa:17:8a:a0:fc:12:86:c6:58:49:d1:5c:ba:
        0d:bf:c6:c8:29:47:52:70:31:6d:cc:16:3d:23:8c:c1:f9:2f:
        2d:1a:af:4a:f7:1a:5c:85:fa:97:ae:d4:9f:41:0c:0b:98:a1:
        4b:fd:fb:b5:c6:ba:b1:28:0c:c3:19:2c:ed:45:f9:68:bd:a2:
        6c:97:81:3b:57:05:2e:20:76:04:9b:bb:18:34:ec:3d:cb:b9:
        d4:fe:73:41:a6:07:55:9c:c6:2f:0c:65:e2:71:76:01:f0:a3:
        8a:be:1e:4c:cd:4a:a2:4e:9a:9f:d1:66:bc:b5:31:d3:3f:62:
        af:59:71:ba:fe:ae:6e:ed:09:95:81:9c:2a:17:33:71:27:87:
        d6:0a:b2:7e:fc:ab:56:ec:1f:3b:97:46:b4:66:b7:b3:01:87:
        54:73:74:6b
-----BEGIN CERTIFICATE-----
MIID5TCCAs2gAwIBAgIUbx6aA3Ld20jNwiobJGuNksIQddowDQYJKoZIhvcNAQEF
BQAwOTELMAkGA1UEBhMCQVUxFzAVBgNVBAoMDkRvZGd5IEJyb3RoZXJzMREwDwYD
VQQDDAhEb2RneSBDQTAeFw0yNDA4MTIwMDQ1MDBaFw0yNTA4MTIwMDQ1MDBaMFkx
CzAJBgNVBAYTAkFVMRcwFQYDVQQKDA5Eb2RneSBCcm90aGVyczESMBAGA1UEAwwJ
QnJvdGhlciAxMR0wGwYDVQQDDBRib3RoX2dlbmVyYWxpemVkdGltZTCCASIwDQYJ
KoZIhvcNAQEBBQADggEPADCCAQoCggEBAL6VhvpxTGrqUZhQS5mhLGYV82Dz4f9p
+85IAR3+4Sw4sOO9j0tIp346xnPjq7/h2m6W9f7D5LSorbxWNNSWJXQnwxDbNRAl
HI5LgZv7QgR8bz3iOGwO5C6OKhhtMM1nKiNrN88Fn8y3WVh/usQKP4ykrcuYnMDy
j2lnD8FOM8/8hV67Xs+TsM/Z9FJ5h7H4TRVoZdW3GQhjf16xNK0Fj1rw5OGPJfJc
XGGVsFYtMSsIZXnlsTudPrlSS6xdxFhmhY2BswQo9D8vrJIBYtX9jgvaAgx6x24J
HKwcskzXVLgmM7JfFPOx+T1iTUCZa7bniViX1tRN6ktoUvM8qLE1iNsCAwEAAaOB
xDCBwTAdBgNVHQ4EFgQUod8zw88+U0GnaETMqhnhhMkNvMYwdAYDVR0jBG0wa4AU
tBEz8dfiXvdTniAiEE+GBr8fyV6hPaQ7MDkxCzAJBgNVBAYTAkFVMRcwFQYDVQQK
DA5Eb2RneSBCcm90aGVyczERMA8GA1UEAwwIRG9kZ3kgQ0GCFHK9CFCz9h6bUnqL
SkbTEppRd2b7MBIGA1UdEwEB/wQIMAYBAf8CAQEwCwYDVR0PBAQDAgEGMAkGA1Ud
EgQCMAAwDQYJKoZIhvcNAQEFBQADggEBAC8+UqXMmZ74WyIyWPoflLX110Bc6rus
Xm2O8nR893wvUHydyzmQVpIeRdan5qhh8zA9bcp6ewtaNt5rqnFgZNnWBXbI5XRd
qovwerJfcIY8wyPu8SIBOXX70PWAxqs8+heKoPwShsZYSdFcug2/xsgpR1JwMW3M
Fj0jjMH5Ly0ar0r3GlyF+peu1J9BDAuYoUv9+7XGurEoDMMZLO1F+Wi9omyXgTtX
BS4gdgSbuxg07D3LudT+c0GmB1Wcxi8MZeJxdgHwo4q+HkzNSqJOmp/RZry1MdM/
Yq9Zcbr+rm7tCZWBnCoXM3Enh9YKsn78q1bsHzuXRrRmt7MBh1RzdGs=
-----END CERTIFICATE-----
