Certificate:
    Data:
        Version: 3 (0x2)
        Serial Number:
            65:cc:0b:e9:74:b7:45:d0:d9:c7:ef:20:b5:f7:45:24:23:46:2d:2e
        Signature Algorithm: sha1WithRSAEncryption
        Issuer: C=AU, O=Dodgy Brothers, CN=Dodgy CA
        Validity
            Not Before: Sep 19 23:58:19 2024 GMT
            Not After : Sep 19 23:58:19 2025 GMT
        Subject: C=AU, O=Dodgy Brothers, CN=Brother 1, CN=both_utctime
        Subject Public Key Info:
            Public Key Algorithm: rsaEncryption
                Public-Key: (2048 bit)
                Modulus:
                    00:be:95:86:fa:71:4c:6a:ea:51:98:50:4b:99:a1:
                    2c:66:15:f3:60:f3:e1:ff:69:fb:ce:48:01:1d:fe:
                    e1:2c:38:b0:e3:bd:8f:4b:48:a7:7e:3a:c6:73:e3:
                    ab:bf:e1:da:6e:96:f5:fe:c3:e4:b4:a8:ad:bc:56:
                    34:d4:96:25:74:27:c3:10:db:35:10:25:1c:8e:4b:
                    81:9b:fb:42:04:7c:6f:3d:e2:38:6c:0e:e4:2e:8e:
                    2a:18:6d:30:cd:67:2a:23:6b:37:cf:05:9f:cc:b7:
                    59:58:7f:ba:c4:0a:3f:8c:a4:ad:cb:98:9c:c0:f2:
                    8f:69:67:0f:c1:4e:33:cf:fc:85:5e:bb:5e:cf:93:
                    b0:cf:d9:f4:52:79:87:b1:f8:4d:15:68:65:d5:b7:
                    19:08:63:7f:5e:b1:34:ad:05:8f:5a:f0:e4:e1:8f:
                    25:f2:5c:5c:61:95:b0:56:2d:31:2b:08:65:79:e5:
                    b1:3b:9d:3e:b9:52:4b:ac:5d:c4:58:66:85:8d:81:
                    b3:04:28:f4:3f:2f:ac:92:01:62:d5:fd:8e:0b:da:
                    02:0c:7a:c7:6e:09:1c:ac:1c:b2:4c:d7:54:b8:26:
                    33:b2:5f:14:f3:b1:f9:3d:62:4d:40:99:6b:b6:e7:
                    89:58:97:d6:d4:4d:ea:4b:68:52:f3:3c:a8:b1:35:
                    88:db
                Exponent: 65537 (0x10001)
        X509v3 extensions:
            X509v3 Subject Key Identifier: 
                A1:DF:33:C3:CF:3E:53:41:A7:68:44:CC:AA:19:E1:84:C9:0D:BC:C6
            X509v3 Authority Key Identifier: 
                keyid:B4:11:33:F1:D7:E2:5E:F7:53:9E:20:22:10:4F:86:06:BF:1F:C9:5E
                DirName:/C=AU/O=Dodgy Brothers/CN=Dodgy CA
                serial:30:96:C7:0A:A8:EE:18:78:C1:97:CE:D9:63:EE:A6:54:74:5A:86:F1
            X509v3 Basic Constraints: critical
                CA:TRUE, pathlen:1
            X509v3 Key Usage: 
                Certificate Sign, CRL Sign
            X509v3 Issuer Alternative Name: 
                <EMPTY>

    Signature Algorithm: sha1WithRSAEncryption
    Signature Value:
        1f:93:5b:9f:b9:fb:aa:d9:a2:c1:97:17:3c:37:4b:f0:78:7a:
        84:6d:c4:9c:2a:a3:1a:ce:be:d0:81:00:a3:67:cc:7a:c5:2c:
        7f:62:92:a6:5e:21:a9:73:8e:60:b9:bb:21:85:35:b1:d3:e5:
        28:ae:2a:67:ee:07:d8:03:27:2a:3f:40:a4:c4:38:18:25:c1:
        f2:d7:e6:7a:74:28:b2:3c:4a:f6:06:43:a0:c8:2f:8b:51:f5:
        7c:ef:f9:fe:15:fd:2a:62:41:8c:b1:34:70:01:b7:9b:a3:35:
        20:4f:0b:a3:19:21:ed:74:0c:5a:f8:56:d3:98:a4:53:0b:d6:
        ca:6b:18:b5:41:f8:af:c8:11:62:13:c4:88:52:26:1d:9c:eb:
        39:6d:86:a3:dc:d8:c9:df:1b:c9:32:b5:a7:1e:65:3f:8f:96:
        d4:b8:ba:f4:48:d6:fb:99:21:ff:46:6b:e4:50:07:a9:b9:09:
        3a:0e:86:2d:c6:88:62:5d:0a:6f:a3:85:73:78:0c:27:22:db:
        72:76:13:60:23:8c:c1:85:b9:cd:6a:ef:cd:3c:30:10:79:50:
        a7:4f:4a:08:9f:47:ac:e8:35:f6:d7:0d:cc:b7:84:96:d5:79:
        c3:b8:9b:11:b8:8c:85:2a:80:b2:a7:3d:2d:f2:15:c0:b3:f5:
        4b:f7:76:14
-----BEGIN CERTIFICATE-----
MIID3TCCAsWgAwIBAgIUZcwL6XS3RdDZx+8gtfdFJCNGLS4wDQYJKoZIhvcNAQEF
BQAwOTELMAkGA1UEBhMCQVUxFzAVBgNVBAoMDkRvZGd5IEJyb3RoZXJzMREwDwYD
VQQDDAhEb2RneSBDQTAeFw0yNDA5MTkyMzU4MTlaFw0yNTA5MTkyMzU4MTlaMFEx
CzAJBgNVBAYTAkFVMRcwFQYDVQQKDA5Eb2RneSBCcm90aGVyczESMBAGA1UEAwwJ
QnJvdGhlciAxMRUwEwYDVQQDDAxib3RoX3V0Y3RpbWUwggEiMA0GCSqGSIb3DQEB
AQUAA4IBDwAwggEKAoIBAQC+lYb6cUxq6lGYUEuZoSxmFfNg8+H/afvOSAEd/uEs
OLDjvY9LSKd+OsZz46u/4dpulvX+w+S0qK28VjTUliV0J8MQ2zUQJRyOS4Gb+0IE
fG894jhsDuQujioYbTDNZyojazfPBZ/Mt1lYf7rECj+MpK3LmJzA8o9pZw/BTjPP
/IVeu17Pk7DP2fRSeYex+E0VaGXVtxkIY39esTStBY9a8OThjyXyXFxhlbBWLTEr
CGV55bE7nT65UkusXcRYZoWNgbMEKPQ/L6ySAWLV/Y4L2gIMesduCRysHLJM11S4
JjOyXxTzsfk9Yk1AmWu254lYl9bUTepLaFLzPKixNYjbAgMBAAGjgcQwgcEwHQYD
VR0OBBYEFKHfM8PPPlNBp2hEzKoZ4YTJDbzGMHQGA1UdIwRtMGuAFLQRM/HX4l73
U54gIhBPhga/H8leoT2kOzA5MQswCQYDVQQGEwJBVTEXMBUGA1UECgwORG9kZ3kg
QnJvdGhlcnMxETAPBgNVBAMMCERvZGd5IENBghQwlscKqO4YeMGXztlj7qZUdFqG
8TASBgNVHRMBAf8ECDAGAQH/AgEBMAsGA1UdDwQEAwIBBjAJBgNVHRIEAjAAMA0G
CSqGSIb3DQEBBQUAA4IBAQAfk1ufufuq2aLBlxc8N0vweHqEbcScKqMazr7QgQCj
Z8x6xSx/YpKmXiGpc45gubshhTWx0+Uoripn7gfYAycqP0CkxDgYJcHy1+Z6dCiy
PEr2BkOgyC+LUfV87/n+Ff0qYkGMsTRwAbebozUgTwujGSHtdAxa+FbTmKRTC9bK
axi1QfivyBFiE8SIUiYdnOs5bYaj3NjJ3xvJMrWnHmU/j5bUuLr0SNb7mSH/Rmvk
UAepuQk6DoYtxohiXQpvo4VzeAwnIttydhNgI4zBhbnNau/NPDAQeVCnT0oIn0es
6DX21w3Mt4SW1XnDuJsRuIyFKoCypz0t8hXAs/VL93YU
-----END CERTIFICATE-----
