Certificate:
    Data:
        Version: 3 (0x2)
        Serial Number:
            6f:1e:9a:03:72:dd:db:48:cd:c2:2a:1b:24:6b:8d:92:c2:10:75:d4
        Signature Algorithm: sha1WithRSAEncryption
        Issuer: C=AU, O=Dodgy Brothers, CN=Dodgy CA
        Validity
            Not Before: Aug 12 00:44:59 2024 GMT
            Not After : Aug 12 00:44:59 2025 GMT
        Subject: C=AU, O=Dodgy Brothers, CN=Brother 1, CN=lastupdate_utctime
        Subject Public Key Info:
            Public Key Algorithm: rsaEncryption
                Public-Key: (2048 bit)
                Modulus:
                    00:be:95:86:fa:71:4c:6a:ea:51:98:50:4b:99:a1:
                    2c:66:15:f3:60:f3:e1:ff:69:fb:ce:48:01:1d:fe:
                    e1:2c:38:b0:e3:bd:8f:4b:48:a7:7e:3a:c6:73:e3:
                    ab:bf:e1:da:6e:96:f5:fe:c3:e4:b4:a8:ad:bc:56:
                    34:d4:96:25:74:27:c3:10:db:35:10:25:1c:8e:4b:
                    81:9b:fb:42:04:7c:6f:3d:e2:38:6c:0e:e4:2e:8e:
                    2a:18:6d:30:cd:67:2a:23:6b:37:cf:05:9f:cc:b7:
                    59:58:7f:ba:c4:0a:3f:8c:a4:ad:cb:98:9c:c0:f2:
                    8f:69:67:0f:c1:4e:33:cf:fc:85:5e:bb:5e:cf:93:
                    b0:cf:d9:f4:52:79:87:b1:f8:4d:15:68:65:d5:b7:
                    19:08:63:7f:5e:b1:34:ad:05:8f:5a:f0:e4:e1:8f:
                    25:f2:5c:5c:61:95:b0:56:2d:31:2b:08:65:79:e5:
                    b1:3b:9d:3e:b9:52:4b:ac:5d:c4:58:66:85:8d:81:
                    b3:04:28:f4:3f:2f:ac:92:01:62:d5:fd:8e:0b:da:
                    02:0c:7a:c7:6e:09:1c:ac:1c:b2:4c:d7:54:b8:26:
                    33:b2:5f:14:f3:b1:f9:3d:62:4d:40:99:6b:b6:e7:
                    89:58:97:d6:d4:4d:ea:4b:68:52:f3:3c:a8:b1:35:
                    88:db
                Exponent: 65537 (0x10001)
        X509v3 extensions:
            X509v3 Subject Key Identifier: 
                A1:DF:33:C3:CF:3E:53:41:A7:68:44:CC:AA:19:E1:84:C9:0D:BC:C6
            X509v3 Authority Key Identifier: 
                keyid:B4:11:33:F1:D7:E2:5E:F7:53:9E:20:22:10:4F:86:06:BF:1F:C9:5E
                DirName:/C=AU/O=Dodgy Brothers/CN=Dodgy CA
                serial:72:BD:08:50:B3:F6:1E:9B:52:7A:8B:4A:46:D3:12:9A:51:77:66:FB
            X509v3 Basic Constraints: critical
                CA:TRUE, pathlen:1
            X509v3 Key Usage: 
                Certificate Sign, CRL Sign
            X509v3 Issuer Alternative Name: 
                <EMPTY>

    Signature Algorithm: sha1WithRSAEncryption
    Signature Value:
        51:bc:70:93:fc:c4:ca:63:cb:06:7e:01:26:38:26:59:6e:3d:
        89:78:a0:b3:3a:84:cb:a3:45:45:9e:1b:e3:39:71:54:07:cd:
        51:1b:81:96:ce:4e:74:29:ed:45:a4:bc:b2:7a:76:7c:f2:e0:
        35:5e:f2:6d:5a:ae:d1:17:47:39:29:c9:c9:ad:9a:cf:61:84:
        be:34:ee:8a:af:7f:b8:c3:1f:dc:1a:9e:64:0f:bf:7a:c6:41:
        46:11:fc:55:b8:a6:ce:bc:f4:63:26:5f:5b:ce:2f:d8:aa:ae:
        ca:97:6d:d2:12:1f:b9:54:92:f4:d9:1b:b4:ab:34:85:8f:79:
        23:24:78:39:4d:44:4c:1c:3f:ae:9b:b1:c9:9d:76:1e:0c:2f:
        38:8c:a3:59:43:d5:53:24:bf:e3:e6:07:c5:ec:a0:fb:ee:5c:
        c4:62:43:ad:34:36:2c:97:3d:e4:29:5c:9b:bd:e2:6a:1d:ed:
        c2:e9:89:47:f9:cf:65:1d:cc:44:5f:a4:5a:f7:0d:06:69:dd:
        a4:e3:95:a8:33:72:33:d5:cb:43:9e:7f:cd:63:e0:eb:94:08:
        b7:d8:8c:47:b4:6a:a6:b9:d0:af:9b:3f:d8:ed:a3:c1:ea:9c:
        77:e8:93:2c:e4:d5:1c:6d:ed:2d:94:57:fa:36:c4:e3:e5:5a:
        1d:8f:b6:6e
-----BEGIN CERTIFICATE-----
MIID4zCCAsugAwIBAgIUbx6aA3Ld20jNwiobJGuNksIQddQwDQYJKoZIhvcNAQEF
BQAwOTELMAkGA1UEBhMCQVUxFzAVBgNVBAoMDkRvZGd5IEJyb3RoZXJzMREwDwYD
VQQDDAhEb2RneSBDQTAeFw0yNDA4MTIwMDQ0NTlaFw0yNTA4MTIwMDQ0NTlaMFcx
CzAJBgNVBAYTAkFVMRcwFQYDVQQKDA5Eb2RneSBCcm90aGVyczESMBAGA1UEAwwJ
QnJvdGhlciAxMRswGQYDVQQDDBJsYXN0dXBkYXRlX3V0Y3RpbWUwggEiMA0GCSqG
SIb3DQEBAQUAA4IBDwAwggEKAoIBAQC+lYb6cUxq6lGYUEuZoSxmFfNg8+H/afvO
SAEd/uEsOLDjvY9LSKd+OsZz46u/4dpulvX+w+S0qK28VjTUliV0J8MQ2zUQJRyO
S4Gb+0IEfG894jhsDuQujioYbTDNZyojazfPBZ/Mt1lYf7rECj+MpK3LmJzA8o9p
Zw/BTjPP/IVeu17Pk7DP2fRSeYex+E0VaGXVtxkIY39esTStBY9a8OThjyXyXFxh
lbBWLTErCGV55bE7nT65UkusXcRYZoWNgbMEKPQ/L6ySAWLV/Y4L2gIMesduCRys
HLJM11S4JjOyXxTzsfk9Yk1AmWu254lYl9bUTepLaFLzPKixNYjbAgMBAAGjgcQw
gcEwHQYDVR0OBBYEFKHfM8PPPlNBp2hEzKoZ4YTJDbzGMHQGA1UdIwRtMGuAFLQR
M/HX4l73U54gIhBPhga/H8leoT2kOzA5MQswCQYDVQQGEwJBVTEXMBUGA1UECgwO
RG9kZ3kgQnJvdGhlcnMxETAPBgNVBAMMCERvZGd5IENBghRyvQhQs/Yem1J6i0pG
0xKaUXdm+zASBgNVHRMBAf8ECDAGAQH/AgEBMAsGA1UdDwQEAwIBBjAJBgNVHRIE
AjAAMA0GCSqGSIb3DQEBBQUAA4IBAQBRvHCT/MTKY8sGfgEmOCZZbj2JeKCzOoTL
o0VFnhvjOXFUB81RG4GWzk50Ke1FpLyyenZ88uA1XvJtWq7RF0c5KcnJrZrPYYS+
NO6Kr3+4wx/cGp5kD796xkFGEfxVuKbOvPRjJl9bzi/Yqq7Kl23SEh+5VJL02Ru0
qzSFj3kjJHg5TURMHD+um7HJnXYeDC84jKNZQ9VTJL/j5gfF7KD77lzEYkOtNDYs
lz3kKVybveJqHe3C6YlH+c9lHcxEX6Ra9w0Gad2k45WoM3Iz1ctDnn/NY+DrlAi3
2IxHtGqmudCvmz/Y7aPB6px36JMs5NUcbe0tlFf6NsTj5Vodj7Zu
-----END CERTIFICATE-----
