Certificate:
    Data:
        Version: 3 (0x2)
        Serial Number:
            59:69:af:84:7e:66:14:d8:46:e9:d2:53:2a:9a:7a:b7:65:0d:29:92
        Signature Algorithm: sha1WithRSAEncryption
        Issuer: C=AU, O=Dodgy Brothers, CN=Dodgy CA
        Validity
            Not Before: Sep 11 01:11:16 2024 GMT
            Not After : Sep 11 01:11:16 2025 GMT
        Subject: C=AU, O=Dodgy Brothers, CN=Brother 1, CN=lastupdate_invalid
        Subject Public Key Info:
            Public Key Algorithm: rsaEncryption
                Public-Key: (2048 bit)
                Modulus:
                    00:be:95:86:fa:71:4c:6a:ea:51:98:50:4b:99:a1:
                    2c:66:15:f3:60:f3:e1:ff:69:fb:ce:48:01:1d:fe:
                    e1:2c:38:b0:e3:bd:8f:4b:48:a7:7e:3a:c6:73:e3:
                    ab:bf:e1:da:6e:96:f5:fe:c3:e4:b4:a8:ad:bc:56:
                    34:d4:96:25:74:27:c3:10:db:35:10:25:1c:8e:4b:
                    81:9b:fb:42:04:7c:6f:3d:e2:38:6c:0e:e4:2e:8e:
                    2a:18:6d:30:cd:67:2a:23:6b:37:cf:05:9f:cc:b7:
                    59:58:7f:ba:c4:0a:3f:8c:a4:ad:cb:98:9c:c0:f2:
                    8f:69:67:0f:c1:4e:33:cf:fc:85:5e:bb:5e:cf:93:
                    b0:cf:d9:f4:52:79:87:b1:f8:4d:15:68:65:d5:b7:
                    19:08:63:7f:5e:b1:34:ad:05:8f:5a:f0:e4:e1:8f:
                    25:f2:5c:5c:61:95:b0:56:2d:31:2b:08:65:79:e5:
                    b1:3b:9d:3e:b9:52:4b:ac:5d:c4:58:66:85:8d:81:
                    b3:04:28:f4:3f:2f:ac:92:01:62:d5:fd:8e:0b:da:
                    02:0c:7a:c7:6e:09:1c:ac:1c:b2:4c:d7:54:b8:26:
                    33:b2:5f:14:f3:b1:f9:3d:62:4d:40:99:6b:b6:e7:
                    89:58:97:d6:d4:4d:ea:4b:68:52:f3:3c:a8:b1:35:
                    88:db
                Exponent: 65537 (0x10001)
        X509v3 extensions:
            X509v3 Subject Key Identifier: 
                A1:DF:33:C3:CF:3E:53:41:A7:68:44:CC:AA:19:E1:84:C9:0D:BC:C6
            X509v3 Authority Key Identifier: 
                keyid:B4:11:33:F1:D7:E2:5E:F7:53:9E:20:22:10:4F:86:06:BF:1F:C9:5E
                DirName:/C=AU/O=Dodgy Brothers/CN=Dodgy CA
                serial:36:5D:75:35:1E:45:10:A3:8C:19:FC:86:AF:6C:C7:53:22:FE:2E:37
            X509v3 Basic Constraints: critical
                CA:TRUE, pathlen:1
            X509v3 Key Usage: 
                Certificate Sign, CRL Sign
            X509v3 Issuer Alternative Name: 
                <EMPTY>

    Signature Algorithm: sha1WithRSAEncryption
    Signature Value:
        08:48:09:78:7c:5b:0a:0e:05:af:93:26:4f:69:77:83:27:c5:
        3b:80:65:15:f5:f7:cc:41:23:15:ed:e4:17:c5:a5:f9:0d:23:
        3b:a5:de:16:12:07:2d:ea:f1:b9:a1:f9:b8:33:11:fc:a6:9d:
        01:09:9c:81:9d:6e:a4:fd:c6:c4:94:bf:93:44:b4:44:04:6d:
        76:aa:9e:13:2c:99:25:fe:4e:a2:3b:9a:2a:04:b1:27:64:9d:
        63:f2:a7:2f:8c:66:8f:e4:6b:21:f2:78:54:6c:0c:7e:0c:28:
        b6:50:d3:ba:35:1e:a5:18:b2:2f:e8:82:49:b5:91:ab:80:33:
        3c:43:cb:df:9e:7a:58:7b:1f:82:9d:2e:bd:5f:05:c8:c1:7d:
        30:3a:85:97:33:6f:5f:5e:b2:1d:bf:48:7a:95:98:a7:13:0e:
        c9:63:c3:ba:16:a3:a5:f0:21:bd:97:0d:07:b5:26:c5:9d:79:
        82:72:ec:8b:73:6d:9d:4e:3a:89:49:a1:ac:54:29:2a:cf:ce:
        65:5f:27:ef:1a:bf:2e:d5:8b:ba:6e:7f:d5:3b:e6:39:8a:33:
        95:d0:bc:28:82:37:ef:07:f2:29:3b:9f:27:f1:f0:de:23:05:
        be:a0:c5:69:79:f1:17:2e:7e:37:ff:bf:6a:69:dd:f3:8e:d2:
        d2:bc:b6:22
-----BEGIN CERTIFICATE-----
MIID4zCCAsugAwIBAgIUWWmvhH5mFNhG6dJTKpp6t2UNKZIwDQYJKoZIhvcNAQEF
BQAwOTELMAkGA1UEBhMCQVUxFzAVBgNVBAoMDkRvZGd5IEJyb3RoZXJzMREwDwYD
VQQDDAhEb2RneSBDQTAeFw0yNDA5MTEwMTExMTZaFw0yNTA5MTEwMTExMTZaMFcx
CzAJBgNVBAYTAkFVMRcwFQYDVQQKDA5Eb2RneSBCcm90aGVyczESMBAGA1UEAwwJ
QnJvdGhlciAxMRswGQYDVQQDDBJsYXN0dXBkYXRlX2ludmFsaWQwggEiMA0GCSqG
SIb3DQEBAQUAA4IBDwAwggEKAoIBAQC+lYb6cUxq6lGYUEuZoSxmFfNg8+H/afvO
SAEd/uEsOLDjvY9LSKd+OsZz46u/4dpulvX+w+S0qK28VjTUliV0J8MQ2zUQJRyO
S4Gb+0IEfG894jhsDuQujioYbTDNZyojazfPBZ/Mt1lYf7rECj+MpK3LmJzA8o9p
Zw/BTjPP/IVeu17Pk7DP2fRSeYex+E0VaGXVtxkIY39esTStBY9a8OThjyXyXFxh
lbBWLTErCGV55bE7nT65UkusXcRYZoWNgbMEKPQ/L6ySAWLV/Y4L2gIMesduCRys
HLJM11S4JjOyXxTzsfk9Yk1AmWu254lYl9bUTepLaFLzPKixNYjbAgMBAAGjgcQw
gcEwHQYDVR0OBBYEFKHfM8PPPlNBp2hEzKoZ4YTJDbzGMHQGA1UdIwRtMGuAFLQR
M/HX4l73U54gIhBPhga/H8leoT2kOzA5MQswCQYDVQQGEwJBVTEXMBUGA1UECgwO
RG9kZ3kgQnJvdGhlcnMxETAPBgNVBAMMCERvZGd5IENBghQ2XXU1HkUQo4wZ/Iav
bMdTIv4uNzASBgNVHRMBAf8ECDAGAQH/AgEBMAsGA1UdDwQEAwIBBjAJBgNVHRIE
AjAAMA0GCSqGSIb3DQEBBQUAA4IBAQAISAl4fFsKDgWvkyZPaXeDJ8U7gGUV9ffM
QSMV7eQXxaX5DSM7pd4WEgct6vG5ofm4MxH8pp0BCZyBnW6k/cbElL+TRLREBG12
qp4TLJkl/k6iO5oqBLEnZJ1j8qcvjGaP5Gsh8nhUbAx+DCi2UNO6NR6lGLIv6IJJ
tZGrgDM8Q8vfnnpYex+CnS69XwXIwX0wOoWXM29fXrIdv0h6lZinEw7JY8O6FqOl
8CG9lw0HtSbFnXmCcuyLc22dTjqJSaGsVCkqz85lXyfvGr8u1Yu6bn/VO+Y5ijOV
0LwogjfvB/IpO58n8fDeIwW+oMVpefEXLn43/79qad3zjtLSvLYi
-----END CERTIFICATE-----
