Certificate:
    Data:
        Version: 3 (0x2)
        Serial Number:
            65:cc:0b:e9:74:b7:45:d0:d9:c7:ef:20:b5:f7:45:24:23:46:2d:2a
        Signature Algorithm: sha1WithRSAEncryption
        Issuer: C=AU, O=Dodgy Brothers, CN=Dodgy CA
        Validity
            Not Before: Sep 19 23:58:18 2024 GMT
            Not After : Sep 19 23:58:18 2025 GMT
        Subject: C=AU, O=Dodgy Brothers, CN=Brother 1, CN=lastupdate_generalizedtime
        Subject Public Key Info:
            Public Key Algorithm: rsaEncryption
                Public-Key: (2048 bit)
                Modulus:
                    00:be:95:86:fa:71:4c:6a:ea:51:98:50:4b:99:a1:
                    2c:66:15:f3:60:f3:e1:ff:69:fb:ce:48:01:1d:fe:
                    e1:2c:38:b0:e3:bd:8f:4b:48:a7:7e:3a:c6:73:e3:
                    ab:bf:e1:da:6e:96:f5:fe:c3:e4:b4:a8:ad:bc:56:
                    34:d4:96:25:74:27:c3:10:db:35:10:25:1c:8e:4b:
                    81:9b:fb:42:04:7c:6f:3d:e2:38:6c:0e:e4:2e:8e:
                    2a:18:6d:30:cd:67:2a:23:6b:37:cf:05:9f:cc:b7:
                    59:58:7f:ba:c4:0a:3f:8c:a4:ad:cb:98:9c:c0:f2:
                    8f:69:67:0f:c1:4e:33:cf:fc:85:5e:bb:5e:cf:93:
                    b0:cf:d9:f4:52:79:87:b1:f8:4d:15:68:65:d5:b7:
                    19:08:63:7f:5e:b1:34:ad:05:8f:5a:f0:e4:e1:8f:
                    25:f2:5c:5c:61:95:b0:56:2d:31:2b:08:65:79:e5:
                    b1:3b:9d:3e:b9:52:4b:ac:5d:c4:58:66:85:8d:81:
                    b3:04:28:f4:3f:2f:ac:92:01:62:d5:fd:8e:0b:da:
                    02:0c:7a:c7:6e:09:1c:ac:1c:b2:4c:d7:54:b8:26:
                    33:b2:5f:14:f3:b1:f9:3d:62:4d:40:99:6b:b6:e7:
                    89:58:97:d6:d4:4d:ea:4b:68:52:f3:3c:a8:b1:35:
                    88:db
                Exponent: 65537 (0x10001)
        X509v3 extensions:
            X509v3 Subject Key Identifier: 
                A1:DF:33:C3:CF:3E:53:41:A7:68:44:CC:AA:19:E1:84:C9:0D:BC:C6
            X509v3 Authority Key Identifier: 
                keyid:B4:11:33:F1:D7:E2:5E:F7:53:9E:20:22:10:4F:86:06:BF:1F:C9:5E
                DirName:/C=AU/O=Dodgy Brothers/CN=Dodgy CA
                serial:30:96:C7:0A:A8:EE:18:78:C1:97:CE:D9:63:EE:A6:54:74:5A:86:F1
            X509v3 Basic Constraints: critical
                CA:TRUE, pathlen:1
            X509v3 Key Usage: 
                Certificate Sign, CRL Sign
            X509v3 Issuer Alternative Name: 
                <EMPTY>

    Signature Algorithm: sha1WithRSAEncryption
    Signature Value:
        32:57:eb:1e:2d:c5:7d:ce:11:0b:a2:4c:96:70:e2:95:83:15:
        a6:fd:e1:4f:74:85:8b:7f:97:14:a9:2c:ff:c0:97:4d:40:5d:
        6d:99:45:fb:a3:60:21:9a:dc:eb:d4:df:f8:64:70:fd:ee:7a:
        b1:78:81:23:f5:0e:ca:0f:e6:16:9a:65:1e:48:ef:10:f9:49:
        df:19:57:b6:81:43:85:17:ef:25:70:eb:67:a2:0b:22:a8:08:
        f4:9b:be:a4:66:bc:9e:f1:ce:6b:04:a8:59:0c:07:a3:ff:a1:
        fe:e6:e2:d5:d6:5f:b8:4f:e0:0b:61:10:d0:b6:0c:24:d5:cb:
        d1:ef:5d:17:cc:3d:a8:c5:57:5f:b5:ad:7b:bb:9c:9e:77:7d:
        e5:c7:fa:8f:4c:64:e2:f3:2d:f2:8b:a9:4f:46:70:a9:3d:dd:
        df:08:c6:31:ff:86:7e:86:66:50:b3:38:e8:a1:27:2b:86:cd:
        21:80:48:9a:a0:7b:f1:35:c0:37:52:c4:bb:e4:2f:7d:ec:ae:
        df:ef:f9:4c:d2:04:68:9c:33:73:d2:43:11:eb:8c:bc:e7:7a:
        e5:86:18:66:49:e8:08:d9:b7:d4:84:76:61:4d:0c:4a:a0:f2:
        24:b8:d3:ee:7c:5b:58:b0:d2:34:4c:91:01:c9:15:25:eb:c1:
        d3:1c:e3:26
-----BEGIN CERTIFICATE-----
MIID6zCCAtOgAwIBAgIUZcwL6XS3RdDZx+8gtfdFJCNGLSowDQYJKoZIhvcNAQEF
BQAwOTELMAkGA1UEBhMCQVUxFzAVBgNVBAoMDkRvZGd5IEJyb3RoZXJzMREwDwYD
VQQDDAhEb2RneSBDQTAeFw0yNDA5MTkyMzU4MThaFw0yNTA5MTkyMzU4MThaMF8x
CzAJBgNVBAYTAkFVMRcwFQYDVQQKDA5Eb2RneSBCcm90aGVyczESMBAGA1UEAwwJ
QnJvdGhlciAxMSMwIQYDVQQDDBpsYXN0dXBkYXRlX2dlbmVyYWxpemVkdGltZTCC
ASIwDQYJKoZIhvcNAQEBBQADggEPADCCAQoCggEBAL6VhvpxTGrqUZhQS5mhLGYV
82Dz4f9p+85IAR3+4Sw4sOO9j0tIp346xnPjq7/h2m6W9f7D5LSorbxWNNSWJXQn
wxDbNRAlHI5LgZv7QgR8bz3iOGwO5C6OKhhtMM1nKiNrN88Fn8y3WVh/usQKP4yk
rcuYnMDyj2lnD8FOM8/8hV67Xs+TsM/Z9FJ5h7H4TRVoZdW3GQhjf16xNK0Fj1rw
5OGPJfJcXGGVsFYtMSsIZXnlsTudPrlSS6xdxFhmhY2BswQo9D8vrJIBYtX9jgva
Agx6x24JHKwcskzXVLgmM7JfFPOx+T1iTUCZa7bniViX1tRN6ktoUvM8qLE1iNsC
AwEAAaOBxDCBwTAdBgNVHQ4EFgQUod8zw88+U0GnaETMqhnhhMkNvMYwdAYDVR0j
BG0wa4AUtBEz8dfiXvdTniAiEE+GBr8fyV6hPaQ7MDkxCzAJBgNVBAYTAkFVMRcw
FQYDVQQKDA5Eb2RneSBCcm90aGVyczERMA8GA1UEAwwIRG9kZ3kgQ0GCFDCWxwqo
7hh4wZfO2WPuplR0WobxMBIGA1UdEwEB/wQIMAYBAf8CAQEwCwYDVR0PBAQDAgEG
MAkGA1UdEgQCMAAwDQYJKoZIhvcNAQEFBQADggEBADJX6x4txX3OEQuiTJZw4pWD
Fab94U90hYt/lxSpLP/Al01AXW2ZRfujYCGa3OvU3/hkcP3uerF4gSP1DsoP5haa
ZR5I7xD5Sd8ZV7aBQ4UX7yVw62eiCyKoCPSbvqRmvJ7xzmsEqFkMB6P/of7m4tXW
X7hP4AthENC2DCTVy9HvXRfMPajFV1+1rXu7nJ53feXH+o9MZOLzLfKLqU9GcKk9
3d8IxjH/hn6GZlCzOOihJyuGzSGASJqge/E1wDdSxLvkL33srt/v+UzSBGicM3PS
QxHrjLzneuWGGGZJ6AjZt9SEdmFNDEqg8iS40+58W1iw0jRMkQHJFSXrwdMc4yY=
-----END CERTIFICATE-----
