Certificate:
    Data:
        Version: 3 (0x2)
        Serial Number:
            65:cc:0b:e9:74:b7:45:d0:d9:c7:ef:20:b5:f7:45:24:23:46:2d:28
        Signature Algorithm: sha1WithRSAEncryption
        Issuer: C=AU, O=Dodgy Brothers, CN=Dodgy CA
        Validity
            Not Before: Sep 19 23:58:18 2024 GMT
            Not After : Sep 19 23:58:18 2025 GMT
        Subject: C=AU, O=Dodgy Brothers, CN=Brother 1, CN=lastupdate_invalid
        Subject Public Key Info:
            Public Key Algorithm: rsaEncryption
                Public-Key: (2048 bit)
                Modulus:
                    00:be:95:86:fa:71:4c:6a:ea:51:98:50:4b:99:a1:
                    2c:66:15:f3:60:f3:e1:ff:69:fb:ce:48:01:1d:fe:
                    e1:2c:38:b0:e3:bd:8f:4b:48:a7:7e:3a:c6:73:e3:
                    ab:bf:e1:da:6e:96:f5:fe:c3:e4:b4:a8:ad:bc:56:
                    34:d4:96:25:74:27:c3:10:db:35:10:25:1c:8e:4b:
                    81:9b:fb:42:04:7c:6f:3d:e2:38:6c:0e:e4:2e:8e:
                    2a:18:6d:30:cd:67:2a:23:6b:37:cf:05:9f:cc:b7:
                    59:58:7f:ba:c4:0a:3f:8c:a4:ad:cb:98:9c:c0:f2:
                    8f:69:67:0f:c1:4e:33:cf:fc:85:5e:bb:5e:cf:93:
                    b0:cf:d9:f4:52:79:87:b1:f8:4d:15:68:65:d5:b7:
                    19:08:63:7f:5e:b1:34:ad:05:8f:5a:f0:e4:e1:8f:
                    25:f2:5c:5c:61:95:b0:56:2d:31:2b:08:65:79:e5:
                    b1:3b:9d:3e:b9:52:4b:ac:5d:c4:58:66:85:8d:81:
                    b3:04:28:f4:3f:2f:ac:92:01:62:d5:fd:8e:0b:da:
                    02:0c:7a:c7:6e:09:1c:ac:1c:b2:4c:d7:54:b8:26:
                    33:b2:5f:14:f3:b1:f9:3d:62:4d:40:99:6b:b6:e7:
                    89:58:97:d6:d4:4d:ea:4b:68:52:f3:3c:a8:b1:35:
                    88:db
                Exponent: 65537 (0x10001)
        X509v3 extensions:
            X509v3 Subject Key Identifier: 
                A1:DF:33:C3:CF:3E:53:41:A7:68:44:CC:AA:19:E1:84:C9:0D:BC:C6
            X509v3 Authority Key Identifier: 
                keyid:B4:11:33:F1:D7:E2:5E:F7:53:9E:20:22:10:4F:86:06:BF:1F:C9:5E
                DirName:/C=AU/O=Dodgy Brothers/CN=Dodgy CA
                serial:30:96:C7:0A:A8:EE:18:78:C1:97:CE:D9:63:EE:A6:54:74:5A:86:F1
            X509v3 Basic Constraints: critical
                CA:TRUE, pathlen:1
            X509v3 Key Usage: 
                Certificate Sign, CRL Sign
            X509v3 Issuer Alternative Name: 
                <EMPTY>

    Signature Algorithm: sha1WithRSAEncryption
    Signature Value:
        58:a6:e8:de:ad:b5:84:5c:75:ed:af:88:de:19:e7:3d:1a:08:
        41:e5:32:7b:37:5a:59:50:96:7f:c3:9f:ad:be:81:63:af:31:
        6b:26:b0:64:5d:e1:ec:21:f6:24:80:16:53:0f:90:0d:42:ed:
        9a:8a:02:3f:a9:23:55:8c:64:3f:73:63:93:2c:60:f7:34:60:
        40:82:f2:41:7f:58:f7:fd:4d:74:fd:7b:f8:0a:64:7d:87:c4:
        c7:03:d6:3e:9c:c8:71:91:39:b4:dc:17:1b:5e:de:14:d0:45:
        2b:58:f8:79:04:21:2f:d6:f0:25:56:98:67:33:3d:cc:df:93:
        b2:88:1e:80:c2:a9:5d:da:90:e3:b7:db:f4:12:97:6a:25:08:
        b7:c3:2c:78:58:97:24:e8:29:94:9a:8a:66:9f:9d:9a:54:a4:
        89:66:a5:2f:a8:f2:dd:78:44:22:f2:d2:2d:cc:ba:a1:cb:57:
        b8:da:ed:00:86:19:f3:5b:5d:d5:5f:dd:06:36:f2:22:d0:7f:
        bb:8a:d3:06:27:49:cb:ef:98:33:62:39:4d:e6:1e:47:bb:68:
        82:b0:1a:f8:be:69:51:fd:71:a8:5d:57:d5:ee:78:ab:04:e0:
        6b:72:df:c1:ae:09:6e:d3:66:c2:ba:4e:85:f2:02:ec:76:2c:
        48:d7:17:98
-----BEGIN CERTIFICATE-----
MIID4zCCAsugAwIBAgIUZcwL6XS3RdDZx+8gtfdFJCNGLSgwDQYJKoZIhvcNAQEF
BQAwOTELMAkGA1UEBhMCQVUxFzAVBgNVBAoMDkRvZGd5IEJyb3RoZXJzMREwDwYD
VQQDDAhEb2RneSBDQTAeFw0yNDA5MTkyMzU4MThaFw0yNTA5MTkyMzU4MThaMFcx
CzAJBgNVBAYTAkFVMRcwFQYDVQQKDA5Eb2RneSBCcm90aGVyczESMBAGA1UEAwwJ
QnJvdGhlciAxMRswGQYDVQQDDBJsYXN0dXBkYXRlX2ludmFsaWQwggEiMA0GCSqG
SIb3DQEBAQUAA4IBDwAwggEKAoIBAQC+lYb6cUxq6lGYUEuZoSxmFfNg8+H/afvO
SAEd/uEsOLDjvY9LSKd+OsZz46u/4dpulvX+w+S0qK28VjTUliV0J8MQ2zUQJRyO
S4Gb+0IEfG894jhsDuQujioYbTDNZyojazfPBZ/Mt1lYf7rECj+MpK3LmJzA8o9p
Zw/BTjPP/IVeu17Pk7DP2fRSeYex+E0VaGXVtxkIY39esTStBY9a8OThjyXyXFxh
lbBWLTErCGV55bE7nT65UkusXcRYZoWNgbMEKPQ/L6ySAWLV/Y4L2gIMesduCRys
HLJM11S4JjOyXxTzsfk9Yk1AmWu254lYl9bUTepLaFLzPKixNYjbAgMBAAGjgcQw
gcEwHQYDVR0OBBYEFKHfM8PPPlNBp2hEzKoZ4YTJDbzGMHQGA1UdIwRtMGuAFLQR
M/HX4l73U54gIhBPhga/H8leoT2kOzA5MQswCQYDVQQGEwJBVTEXMBUGA1UECgwO
RG9kZ3kgQnJvdGhlcnMxETAPBgNVBAMMCERvZGd5IENBghQwlscKqO4YeMGXztlj
7qZUdFqG8TASBgNVHRMBAf8ECDAGAQH/AgEBMAsGA1UdDwQEAwIBBjAJBgNVHRIE
AjAAMA0GCSqGSIb3DQEBBQUAA4IBAQBYpujerbWEXHXtr4jeGec9GghB5TJ7N1pZ
UJZ/w5+tvoFjrzFrJrBkXeHsIfYkgBZTD5ANQu2aigI/qSNVjGQ/c2OTLGD3NGBA
gvJBf1j3/U10/Xv4CmR9h8THA9Y+nMhxkTm03BcbXt4U0EUrWPh5BCEv1vAlVphn
Mz3M35OyiB6Awqld2pDjt9v0EpdqJQi3wyx4WJck6CmUmopmn52aVKSJZqUvqPLd
eEQi8tItzLqhy1e42u0AhhnzW13VX90GNvIi0H+7itMGJ0nL75gzYjlN5h5Hu2iC
sBr4vmlR/XGoXVfV7nirBOBrct/Brglu02bCuk6F8gLsdixI1xeY
-----END CERTIFICATE-----
