Certificate:
    Data:
        Version: 3 (0x2)
        Serial Number:
            65:cc:0b:e9:74:b7:45:d0:d9:c7:ef:20:b5:f7:45:24:23:46:2d:29
        Signature Algorithm: sha1WithRSAEncryption
        Issuer: C=AU, O=Dodgy Brothers, CN=Dodgy CA
        Validity
            Not Before: Sep 19 23:58:18 2024 GMT
            Not After : Sep 19 23:58:18 2025 GMT
        Subject: C=AU, O=Dodgy Brothers, CN=Brother 1, CN=lastupdate_utctime
        Subject Public Key Info:
            Public Key Algorithm: rsaEncryption
                Public-Key: (2048 bit)
                Modulus:
                    00:be:95:86:fa:71:4c:6a:ea:51:98:50:4b:99:a1:
                    2c:66:15:f3:60:f3:e1:ff:69:fb:ce:48:01:1d:fe:
                    e1:2c:38:b0:e3:bd:8f:4b:48:a7:7e:3a:c6:73:e3:
                    ab:bf:e1:da:6e:96:f5:fe:c3:e4:b4:a8:ad:bc:56:
                    34:d4:96:25:74:27:c3:10:db:35:10:25:1c:8e:4b:
                    81:9b:fb:42:04:7c:6f:3d:e2:38:6c:0e:e4:2e:8e:
                    2a:18:6d:30:cd:67:2a:23:6b:37:cf:05:9f:cc:b7:
                    59:58:7f:ba:c4:0a:3f:8c:a4:ad:cb:98:9c:c0:f2:
                    8f:69:67:0f:c1:4e:33:cf:fc:85:5e:bb:5e:cf:93:
                    b0:cf:d9:f4:52:79:87:b1:f8:4d:15:68:65:d5:b7:
                    19:08:63:7f:5e:b1:34:ad:05:8f:5a:f0:e4:e1:8f:
                    25:f2:5c:5c:61:95:b0:56:2d:31:2b:08:65:79:e5:
                    b1:3b:9d:3e:b9:52:4b:ac:5d:c4:58:66:85:8d:81:
                    b3:04:28:f4:3f:2f:ac:92:01:62:d5:fd:8e:0b:da:
                    02:0c:7a:c7:6e:09:1c:ac:1c:b2:4c:d7:54:b8:26:
                    33:b2:5f:14:f3:b1:f9:3d:62:4d:40:99:6b:b6:e7:
                    89:58:97:d6:d4:4d:ea:4b:68:52:f3:3c:a8:b1:35:
                    88:db
                Exponent: 65537 (0x10001)
        X509v3 extensions:
            X509v3 Subject Key Identifier: 
                A1:DF:33:C3:CF:3E:53:41:A7:68:44:CC:AA:19:E1:84:C9:0D:BC:C6
            X509v3 Authority Key Identifier: 
                keyid:B4:11:33:F1:D7:E2:5E:F7:53:9E:20:22:10:4F:86:06:BF:1F:C9:5E
                DirName:/C=AU/O=Dodgy Brothers/CN=Dodgy CA
                serial:30:96:C7:0A:A8:EE:18:78:C1:97:CE:D9:63:EE:A6:54:74:5A:86:F1
            X509v3 Basic Constraints: critical
                CA:TRUE, pathlen:1
            X509v3 Key Usage: 
                Certificate Sign, CRL Sign
            X509v3 Issuer Alternative Name: 
                <EMPTY>

    Signature Algorithm: sha1WithRSAEncryption
    Signature Value:
        7b:37:b3:a9:b7:e8:1e:b7:cc:0f:62:25:17:4a:e0:5c:91:e5:
        8e:1e:7f:4c:32:21:a9:14:60:5d:09:98:00:98:eb:23:8a:59:
        4e:d2:30:69:6e:a7:7f:c7:3a:88:1a:c7:95:37:2c:c1:4b:d0:
        4f:c4:ab:0c:42:17:ee:72:98:08:4d:22:b1:df:95:55:81:93:
        54:dc:e6:69:18:03:a8:f8:a6:94:88:22:30:ad:c7:f4:aa:a2:
        23:2e:c6:62:a5:4a:fd:1e:a2:64:a2:b5:30:94:c9:4a:ec:82:
        99:b9:6e:2e:9e:01:5c:48:c7:cf:ec:ae:7c:fa:78:7c:dd:77:
        a7:42:23:05:3c:03:17:d6:d7:18:6f:79:4e:89:db:3f:c4:69:
        91:8f:54:b1:51:6b:a1:35:39:66:38:99:f7:67:10:64:2a:6b:
        46:7b:63:79:6f:41:05:94:8b:56:d8:ec:59:75:19:95:5c:ed:
        81:3a:d0:bd:1c:3f:41:de:f7:38:e1:fa:cb:22:01:5b:a9:83:
        e7:83:fa:8d:c1:55:a4:68:45:5e:51:96:df:29:e5:5b:5b:72:
        79:e2:95:e9:fa:7d:21:1d:aa:7a:fd:ce:c7:0d:45:57:19:0f:
        b0:d1:3b:4e:11:6e:6a:eb:06:c1:46:49:7c:78:3c:fc:7d:94:
        d5:3d:a9:c2
-----BEGIN CERTIFICATE-----
MIID4zCCAsugAwIBAgIUZcwL6XS3RdDZx+8gtfdFJCNGLSkwDQYJKoZIhvcNAQEF
BQAwOTELMAkGA1UEBhMCQVUxFzAVBgNVBAoMDkRvZGd5IEJyb3RoZXJzMREwDwYD
VQQDDAhEb2RneSBDQTAeFw0yNDA5MTkyMzU4MThaFw0yNTA5MTkyMzU4MThaMFcx
CzAJBgNVBAYTAkFVMRcwFQYDVQQKDA5Eb2RneSBCcm90aGVyczESMBAGA1UEAwwJ
QnJvdGhlciAxMRswGQYDVQQDDBJsYXN0dXBkYXRlX3V0Y3RpbWUwggEiMA0GCSqG
SIb3DQEBAQUAA4IBDwAwggEKAoIBAQC+lYb6cUxq6lGYUEuZoSxmFfNg8+H/afvO
SAEd/uEsOLDjvY9LSKd+OsZz46u/4dpulvX+w+S0qK28VjTUliV0J8MQ2zUQJRyO
S4Gb+0IEfG894jhsDuQujioYbTDNZyojazfPBZ/Mt1lYf7rECj+MpK3LmJzA8o9p
Zw/BTjPP/IVeu17Pk7DP2fRSeYex+E0VaGXVtxkIY39esTStBY9a8OThjyXyXFxh
lbBWLTErCGV55bE7nT65UkusXcRYZoWNgbMEKPQ/L6ySAWLV/Y4L2gIMesduCRys
HLJM11S4JjOyXxTzsfk9Yk1AmWu254lYl9bUTepLaFLzPKixNYjbAgMBAAGjgcQw
gcEwHQYDVR0OBBYEFKHfM8PPPlNBp2hEzKoZ4YTJDbzGMHQGA1UdIwRtMGuAFLQR
M/HX4l73U54gIhBPhga/H8leoT2kOzA5MQswCQYDVQQGEwJBVTEXMBUGA1UECgwO
RG9kZ3kgQnJvdGhlcnMxETAPBgNVBAMMCERvZGd5IENBghQwlscKqO4YeMGXztlj
7qZUdFqG8TASBgNVHRMBAf8ECDAGAQH/AgEBMAsGA1UdDwQEAwIBBjAJBgNVHRIE
AjAAMA0GCSqGSIb3DQEBBQUAA4IBAQB7N7Opt+get8wPYiUXSuBckeWOHn9MMiGp
FGBdCZgAmOsjillO0jBpbqd/xzqIGseVNyzBS9BPxKsMQhfucpgITSKx35VVgZNU
3OZpGAOo+KaUiCIwrcf0qqIjLsZipUr9HqJkorUwlMlK7IKZuW4ungFcSMfP7K58
+nh83XenQiMFPAMX1tcYb3lOids/xGmRj1SxUWuhNTlmOJn3ZxBkKmtGe2N5b0EF
lItW2OxZdRmVXO2BOtC9HD9B3vc44frLIgFbqYPng/qNwVWkaEVeUZbfKeVbW3J5
4pXp+n0hHap6/c7HDUVXGQ+w0TtOEW5q6wbBRkl8eDz8fZTVPanC
-----END CERTIFICATE-----
