Certificate:
    Data:
        Version: 3 (0x2)
        Serial Number:
            59:69:af:84:7e:66:14:d8:46:e9:d2:53:2a:9a:7a:b7:65:0d:29:94
        Signature Algorithm: sha1WithRSAEncryption
        Issuer: C=AU, O=Dodgy Brothers, CN=Dodgy CA
        Validity
            Not Before: Sep 11 01:11:16 2024 GMT
            Not After : Sep 11 01:11:16 2025 GMT
        Subject: C=AU, O=Dodgy Brothers, CN=Brother 1, CN=lastupdate_generalizedtime
        Subject Public Key Info:
            Public Key Algorithm: rsaEncryption
                Public-Key: (2048 bit)
                Modulus:
                    00:be:95:86:fa:71:4c:6a:ea:51:98:50:4b:99:a1:
                    2c:66:15:f3:60:f3:e1:ff:69:fb:ce:48:01:1d:fe:
                    e1:2c:38:b0:e3:bd:8f:4b:48:a7:7e:3a:c6:73:e3:
                    ab:bf:e1:da:6e:96:f5:fe:c3:e4:b4:a8:ad:bc:56:
                    34:d4:96:25:74:27:c3:10:db:35:10:25:1c:8e:4b:
                    81:9b:fb:42:04:7c:6f:3d:e2:38:6c:0e:e4:2e:8e:
                    2a:18:6d:30:cd:67:2a:23:6b:37:cf:05:9f:cc:b7:
                    59:58:7f:ba:c4:0a:3f:8c:a4:ad:cb:98:9c:c0:f2:
                    8f:69:67:0f:c1:4e:33:cf:fc:85:5e:bb:5e:cf:93:
                    b0:cf:d9:f4:52:79:87:b1:f8:4d:15:68:65:d5:b7:
                    19:08:63:7f:5e:b1:34:ad:05:8f:5a:f0:e4:e1:8f:
                    25:f2:5c:5c:61:95:b0:56:2d:31:2b:08:65:79:e5:
                    b1:3b:9d:3e:b9:52:4b:ac:5d:c4:58:66:85:8d:81:
                    b3:04:28:f4:3f:2f:ac:92:01:62:d5:fd:8e:0b:da:
                    02:0c:7a:c7:6e:09:1c:ac:1c:b2:4c:d7:54:b8:26:
                    33:b2:5f:14:f3:b1:f9:3d:62:4d:40:99:6b:b6:e7:
                    89:58:97:d6:d4:4d:ea:4b:68:52:f3:3c:a8:b1:35:
                    88:db
                Exponent: 65537 (0x10001)
        X509v3 extensions:
            X509v3 Subject Key Identifier: 
                A1:DF:33:C3:CF:3E:53:41:A7:68:44:CC:AA:19:E1:84:C9:0D:BC:C6
            X509v3 Authority Key Identifier: 
                keyid:B4:11:33:F1:D7:E2:5E:F7:53:9E:20:22:10:4F:86:06:BF:1F:C9:5E
                DirName:/C=AU/O=Dodgy Brothers/CN=Dodgy CA
                serial:36:5D:75:35:1E:45:10:A3:8C:19:FC:86:AF:6C:C7:53:22:FE:2E:37
            X509v3 Basic Constraints: critical
                CA:TRUE, pathlen:1
            X509v3 Key Usage: 
                Certificate Sign, CRL Sign
            X509v3 Issuer Alternative Name: 
                <EMPTY>

    Signature Algorithm: sha1WithRSAEncryption
    Signature Value:
        24:e8:00:3f:93:23:95:8f:56:8c:93:ea:8a:49:33:9d:b0:a2:
        ea:8b:f6:ab:e7:fb:92:b3:43:bf:f1:2d:6f:08:0c:46:2e:27:
        2f:bd:33:16:25:da:38:3a:5d:02:74:1d:83:dd:b3:e9:85:ca:
        2a:a6:72:88:7a:c7:54:6b:08:7a:00:e5:b4:3f:19:8e:65:4f:
        36:cb:67:d2:cd:87:83:fc:15:34:3a:ab:2b:5e:47:c6:56:c8:
        ae:a7:67:28:c4:28:d1:aa:10:37:a0:59:a4:be:81:1f:32:e7:
        14:10:12:ac:1e:cc:e5:1e:c6:65:f1:ad:43:dd:00:fd:79:e5:
        77:28:27:f5:4f:cb:6b:ed:88:bf:e7:9d:bc:ed:70:4b:3a:7a:
        2b:6a:ca:35:b7:98:c9:a2:df:6b:4f:82:31:12:59:fa:75:d9:
        44:ea:34:15:a2:5d:95:25:aa:ae:93:08:bd:ab:2d:73:04:40:
        e2:17:8a:3b:3d:38:93:66:bd:4a:49:09:3f:e1:92:0e:06:00:
        67:13:21:53:07:1d:6e:67:bc:5f:f9:fe:29:7f:b4:2a:5a:49:
        c1:fd:ea:7f:2f:e9:56:06:e7:07:c6:8f:d9:e9:c7:fa:cf:0f:
        bf:52:d2:31:1b:59:34:10:c7:7a:c5:94:d6:49:e0:54:63:d7:
        b1:25:39:8a
-----BEGIN CERTIFICATE-----
MIID6zCCAtOgAwIBAgIUWWmvhH5mFNhG6dJTKpp6t2UNKZQwDQYJKoZIhvcNAQEF
BQAwOTELMAkGA1UEBhMCQVUxFzAVBgNVBAoMDkRvZGd5IEJyb3RoZXJzMREwDwYD
VQQDDAhEb2RneSBDQTAeFw0yNDA5MTEwMTExMTZaFw0yNTA5MTEwMTExMTZaMF8x
CzAJBgNVBAYTAkFVMRcwFQYDVQQKDA5Eb2RneSBCcm90aGVyczESMBAGA1UEAwwJ
QnJvdGhlciAxMSMwIQYDVQQDDBpsYXN0dXBkYXRlX2dlbmVyYWxpemVkdGltZTCC
ASIwDQYJKoZIhvcNAQEBBQADggEPADCCAQoCggEBAL6VhvpxTGrqUZhQS5mhLGYV
82Dz4f9p+85IAR3+4Sw4sOO9j0tIp346xnPjq7/h2m6W9f7D5LSorbxWNNSWJXQn
wxDbNRAlHI5LgZv7QgR8bz3iOGwO5C6OKhhtMM1nKiNrN88Fn8y3WVh/usQKP4yk
rcuYnMDyj2lnD8FOM8/8hV67Xs+TsM/Z9FJ5h7H4TRVoZdW3GQhjf16xNK0Fj1rw
5OGPJfJcXGGVsFYtMSsIZXnlsTudPrlSS6xdxFhmhY2BswQo9D8vrJIBYtX9jgva
Agx6x24JHKwcskzXVLgmM7JfFPOx+T1iTUCZa7bniViX1tRN6ktoUvM8qLE1iNsC
AwEAAaOBxDCBwTAdBgNVHQ4EFgQUod8zw88+U0GnaETMqhnhhMkNvMYwdAYDVR0j
BG0wa4AUtBEz8dfiXvdTniAiEE+GBr8fyV6hPaQ7MDkxCzAJBgNVBAYTAkFVMRcw
FQYDVQQKDA5Eb2RneSBCcm90aGVyczERMA8GA1UEAwwIRG9kZ3kgQ0GCFDZddTUe
RRCjjBn8hq9sx1Mi/i43MBIGA1UdEwEB/wQIMAYBAf8CAQEwCwYDVR0PBAQDAgEG
MAkGA1UdEgQCMAAwDQYJKoZIhvcNAQEFBQADggEBACToAD+TI5WPVoyT6opJM52w
ouqL9qvn+5KzQ7/xLW8IDEYuJy+9MxYl2jg6XQJ0HYPds+mFyiqmcoh6x1RrCHoA
5bQ/GY5lTzbLZ9LNh4P8FTQ6qyteR8ZWyK6nZyjEKNGqEDegWaS+gR8y5xQQEqwe
zOUexmXxrUPdAP155XcoJ/VPy2vtiL/nnbztcEs6eitqyjW3mMmi32tPgjESWfp1
2UTqNBWiXZUlqq6TCL2rLXMEQOIXijs9OJNmvUpJCT/hkg4GAGcTIVMHHW5nvF/5
/il/tCpaScH96n8v6VYG5wfGj9npx/rPD79S0jEbWTQQx3rFlNZJ4FRj17ElOYo=
-----END CERTIFICATE-----
