Certificate:
    Data:
        Version: 3 (0x2)
        Serial Number:
            59:69:af:84:7e:66:14:d8:46:e9:d2:53:2a:9a:7a:b7:65:0d:29:93
        Signature Algorithm: sha1WithRSAEncryption
        Issuer: C=AU, O=Dodgy Brothers, CN=Dodgy CA
        Validity
            Not Before: Sep 11 01:11:16 2024 GMT
            Not After : Sep 11 01:11:16 2025 GMT
        Subject: C=AU, O=Dodgy Brothers, CN=Brother 1, CN=lastupdate_utctime
        Subject Public Key Info:
            Public Key Algorithm: rsaEncryption
                Public-Key: (2048 bit)
                Modulus:
                    00:be:95:86:fa:71:4c:6a:ea:51:98:50:4b:99:a1:
                    2c:66:15:f3:60:f3:e1:ff:69:fb:ce:48:01:1d:fe:
                    e1:2c:38:b0:e3:bd:8f:4b:48:a7:7e:3a:c6:73:e3:
                    ab:bf:e1:da:6e:96:f5:fe:c3:e4:b4:a8:ad:bc:56:
                    34:d4:96:25:74:27:c3:10:db:35:10:25:1c:8e:4b:
                    81:9b:fb:42:04:7c:6f:3d:e2:38:6c:0e:e4:2e:8e:
                    2a:18:6d:30:cd:67:2a:23:6b:37:cf:05:9f:cc:b7:
                    59:58:7f:ba:c4:0a:3f:8c:a4:ad:cb:98:9c:c0:f2:
                    8f:69:67:0f:c1:4e:33:cf:fc:85:5e:bb:5e:cf:93:
                    b0:cf:d9:f4:52:79:87:b1:f8:4d:15:68:65:d5:b7:
                    19:08:63:7f:5e:b1:34:ad:05:8f:5a:f0:e4:e1:8f:
                    25:f2:5c:5c:61:95:b0:56:2d:31:2b:08:65:79:e5:
                    b1:3b:9d:3e:b9:52:4b:ac:5d:c4:58:66:85:8d:81:
                    b3:04:28:f4:3f:2f:ac:92:01:62:d5:fd:8e:0b:da:
                    02:0c:7a:c7:6e:09:1c:ac:1c:b2:4c:d7:54:b8:26:
                    33:b2:5f:14:f3:b1:f9:3d:62:4d:40:99:6b:b6:e7:
                    89:58:97:d6:d4:4d:ea:4b:68:52:f3:3c:a8:b1:35:
                    88:db
                Exponent: 65537 (0x10001)
        X509v3 extensions:
            X509v3 Subject Key Identifier: 
                A1:DF:33:C3:CF:3E:53:41:A7:68:44:CC:AA:19:E1:84:C9:0D:BC:C6
            X509v3 Authority Key Identifier: 
                keyid:B4:11:33:F1:D7:E2:5E:F7:53:9E:20:22:10:4F:86:06:BF:1F:C9:5E
                DirName:/C=AU/O=Dodgy Brothers/CN=Dodgy CA
                serial:36:5D:75:35:1E:45:10:A3:8C:19:FC:86:AF:6C:C7:53:22:FE:2E:37
            X509v3 Basic Constraints: critical
                CA:TRUE, pathlen:1
            X509v3 Key Usage: 
                Certificate Sign, CRL Sign
            X509v3 Issuer Alternative Name: 
                <EMPTY>

    Signature Algorithm: sha1WithRSAEncryption
    Signature Value:
        53:8f:39:64:8b:22:cd:34:cb:f0:84:05:2f:ef:55:26:e9:d9:
        fa:b4:d0:21:b3:12:49:38:1d:88:42:b2:96:b2:42:d4:f7:e3:
        7f:5c:e8:1d:62:3b:e0:fd:8f:2e:62:0d:f2:43:e3:88:44:ea:
        e5:04:c0:ac:f1:2c:6c:88:c7:e2:b5:2b:04:c3:d8:de:df:cf:
        38:b2:93:a2:2b:5c:b1:15:d8:49:7d:25:70:b3:1b:15:ed:24:
        04:03:ad:84:b7:5e:2e:63:9f:c5:8b:29:a1:e2:48:f9:61:6a:
        55:ae:a6:c0:a7:af:7e:dd:be:b7:01:81:88:9a:6b:48:5b:69:
        7a:7f:1a:2b:69:9c:32:87:5b:14:6a:ac:4d:ee:65:75:ce:1e:
        15:6c:ba:11:9f:04:97:d8:da:71:eb:3d:45:b8:f8:54:91:69:
        73:e3:43:14:6f:d7:6c:4b:39:3c:59:99:0c:c0:ec:9a:03:b4:
        34:6b:50:27:4d:68:22:04:1e:cc:da:3c:4f:ed:e5:ee:3c:58:
        c5:9b:5d:b3:47:23:24:f6:02:67:97:9d:57:85:d3:2e:18:db:
        17:2f:b5:b0:10:a2:96:92:4b:b8:e2:d6:f3:f2:03:5d:aa:46:
        74:7a:91:24:33:89:c3:38:c5:7f:a1:8a:51:c4:92:b7:ef:4a:
        71:5f:5a:ff
-----BEGIN CERTIFICATE-----
MIID4zCCAsugAwIBAgIUWWmvhH5mFNhG6dJTKpp6t2UNKZMwDQYJKoZIhvcNAQEF
BQAwOTELMAkGA1UEBhMCQVUxFzAVBgNVBAoMDkRvZGd5IEJyb3RoZXJzMREwDwYD
VQQDDAhEb2RneSBDQTAeFw0yNDA5MTEwMTExMTZaFw0yNTA5MTEwMTExMTZaMFcx
CzAJBgNVBAYTAkFVMRcwFQYDVQQKDA5Eb2RneSBCcm90aGVyczESMBAGA1UEAwwJ
QnJvdGhlciAxMRswGQYDVQQDDBJsYXN0dXBkYXRlX3V0Y3RpbWUwggEiMA0GCSqG
SIb3DQEBAQUAA4IBDwAwggEKAoIBAQC+lYb6cUxq6lGYUEuZoSxmFfNg8+H/afvO
SAEd/uEsOLDjvY9LSKd+OsZz46u/4dpulvX+w+S0qK28VjTUliV0J8MQ2zUQJRyO
S4Gb+0IEfG894jhsDuQujioYbTDNZyojazfPBZ/Mt1lYf7rECj+MpK3LmJzA8o9p
Zw/BTjPP/IVeu17Pk7DP2fRSeYex+E0VaGXVtxkIY39esTStBY9a8OThjyXyXFxh
lbBWLTErCGV55bE7nT65UkusXcRYZoWNgbMEKPQ/L6ySAWLV/Y4L2gIMesduCRys
HLJM11S4JjOyXxTzsfk9Yk1AmWu254lYl9bUTepLaFLzPKixNYjbAgMBAAGjgcQw
gcEwHQYDVR0OBBYEFKHfM8PPPlNBp2hEzKoZ4YTJDbzGMHQGA1UdIwRtMGuAFLQR
M/HX4l73U54gIhBPhga/H8leoT2kOzA5MQswCQYDVQQGEwJBVTEXMBUGA1UECgwO
RG9kZ3kgQnJvdGhlcnMxETAPBgNVBAMMCERvZGd5IENBghQ2XXU1HkUQo4wZ/Iav
bMdTIv4uNzASBgNVHRMBAf8ECDAGAQH/AgEBMAsGA1UdDwQEAwIBBjAJBgNVHRIE
AjAAMA0GCSqGSIb3DQEBBQUAA4IBAQBTjzlkiyLNNMvwhAUv71Um6dn6tNAhsxJJ
OB2IQrKWskLU9+N/XOgdYjvg/Y8uYg3yQ+OIROrlBMCs8SxsiMfitSsEw9je3884
spOiK1yxFdhJfSVwsxsV7SQEA62Et14uY5/Fiymh4kj5YWpVrqbAp69+3b63AYGI
mmtIW2l6fxoraZwyh1sUaqxN7mV1zh4VbLoRnwSX2Npx6z1FuPhUkWlz40MUb9ds
Szk8WZkMwOyaA7Q0a1AnTWgiBB7M2jxP7eXuPFjFm12zRyMk9gJnl51XhdMuGNsX
L7WwEKKWkku44tbz8gNdqkZ0epEkM4nDOMV/oYpRxJK370pxX1r/
-----END CERTIFICATE-----
