Certificate:
    Data:
        Version: 3 (0x2)
        Serial Number:
            6f:1e:9a:03:72:dd:db:48:cd:c2:2a:1b:24:6b:8d:92:c2:10:75:d5
        Signature Algorithm: sha1WithRSAEncryption
        Issuer: C=AU, O=Dodgy Brothers, CN=Dodgy CA
        Validity
            Not Before: Aug 12 00:44:59 2024 GMT
            Not After : Aug 12 00:44:59 2025 GMT
        Subject: C=AU, O=Dodgy Brothers, CN=Brother 1, CN=lastupdate_generalizedtime
        Subject Public Key Info:
            Public Key Algorithm: rsaEncryption
                Public-Key: (2048 bit)
                Modulus:
                    00:be:95:86:fa:71:4c:6a:ea:51:98:50:4b:99:a1:
                    2c:66:15:f3:60:f3:e1:ff:69:fb:ce:48:01:1d:fe:
                    e1:2c:38:b0:e3:bd:8f:4b:48:a7:7e:3a:c6:73:e3:
                    ab:bf:e1:da:6e:96:f5:fe:c3:e4:b4:a8:ad:bc:56:
                    34:d4:96:25:74:27:c3:10:db:35:10:25:1c:8e:4b:
                    81:9b:fb:42:04:7c:6f:3d:e2:38:6c:0e:e4:2e:8e:
                    2a:18:6d:30:cd:67:2a:23:6b:37:cf:05:9f:cc:b7:
                    59:58:7f:ba:c4:0a:3f:8c:a4:ad:cb:98:9c:c0:f2:
                    8f:69:67:0f:c1:4e:33:cf:fc:85:5e:bb:5e:cf:93:
                    b0:cf:d9:f4:52:79:87:b1:f8:4d:15:68:65:d5:b7:
                    19:08:63:7f:5e:b1:34:ad:05:8f:5a:f0:e4:e1:8f:
                    25:f2:5c:5c:61:95:b0:56:2d:31:2b:08:65:79:e5:
                    b1:3b:9d:3e:b9:52:4b:ac:5d:c4:58:66:85:8d:81:
                    b3:04:28:f4:3f:2f:ac:92:01:62:d5:fd:8e:0b:da:
                    02:0c:7a:c7:6e:09:1c:ac:1c:b2:4c:d7:54:b8:26:
                    33:b2:5f:14:f3:b1:f9:3d:62:4d:40:99:6b:b6:e7:
                    89:58:97:d6:d4:4d:ea:4b:68:52:f3:3c:a8:b1:35:
                    88:db
                Exponent: 65537 (0x10001)
        X509v3 extensions:
            X509v3 Subject Key Identifier: 
                A1:DF:33:C3:CF:3E:53:41:A7:68:44:CC:AA:19:E1:84:C9:0D:BC:C6
            X509v3 Authority Key Identifier: 
                keyid:B4:11:33:F1:D7:E2:5E:F7:53:9E:20:22:10:4F:86:06:BF:1F:C9:5E
                DirName:/C=AU/O=Dodgy Brothers/CN=Dodgy CA
                serial:72:BD:08:50:B3:F6:1E:9B:52:7A:8B:4A:46:D3:12:9A:51:77:66:FB
            X509v3 Basic Constraints: critical
                CA:TRUE, pathlen:1
            X509v3 Key Usage: 
                Certificate Sign, CRL Sign
            X509v3 Issuer Alternative Name: 
                <EMPTY>

    Signature Algorithm: sha1WithRSAEncryption
    Signature Value:
        1c:eb:63:50:93:a8:69:b7:5a:7d:71:b9:bd:ce:30:45:ff:b7:
        c1:40:88:f8:5f:87:87:08:51:d6:b1:90:40:0f:ca:b3:04:57:
        62:a4:de:3d:02:69:55:f6:fe:4d:8f:5c:ba:47:37:1a:11:fd:
        ff:06:80:91:97:69:58:65:2b:af:22:c9:7c:71:77:b4:5b:0c:
        b4:2e:9a:74:d1:68:60:a1:d1:af:0a:60:91:0a:9d:56:a2:c5:
        3d:2b:4d:81:de:19:f6:f2:5e:9f:d8:09:60:48:13:f8:55:59:
        3a:bf:b0:25:9d:c7:6a:83:1d:e8:d7:19:d9:a7:8d:4c:8d:3f:
        07:0d:de:02:00:e2:21:9e:16:ce:43:eb:bf:b7:0e:e3:9a:49:
        2f:5a:fe:0f:c3:46:7b:47:89:ea:ca:ec:71:d2:a4:c7:89:c6:
        df:85:b4:90:a9:31:de:f3:58:96:0a:f9:cd:c5:da:08:85:05:
        0a:fc:92:ca:78:8c:6f:24:16:71:f2:3f:e2:9d:5e:0b:6f:ee:
        59:2e:d0:90:56:20:29:93:81:36:42:9f:f6:ad:28:1b:6e:71:
        0c:d6:88:3d:06:cd:07:3d:57:09:93:ae:3c:6b:d1:90:ac:1b:
        ea:6e:53:6c:29:c2:fd:a3:cd:c8:b1:48:4d:57:0a:6b:24:d2:
        55:bb:c1:0c
-----BEGIN CERTIFICATE-----
MIID6zCCAtOgAwIBAgIUbx6aA3Ld20jNwiobJGuNksIQddUwDQYJKoZIhvcNAQEF
BQAwOTELMAkGA1UEBhMCQVUxFzAVBgNVBAoMDkRvZGd5IEJyb3RoZXJzMREwDwYD
VQQDDAhEb2RneSBDQTAeFw0yNDA4MTIwMDQ0NTlaFw0yNTA4MTIwMDQ0NTlaMF8x
CzAJBgNVBAYTAkFVMRcwFQYDVQQKDA5Eb2RneSBCcm90aGVyczESMBAGA1UEAwwJ
QnJvdGhlciAxMSMwIQYDVQQDDBpsYXN0dXBkYXRlX2dlbmVyYWxpemVkdGltZTCC
ASIwDQYJKoZIhvcNAQEBBQADggEPADCCAQoCggEBAL6VhvpxTGrqUZhQS5mhLGYV
82Dz4f9p+85IAR3+4Sw4sOO9j0tIp346xnPjq7/h2m6W9f7D5LSorbxWNNSWJXQn
wxDbNRAlHI5LgZv7QgR8bz3iOGwO5C6OKhhtMM1nKiNrN88Fn8y3WVh/usQKP4yk
rcuYnMDyj2lnD8FOM8/8hV67Xs+TsM/Z9FJ5h7H4TRVoZdW3GQhjf16xNK0Fj1rw
5OGPJfJcXGGVsFYtMSsIZXnlsTudPrlSS6xdxFhmhY2BswQo9D8vrJIBYtX9jgva
Agx6x24JHKwcskzXVLgmM7JfFPOx+T1iTUCZa7bniViX1tRN6ktoUvM8qLE1iNsC
AwEAAaOBxDCBwTAdBgNVHQ4EFgQUod8zw88+U0GnaETMqhnhhMkNvMYwdAYDVR0j
BG0wa4AUtBEz8dfiXvdTniAiEE+GBr8fyV6hPaQ7MDkxCzAJBgNVBAYTAkFVMRcw
FQYDVQQKDA5Eb2RneSBCcm90aGVyczERMA8GA1UEAwwIRG9kZ3kgQ0GCFHK9CFCz
9h6bUnqLSkbTEppRd2b7MBIGA1UdEwEB/wQIMAYBAf8CAQEwCwYDVR0PBAQDAgEG
MAkGA1UdEgQCMAAwDQYJKoZIhvcNAQEFBQADggEBABzrY1CTqGm3Wn1xub3OMEX/
t8FAiPhfh4cIUdaxkEAPyrMEV2Kk3j0CaVX2/k2PXLpHNxoR/f8GgJGXaVhlK68i
yXxxd7RbDLQumnTRaGCh0a8KYJEKnVaixT0rTYHeGfbyXp/YCWBIE/hVWTq/sCWd
x2qDHejXGdmnjUyNPwcN3gIA4iGeFs5D67+3DuOaSS9a/g/DRntHierK7HHSpMeJ
xt+FtJCpMd7zWJYK+c3F2giFBQr8ksp4jG8kFnHyP+KdXgtv7lku0JBWICmTgTZC
n/atKBtucQzWiD0GzQc9VwmTrjxr0ZCsG+puU2wpwv2jzcixSE1XCmsk0lW7wQw=
-----END CERTIFICATE-----
