Certificate:
    Data:
        Version: 3 (0x2)
        Serial Number:
            59:69:af:84:7e:66:14:d8:46:e9:d2:53:2a:9a:7a:b7:65:0d:29:95
        Signature Algorithm: sha1WithRSAEncryption
        Issuer: C=AU, O=Dodgy Brothers, CN=Dodgy CA
        Validity
            Not Before: Sep 11 01:11:16 2024 GMT
            Not After : Sep 11 01:11:16 2025 GMT
        Subject: C=AU, O=Dodgy Brothers, CN=Brother 1, CN=nextupdate_invalid
        Subject Public Key Info:
            Public Key Algorithm: rsaEncryption
                Public-Key: (2048 bit)
                Modulus:
                    00:be:95:86:fa:71:4c:6a:ea:51:98:50:4b:99:a1:
                    2c:66:15:f3:60:f3:e1:ff:69:fb:ce:48:01:1d:fe:
                    e1:2c:38:b0:e3:bd:8f:4b:48:a7:7e:3a:c6:73:e3:
                    ab:bf:e1:da:6e:96:f5:fe:c3:e4:b4:a8:ad:bc:56:
                    34:d4:96:25:74:27:c3:10:db:35:10:25:1c:8e:4b:
                    81:9b:fb:42:04:7c:6f:3d:e2:38:6c:0e:e4:2e:8e:
                    2a:18:6d:30:cd:67:2a:23:6b:37:cf:05:9f:cc:b7:
                    59:58:7f:ba:c4:0a:3f:8c:a4:ad:cb:98:9c:c0:f2:
                    8f:69:67:0f:c1:4e:33:cf:fc:85:5e:bb:5e:cf:93:
                    b0:cf:d9:f4:52:79:87:b1:f8:4d:15:68:65:d5:b7:
                    19:08:63:7f:5e:b1:34:ad:05:8f:5a:f0:e4:e1:8f:
                    25:f2:5c:5c:61:95:b0:56:2d:31:2b:08:65:79:e5:
                    b1:3b:9d:3e:b9:52:4b:ac:5d:c4:58:66:85:8d:81:
                    b3:04:28:f4:3f:2f:ac:92:01:62:d5:fd:8e:0b:da:
                    02:0c:7a:c7:6e:09:1c:ac:1c:b2:4c:d7:54:b8:26:
                    33:b2:5f:14:f3:b1:f9:3d:62:4d:40:99:6b:b6:e7:
                    89:58:97:d6:d4:4d:ea:4b:68:52:f3:3c:a8:b1:35:
                    88:db
                Exponent: 65537 (0x10001)
        X509v3 extensions:
            X509v3 Subject Key Identifier: 
                A1:DF:33:C3:CF:3E:53:41:A7:68:44:CC:AA:19:E1:84:C9:0D:BC:C6
            X509v3 Authority Key Identifier: 
                keyid:B4:11:33:F1:D7:E2:5E:F7:53:9E:20:22:10:4F:86:06:BF:1F:C9:5E
                DirName:/C=AU/O=Dodgy Brothers/CN=Dodgy CA
                serial:36:5D:75:35:1E:45:10:A3:8C:19:FC:86:AF:6C:C7:53:22:FE:2E:37
            X509v3 Basic Constraints: critical
                CA:TRUE, pathlen:1
            X509v3 Key Usage: 
                Certificate Sign, CRL Sign
            X509v3 Issuer Alternative Name: 
                <EMPTY>

    Signature Algorithm: sha1WithRSAEncryption
    Signature Value:
        08:c9:a9:e5:0e:19:c1:10:af:14:66:d9:48:9e:3b:d8:32:ac:
        6b:63:fb:bf:4b:a3:8c:4b:11:df:bd:87:b3:ad:05:76:74:52:
        35:df:71:3a:b1:bc:1f:28:13:15:21:90:69:30:87:9e:71:70:
        8d:e1:90:a1:77:cf:12:09:d1:ad:6f:a2:dc:0c:06:6c:80:6d:
        32:9a:a3:b0:33:6a:fd:76:e5:bd:b9:53:1a:37:fd:6f:7d:b4:
        0f:0b:11:09:b9:f9:e5:82:62:54:db:ef:bd:5d:e9:f7:5e:83:
        35:7b:b7:9e:68:bc:6b:ce:c2:bc:65:8b:8f:d1:b5:5a:36:6e:
        f0:09:c1:1c:58:05:0e:8a:39:89:e1:dd:c2:c8:e8:a3:78:78:
        43:59:ec:16:e8:8e:e5:50:c0:63:22:fa:dd:3c:eb:d4:e0:7f:
        2c:5f:eb:44:52:4c:a1:71:bf:4a:d4:88:f9:b5:b5:09:26:1b:
        13:fd:46:b4:df:8d:54:7a:5b:92:4e:ac:38:5e:cc:2f:9f:44:
        2a:82:d4:03:21:7e:be:b6:4c:b6:35:82:7a:b5:c1:8c:84:83:
        fe:02:a1:46:98:d9:c9:6d:0a:c0:73:96:fc:85:cd:71:40:4a:
        27:09:4e:b6:52:55:e4:0a:3d:ce:95:72:46:1a:07:d6:4b:34:
        c6:28:0c:42
-----BEGIN CERTIFICATE-----
MIID4zCCAsugAwIBAgIUWWmvhH5mFNhG6dJTKpp6t2UNKZUwDQYJKoZIhvcNAQEF
BQAwOTELMAkGA1UEBhMCQVUxFzAVBgNVBAoMDkRvZGd5IEJyb3RoZXJzMREwDwYD
VQQDDAhEb2RneSBDQTAeFw0yNDA5MTEwMTExMTZaFw0yNTA5MTEwMTExMTZaMFcx
CzAJBgNVBAYTAkFVMRcwFQYDVQQKDA5Eb2RneSBCcm90aGVyczESMBAGA1UEAwwJ
QnJvdGhlciAxMRswGQYDVQQDDBJuZXh0dXBkYXRlX2ludmFsaWQwggEiMA0GCSqG
SIb3DQEBAQUAA4IBDwAwggEKAoIBAQC+lYb6cUxq6lGYUEuZoSxmFfNg8+H/afvO
SAEd/uEsOLDjvY9LSKd+OsZz46u/4dpulvX+w+S0qK28VjTUliV0J8MQ2zUQJRyO
S4Gb+0IEfG894jhsDuQujioYbTDNZyojazfPBZ/Mt1lYf7rECj+MpK3LmJzA8o9p
Zw/BTjPP/IVeu17Pk7DP2fRSeYex+E0VaGXVtxkIY39esTStBY9a8OThjyXyXFxh
lbBWLTErCGV55bE7nT65UkusXcRYZoWNgbMEKPQ/L6ySAWLV/Y4L2gIMesduCRys
HLJM11S4JjOyXxTzsfk9Yk1AmWu254lYl9bUTepLaFLzPKixNYjbAgMBAAGjgcQw
gcEwHQYDVR0OBBYEFKHfM8PPPlNBp2hEzKoZ4YTJDbzGMHQGA1UdIwRtMGuAFLQR
M/HX4l73U54gIhBPhga/H8leoT2kOzA5MQswCQYDVQQGEwJBVTEXMBUGA1UECgwO
RG9kZ3kgQnJvdGhlcnMxETAPBgNVBAMMCERvZGd5IENBghQ2XXU1HkUQo4wZ/Iav
bMdTIv4uNzASBgNVHRMBAf8ECDAGAQH/AgEBMAsGA1UdDwQEAwIBBjAJBgNVHRIE
AjAAMA0GCSqGSIb3DQEBBQUAA4IBAQAIyanlDhnBEK8UZtlInjvYMqxrY/u/S6OM
SxHfvYezrQV2dFI133E6sbwfKBMVIZBpMIeecXCN4ZChd88SCdGtb6LcDAZsgG0y
mqOwM2r9duW9uVMaN/1vfbQPCxEJufnlgmJU2++9Xen3XoM1e7eeaLxrzsK8ZYuP
0bVaNm7wCcEcWAUOijmJ4d3CyOijeHhDWewW6I7lUMBjIvrdPOvU4H8sX+tEUkyh
cb9K1Ij5tbUJJhsT/Ua0341UeluSTqw4Xswvn0QqgtQDIX6+tky2NYJ6tcGMhIP+
AqFGmNnJbQrAc5b8hc1xQEonCU62UlXkCj3OlXJGGgfWSzTGKAxC
-----END CERTIFICATE-----
