Certificate:
    Data:
        Version: 3 (0x2)
        Serial Number:
            59:69:af:84:7e:66:14:d8:46:e9:d2:53:2a:9a:7a:b7:65:0d:29:97
        Signature Algorithm: sha1WithRSAEncryption
        Issuer: C=AU, O=Dodgy Brothers, CN=Dodgy CA
        Validity
            Not Before: Sep 11 01:11:16 2024 GMT
            Not After : Sep 11 01:11:16 2025 GMT
        Subject: C=AU, O=Dodgy Brothers, CN=Brother 1, CN=nextupdate_generalizedtime
        Subject Public Key Info:
            Public Key Algorithm: rsaEncryption
                Public-Key: (2048 bit)
                Modulus:
                    00:be:95:86:fa:71:4c:6a:ea:51:98:50:4b:99:a1:
                    2c:66:15:f3:60:f3:e1:ff:69:fb:ce:48:01:1d:fe:
                    e1:2c:38:b0:e3:bd:8f:4b:48:a7:7e:3a:c6:73:e3:
                    ab:bf:e1:da:6e:96:f5:fe:c3:e4:b4:a8:ad:bc:56:
                    34:d4:96:25:74:27:c3:10:db:35:10:25:1c:8e:4b:
                    81:9b:fb:42:04:7c:6f:3d:e2:38:6c:0e:e4:2e:8e:
                    2a:18:6d:30:cd:67:2a:23:6b:37:cf:05:9f:cc:b7:
                    59:58:7f:ba:c4:0a:3f:8c:a4:ad:cb:98:9c:c0:f2:
                    8f:69:67:0f:c1:4e:33:cf:fc:85:5e:bb:5e:cf:93:
                    b0:cf:d9:f4:52:79:87:b1:f8:4d:15:68:65:d5:b7:
                    19:08:63:7f:5e:b1:34:ad:05:8f:5a:f0:e4:e1:8f:
                    25:f2:5c:5c:61:95:b0:56:2d:31:2b:08:65:79:e5:
                    b1:3b:9d:3e:b9:52:4b:ac:5d:c4:58:66:85:8d:81:
                    b3:04:28:f4:3f:2f:ac:92:01:62:d5:fd:8e:0b:da:
                    02:0c:7a:c7:6e:09:1c:ac:1c:b2:4c:d7:54:b8:26:
                    33:b2:5f:14:f3:b1:f9:3d:62:4d:40:99:6b:b6:e7:
                    89:58:97:d6:d4:4d:ea:4b:68:52:f3:3c:a8:b1:35:
                    88:db
                Exponent: 65537 (0x10001)
        X509v3 extensions:
            X509v3 Subject Key Identifier: 
                A1:DF:33:C3:CF:3E:53:41:A7:68:44:CC:AA:19:E1:84:C9:0D:BC:C6
            X509v3 Authority Key Identifier: 
                keyid:B4:11:33:F1:D7:E2:5E:F7:53:9E:20:22:10:4F:86:06:BF:1F:C9:5E
                DirName:/C=AU/O=Dodgy Brothers/CN=Dodgy CA
                serial:36:5D:75:35:1E:45:10:A3:8C:19:FC:86:AF:6C:C7:53:22:FE:2E:37
            X509v3 Basic Constraints: critical
                CA:TRUE, pathlen:1
            X509v3 Key Usage: 
                Certificate Sign, CRL Sign
            X509v3 Issuer Alternative Name: 
                <EMPTY>

    Signature Algorithm: sha1WithRSAEncryption
    Signature Value:
        23:0d:78:4f:70:33:08:d4:ae:b1:4f:a3:3f:56:cc:bb:e1:e1:
        ad:08:27:00:e1:9a:30:db:15:e0:6e:06:84:4b:be:d3:c0:9e:
        b7:f6:0a:cc:c6:ee:85:15:89:50:7e:03:e1:ff:fa:22:8c:cd:
        35:ad:e2:1a:3e:90:8a:e5:a8:59:d5:48:69:24:76:47:99:e0:
        52:8d:79:94:cf:b1:6c:55:ae:cd:05:f7:42:87:dc:06:0f:0b:
        6a:a6:ca:49:9d:88:31:99:98:d6:01:a1:c2:49:c2:99:f8:dd:
        af:08:fc:4a:9f:c8:da:64:9c:1e:26:1b:be:7b:67:fb:63:99:
        2e:65:04:24:f9:c1:0d:7a:c0:37:d0:fe:61:c4:8c:08:d7:8b:
        bf:80:2f:b7:f0:01:55:6e:52:96:a9:3a:ac:2d:5a:27:1f:ff:
        17:ac:b4:d9:ab:57:f5:be:1d:7d:02:a8:78:fd:04:2f:2e:7c:
        b2:1e:6c:0b:8c:76:e3:b5:53:b0:cf:1a:a3:90:71:b4:b4:ed:
        4d:62:b8:e1:11:65:6f:d5:1a:d9:39:e6:27:5a:a1:9e:98:42:
        b4:b1:e3:39:1f:66:bd:d3:2b:b5:f5:5c:01:a5:5f:61:ed:4b:
        37:dc:83:f6:78:07:a4:5b:40:11:da:9e:ef:99:31:72:9c:ee:
        1d:8b:e7:61
-----BEGIN CERTIFICATE-----
MIID6zCCAtOgAwIBAgIUWWmvhH5mFNhG6dJTKpp6t2UNKZcwDQYJKoZIhvcNAQEF
BQAwOTELMAkGA1UEBhMCQVUxFzAVBgNVBAoMDkRvZGd5IEJyb3RoZXJzMREwDwYD
VQQDDAhEb2RneSBDQTAeFw0yNDA5MTEwMTExMTZaFw0yNTA5MTEwMTExMTZaMF8x
CzAJBgNVBAYTAkFVMRcwFQYDVQQKDA5Eb2RneSBCcm90aGVyczESMBAGA1UEAwwJ
QnJvdGhlciAxMSMwIQYDVQQDDBpuZXh0dXBkYXRlX2dlbmVyYWxpemVkdGltZTCC
ASIwDQYJKoZIhvcNAQEBBQADggEPADCCAQoCggEBAL6VhvpxTGrqUZhQS5mhLGYV
82Dz4f9p+85IAR3+4Sw4sOO9j0tIp346xnPjq7/h2m6W9f7D5LSorbxWNNSWJXQn
wxDbNRAlHI5LgZv7QgR8bz3iOGwO5C6OKhhtMM1nKiNrN88Fn8y3WVh/usQKP4yk
rcuYnMDyj2lnD8FOM8/8hV67Xs+TsM/Z9FJ5h7H4TRVoZdW3GQhjf16xNK0Fj1rw
5OGPJfJcXGGVsFYtMSsIZXnlsTudPrlSS6xdxFhmhY2BswQo9D8vrJIBYtX9jgva
Agx6x24JHKwcskzXVLgmM7JfFPOx+T1iTUCZa7bniViX1tRN6ktoUvM8qLE1iNsC
AwEAAaOBxDCBwTAdBgNVHQ4EFgQUod8zw88+U0GnaETMqhnhhMkNvMYwdAYDVR0j
BG0wa4AUtBEz8dfiXvdTniAiEE+GBr8fyV6hPaQ7MDkxCzAJBgNVBAYTAkFVMRcw
FQYDVQQKDA5Eb2RneSBCcm90aGVyczERMA8GA1UEAwwIRG9kZ3kgQ0GCFDZddTUe
RRCjjBn8hq9sx1Mi/i43MBIGA1UdEwEB/wQIMAYBAf8CAQEwCwYDVR0PBAQDAgEG
MAkGA1UdEgQCMAAwDQYJKoZIhvcNAQEFBQADggEBACMNeE9wMwjUrrFPoz9WzLvh
4a0IJwDhmjDbFeBuBoRLvtPAnrf2CszG7oUViVB+A+H/+iKMzTWt4ho+kIrlqFnV
SGkkdkeZ4FKNeZTPsWxVrs0F90KH3AYPC2qmykmdiDGZmNYBocJJwpn43a8I/Eqf
yNpknB4mG757Z/tjmS5lBCT5wQ16wDfQ/mHEjAjXi7+AL7fwAVVuUpapOqwtWicf
/xestNmrV/W+HX0CqHj9BC8ufLIebAuMduO1U7DPGqOQcbS07U1iuOERZW/VGtk5
5idaoZ6YQrSx4zkfZr3TK7X1XAGlX2HtSzfcg/Z4B6RbQBHanu+ZMXKc7h2L52E=
-----END CERTIFICATE-----
