Certificate:
    Data:
        Version: 3 (0x2)
        Serial Number:
            65:cc:0b:e9:74:b7:45:d0:d9:c7:ef:20:b5:f7:45:24:23:46:2d:2b
        Signature Algorithm: sha1WithRSAEncryption
        Issuer: C=AU, O=Dodgy Brothers, CN=Dodgy CA
        Validity
            Not Before: Sep 19 23:58:18 2024 GMT
            Not After : Sep 19 23:58:18 2025 GMT
        Subject: C=AU, O=Dodgy Brothers, CN=Brother 1, CN=nextupdate_invalid
        Subject Public Key Info:
            Public Key Algorithm: rsaEncryption
                Public-Key: (2048 bit)
                Modulus:
                    00:be:95:86:fa:71:4c:6a:ea:51:98:50:4b:99:a1:
                    2c:66:15:f3:60:f3:e1:ff:69:fb:ce:48:01:1d:fe:
                    e1:2c:38:b0:e3:bd:8f:4b:48:a7:7e:3a:c6:73:e3:
                    ab:bf:e1:da:6e:96:f5:fe:c3:e4:b4:a8:ad:bc:56:
                    34:d4:96:25:74:27:c3:10:db:35:10:25:1c:8e:4b:
                    81:9b:fb:42:04:7c:6f:3d:e2:38:6c:0e:e4:2e:8e:
                    2a:18:6d:30:cd:67:2a:23:6b:37:cf:05:9f:cc:b7:
                    59:58:7f:ba:c4:0a:3f:8c:a4:ad:cb:98:9c:c0:f2:
                    8f:69:67:0f:c1:4e:33:cf:fc:85:5e:bb:5e:cf:93:
                    b0:cf:d9:f4:52:79:87:b1:f8:4d:15:68:65:d5:b7:
                    19:08:63:7f:5e:b1:34:ad:05:8f:5a:f0:e4:e1:8f:
                    25:f2:5c:5c:61:95:b0:56:2d:31:2b:08:65:79:e5:
                    b1:3b:9d:3e:b9:52:4b:ac:5d:c4:58:66:85:8d:81:
                    b3:04:28:f4:3f:2f:ac:92:01:62:d5:fd:8e:0b:da:
                    02:0c:7a:c7:6e:09:1c:ac:1c:b2:4c:d7:54:b8:26:
                    33:b2:5f:14:f3:b1:f9:3d:62:4d:40:99:6b:b6:e7:
                    89:58:97:d6:d4:4d:ea:4b:68:52:f3:3c:a8:b1:35:
                    88:db
                Exponent: 65537 (0x10001)
        X509v3 extensions:
            X509v3 Subject Key Identifier: 
                A1:DF:33:C3:CF:3E:53:41:A7:68:44:CC:AA:19:E1:84:C9:0D:BC:C6
            X509v3 Authority Key Identifier: 
                keyid:B4:11:33:F1:D7:E2:5E:F7:53:9E:20:22:10:4F:86:06:BF:1F:C9:5E
                DirName:/C=AU/O=Dodgy Brothers/CN=Dodgy CA
                serial:30:96:C7:0A:A8:EE:18:78:C1:97:CE:D9:63:EE:A6:54:74:5A:86:F1
            X509v3 Basic Constraints: critical
                CA:TRUE, pathlen:1
            X509v3 Key Usage: 
                Certificate Sign, CRL Sign
            X509v3 Issuer Alternative Name: 
                <EMPTY>

    Signature Algorithm: sha1WithRSAEncryption
    Signature Value:
        46:bf:90:71:03:5b:2c:c8:09:b8:14:85:e0:b9:40:98:54:5e:
        2a:74:bf:91:cd:2f:3e:30:a0:eb:31:76:c0:2e:c4:5b:36:fa:
        58:1c:89:f2:9d:9f:5a:81:e4:55:0a:66:95:a5:d2:a8:13:a1:
        cf:29:a3:a8:79:c8:68:18:27:c6:7d:b2:f2:e3:30:f9:ec:5b:
        57:d1:f1:0b:6d:4b:49:e8:17:5c:5e:66:3a:d2:16:ac:31:31:
        91:3f:2c:8d:ef:ff:6e:9d:ae:79:f1:76:c4:8f:f3:cc:b6:ee:
        dc:57:e0:2f:88:57:b7:af:16:8b:e5:22:d8:ff:f5:2c:60:90:
        d1:be:ab:90:0f:41:fa:32:87:0a:a1:9d:e1:ec:a5:d0:55:66:
        e0:0a:62:e9:59:36:95:87:64:b2:92:84:1e:a2:22:06:ab:b7:
        3a:aa:c6:c8:35:3b:af:ec:2e:80:25:91:3b:3f:d6:c6:71:b2:
        a0:cb:9c:ce:6a:6e:53:f9:5d:16:a9:18:1b:72:49:67:5a:b2:
        cc:7f:4f:f3:ff:ba:c4:1a:d7:f7:5e:6b:22:37:30:e0:30:8a:
        80:c3:fb:82:fe:08:66:78:39:4d:31:9f:39:b1:68:86:e0:07:
        c0:7e:db:f1:ae:32:95:a2:98:2d:b9:10:f9:88:d2:ff:0b:ec:
        20:dc:e1:c8
-----BEGIN CERTIFICATE-----
MIID4zCCAsugAwIBAgIUZcwL6XS3RdDZx+8gtfdFJCNGLSswDQYJKoZIhvcNAQEF
BQAwOTELMAkGA1UEBhMCQVUxFzAVBgNVBAoMDkRvZGd5IEJyb3RoZXJzMREwDwYD
VQQDDAhEb2RneSBDQTAeFw0yNDA5MTkyMzU4MThaFw0yNTA5MTkyMzU4MThaMFcx
CzAJBgNVBAYTAkFVMRcwFQYDVQQKDA5Eb2RneSBCcm90aGVyczESMBAGA1UEAwwJ
QnJvdGhlciAxMRswGQYDVQQDDBJuZXh0dXBkYXRlX2ludmFsaWQwggEiMA0GCSqG
SIb3DQEBAQUAA4IBDwAwggEKAoIBAQC+lYb6cUxq6lGYUEuZoSxmFfNg8+H/afvO
SAEd/uEsOLDjvY9LSKd+OsZz46u/4dpulvX+w+S0qK28VjTUliV0J8MQ2zUQJRyO
S4Gb+0IEfG894jhsDuQujioYbTDNZyojazfPBZ/Mt1lYf7rECj+MpK3LmJzA8o9p
Zw/BTjPP/IVeu17Pk7DP2fRSeYex+E0VaGXVtxkIY39esTStBY9a8OThjyXyXFxh
lbBWLTErCGV55bE7nT65UkusXcRYZoWNgbMEKPQ/L6ySAWLV/Y4L2gIMesduCRys
HLJM11S4JjOyXxTzsfk9Yk1AmWu254lYl9bUTepLaFLzPKixNYjbAgMBAAGjgcQw
gcEwHQYDVR0OBBYEFKHfM8PPPlNBp2hEzKoZ4YTJDbzGMHQGA1UdIwRtMGuAFLQR
M/HX4l73U54gIhBPhga/H8leoT2kOzA5MQswCQYDVQQGEwJBVTEXMBUGA1UECgwO
RG9kZ3kgQnJvdGhlcnMxETAPBgNVBAMMCERvZGd5IENBghQwlscKqO4YeMGXztlj
7qZUdFqG8TASBgNVHRMBAf8ECDAGAQH/AgEBMAsGA1UdDwQEAwIBBjAJBgNVHRIE
AjAAMA0GCSqGSIb3DQEBBQUAA4IBAQBGv5BxA1ssyAm4FIXguUCYVF4qdL+RzS8+
MKDrMXbALsRbNvpYHInynZ9ageRVCmaVpdKoE6HPKaOoechoGCfGfbLy4zD57FtX
0fELbUtJ6BdcXmY60hasMTGRPyyN7/9una558XbEj/PMtu7cV+AviFe3rxaL5SLY
//UsYJDRvquQD0H6MocKoZ3h7KXQVWbgCmLpWTaVh2SykoQeoiIGq7c6qsbINTuv
7C6AJZE7P9bGcbKgy5zOam5T+V0WqRgbcklnWrLMf0/z/7rEGtf3XmsiNzDgMIqA
w/uC/ghmeDlNMZ85sWiG4AfAftvxrjKVopgtuRD5iNL/C+wg3OHI
-----END CERTIFICATE-----
