Certificate:
    Data:
        Version: 3 (0x2)
        Serial Number:
            59:69:af:84:7e:66:14:d8:46:e9:d2:53:2a:9a:7a:b7:65:0d:29:96
        Signature Algorithm: sha1WithRSAEncryption
        Issuer: C=AU, O=Dodgy Brothers, CN=Dodgy CA
        Validity
            Not Before: Sep 11 01:11:16 2024 GMT
            Not After : Sep 11 01:11:16 2025 GMT
        Subject: C=AU, O=Dodgy Brothers, CN=Brother 1, CN=nextupdate_utctime
        Subject Public Key Info:
            Public Key Algorithm: rsaEncryption
                Public-Key: (2048 bit)
                Modulus:
                    00:be:95:86:fa:71:4c:6a:ea:51:98:50:4b:99:a1:
                    2c:66:15:f3:60:f3:e1:ff:69:fb:ce:48:01:1d:fe:
                    e1:2c:38:b0:e3:bd:8f:4b:48:a7:7e:3a:c6:73:e3:
                    ab:bf:e1:da:6e:96:f5:fe:c3:e4:b4:a8:ad:bc:56:
                    34:d4:96:25:74:27:c3:10:db:35:10:25:1c:8e:4b:
                    81:9b:fb:42:04:7c:6f:3d:e2:38:6c:0e:e4:2e:8e:
                    2a:18:6d:30:cd:67:2a:23:6b:37:cf:05:9f:cc:b7:
                    59:58:7f:ba:c4:0a:3f:8c:a4:ad:cb:98:9c:c0:f2:
                    8f:69:67:0f:c1:4e:33:cf:fc:85:5e:bb:5e:cf:93:
                    b0:cf:d9:f4:52:79:87:b1:f8:4d:15:68:65:d5:b7:
                    19:08:63:7f:5e:b1:34:ad:05:8f:5a:f0:e4:e1:8f:
                    25:f2:5c:5c:61:95:b0:56:2d:31:2b:08:65:79:e5:
                    b1:3b:9d:3e:b9:52:4b:ac:5d:c4:58:66:85:8d:81:
                    b3:04:28:f4:3f:2f:ac:92:01:62:d5:fd:8e:0b:da:
                    02:0c:7a:c7:6e:09:1c:ac:1c:b2:4c:d7:54:b8:26:
                    33:b2:5f:14:f3:b1:f9:3d:62:4d:40:99:6b:b6:e7:
                    89:58:97:d6:d4:4d:ea:4b:68:52:f3:3c:a8:b1:35:
                    88:db
                Exponent: 65537 (0x10001)
        X509v3 extensions:
            X509v3 Subject Key Identifier: 
                A1:DF:33:C3:CF:3E:53:41:A7:68:44:CC:AA:19:E1:84:C9:0D:BC:C6
            X509v3 Authority Key Identifier: 
                keyid:B4:11:33:F1:D7:E2:5E:F7:53:9E:20:22:10:4F:86:06:BF:1F:C9:5E
                DirName:/C=AU/O=Dodgy Brothers/CN=Dodgy CA
                serial:36:5D:75:35:1E:45:10:A3:8C:19:FC:86:AF:6C:C7:53:22:FE:2E:37
            X509v3 Basic Constraints: critical
                CA:TRUE, pathlen:1
            X509v3 Key Usage: 
                Certificate Sign, CRL Sign
            X509v3 Issuer Alternative Name: 
                <EMPTY>

    Signature Algorithm: sha1WithRSAEncryption
    Signature Value:
        44:fb:15:36:4a:ca:f8:85:49:d7:aa:d0:eb:9f:a2:cb:42:0d:
        f5:6e:ed:7c:73:e8:44:4f:f1:7a:5e:83:32:8b:58:da:24:4d:
        c6:73:ed:69:e6:02:9c:72:c9:88:e7:dc:df:bb:2a:fe:98:33:
        22:d2:5b:1c:28:24:f1:f3:10:57:5d:b1:cf:ad:a4:dd:5d:21:
        46:8c:25:6e:31:f4:7e:4e:e4:8e:58:98:67:ab:e9:c0:ab:3a:
        70:80:a7:ce:b8:2d:78:ea:6f:51:1b:39:9b:e3:48:fc:8c:ce:
        52:e3:4a:21:67:4c:d9:6e:90:ba:4f:80:65:85:8f:5f:66:ee:
        75:d6:dd:a0:92:64:1c:5c:20:ab:d1:a4:e9:05:4d:f2:51:a6:
        b4:b3:3d:1a:07:25:a8:b5:8c:1b:38:9f:e1:b6:92:b0:7e:6f:
        02:ae:54:e6:cc:38:a4:89:9b:08:20:d3:59:f4:af:5a:43:6d:
        cb:17:41:04:e8:8c:a8:64:52:f2:79:f9:27:2b:e4:f2:97:70:
        fd:54:60:9c:5e:d8:15:8e:d4:85:3e:dd:18:22:32:4a:8f:d1:
        33:69:c0:82:ca:9c:2b:96:de:a4:68:2d:19:a8:28:3a:b3:58:
        cb:62:34:77:64:c5:85:84:15:8e:d8:8a:3a:84:73:13:51:e7:
        12:bf:5d:ec
-----BEGIN CERTIFICATE-----
MIID4zCCAsugAwIBAgIUWWmvhH5mFNhG6dJTKpp6t2UNKZYwDQYJKoZIhvcNAQEF
BQAwOTELMAkGA1UEBhMCQVUxFzAVBgNVBAoMDkRvZGd5IEJyb3RoZXJzMREwDwYD
VQQDDAhEb2RneSBDQTAeFw0yNDA5MTEwMTExMTZaFw0yNTA5MTEwMTExMTZaMFcx
CzAJBgNVBAYTAkFVMRcwFQYDVQQKDA5Eb2RneSBCcm90aGVyczESMBAGA1UEAwwJ
QnJvdGhlciAxMRswGQYDVQQDDBJuZXh0dXBkYXRlX3V0Y3RpbWUwggEiMA0GCSqG
SIb3DQEBAQUAA4IBDwAwggEKAoIBAQC+lYb6cUxq6lGYUEuZoSxmFfNg8+H/afvO
SAEd/uEsOLDjvY9LSKd+OsZz46u/4dpulvX+w+S0qK28VjTUliV0J8MQ2zUQJRyO
S4Gb+0IEfG894jhsDuQujioYbTDNZyojazfPBZ/Mt1lYf7rECj+MpK3LmJzA8o9p
Zw/BTjPP/IVeu17Pk7DP2fRSeYex+E0VaGXVtxkIY39esTStBY9a8OThjyXyXFxh
lbBWLTErCGV55bE7nT65UkusXcRYZoWNgbMEKPQ/L6ySAWLV/Y4L2gIMesduCRys
HLJM11S4JjOyXxTzsfk9Yk1AmWu254lYl9bUTepLaFLzPKixNYjbAgMBAAGjgcQw
gcEwHQYDVR0OBBYEFKHfM8PPPlNBp2hEzKoZ4YTJDbzGMHQGA1UdIwRtMGuAFLQR
M/HX4l73U54gIhBPhga/H8leoT2kOzA5MQswCQYDVQQGEwJBVTEXMBUGA1UECgwO
RG9kZ3kgQnJvdGhlcnMxETAPBgNVBAMMCERvZGd5IENBghQ2XXU1HkUQo4wZ/Iav
bMdTIv4uNzASBgNVHRMBAf8ECDAGAQH/AgEBMAsGA1UdDwQEAwIBBjAJBgNVHRIE
AjAAMA0GCSqGSIb3DQEBBQUAA4IBAQBE+xU2Ssr4hUnXqtDrn6LLQg31bu18c+hE
T/F6XoMyi1jaJE3Gc+1p5gKccsmI59zfuyr+mDMi0lscKCTx8xBXXbHPraTdXSFG
jCVuMfR+TuSOWJhnq+nAqzpwgKfOuC146m9RGzmb40j8jM5S40ohZ0zZbpC6T4Bl
hY9fZu511t2gkmQcXCCr0aTpBU3yUaa0sz0aByWotYwbOJ/htpKwfm8CrlTmzDik
iZsIINNZ9K9aQ23LF0EE6IyoZFLyefknK+Tyl3D9VGCcXtgVjtSFPt0YIjJKj9Ez
acCCypwrlt6kaC0ZqCg6s1jLYjR3ZMWFhBWO2Io6hHMTUecSv13s
-----END CERTIFICATE-----
