Certificate:
    Data:
        Version: 3 (0x2)
        Serial Number:
            65:cc:0b:e9:74:b7:45:d0:d9:c7:ef:20:b5:f7:45:24:23:46:2d:2c
        Signature Algorithm: sha1WithRSAEncryption
        Issuer: C=AU, O=Dodgy Brothers, CN=Dodgy CA
        Validity
            Not Before: Sep 19 23:58:18 2024 GMT
            Not After : Sep 19 23:58:18 2025 GMT
        Subject: C=AU, O=Dodgy Brothers, CN=Brother 1, CN=nextupdate_utctime
        Subject Public Key Info:
            Public Key Algorithm: rsaEncryption
                Public-Key: (2048 bit)
                Modulus:
                    00:be:95:86:fa:71:4c:6a:ea:51:98:50:4b:99:a1:
                    2c:66:15:f3:60:f3:e1:ff:69:fb:ce:48:01:1d:fe:
                    e1:2c:38:b0:e3:bd:8f:4b:48:a7:7e:3a:c6:73:e3:
                    ab:bf:e1:da:6e:96:f5:fe:c3:e4:b4:a8:ad:bc:56:
                    34:d4:96:25:74:27:c3:10:db:35:10:25:1c:8e:4b:
                    81:9b:fb:42:04:7c:6f:3d:e2:38:6c:0e:e4:2e:8e:
                    2a:18:6d:30:cd:67:2a:23:6b:37:cf:05:9f:cc:b7:
                    59:58:7f:ba:c4:0a:3f:8c:a4:ad:cb:98:9c:c0:f2:
                    8f:69:67:0f:c1:4e:33:cf:fc:85:5e:bb:5e:cf:93:
                    b0:cf:d9:f4:52:79:87:b1:f8:4d:15:68:65:d5:b7:
                    19:08:63:7f:5e:b1:34:ad:05:8f:5a:f0:e4:e1:8f:
                    25:f2:5c:5c:61:95:b0:56:2d:31:2b:08:65:79:e5:
                    b1:3b:9d:3e:b9:52:4b:ac:5d:c4:58:66:85:8d:81:
                    b3:04:28:f4:3f:2f:ac:92:01:62:d5:fd:8e:0b:da:
                    02:0c:7a:c7:6e:09:1c:ac:1c:b2:4c:d7:54:b8:26:
                    33:b2:5f:14:f3:b1:f9:3d:62:4d:40:99:6b:b6:e7:
                    89:58:97:d6:d4:4d:ea:4b:68:52:f3:3c:a8:b1:35:
                    88:db
                Exponent: 65537 (0x10001)
        X509v3 extensions:
            X509v3 Subject Key Identifier: 
                A1:DF:33:C3:CF:3E:53:41:A7:68:44:CC:AA:19:E1:84:C9:0D:BC:C6
            X509v3 Authority Key Identifier: 
                keyid:B4:11:33:F1:D7:E2:5E:F7:53:9E:20:22:10:4F:86:06:BF:1F:C9:5E
                DirName:/C=AU/O=Dodgy Brothers/CN=Dodgy CA
                serial:30:96:C7:0A:A8:EE:18:78:C1:97:CE:D9:63:EE:A6:54:74:5A:86:F1
            X509v3 Basic Constraints: critical
                CA:TRUE, pathlen:1
            X509v3 Key Usage: 
                Certificate Sign, CRL Sign
            X509v3 Issuer Alternative Name: 
                <EMPTY>

    Signature Algorithm: sha1WithRSAEncryption
    Signature Value:
        35:0b:ac:ad:45:07:f9:81:a5:c3:3e:73:43:b1:f8:1b:eb:de:
        af:51:c7:05:96:1f:97:94:37:61:41:76:14:0a:31:19:a3:91:
        da:8b:93:ac:23:25:12:6b:a0:46:55:ee:c1:d3:30:fe:7b:7f:
        bf:6b:d7:39:d6:59:7d:49:2a:ca:fc:59:0d:41:00:86:9f:e9:
        c2:58:0c:3b:91:c1:8d:2a:a1:36:a7:e3:9c:4e:e8:2c:45:e2:
        40:f5:6b:2a:14:89:cb:ee:92:d0:09:2c:16:8c:94:48:1c:c7:
        8c:01:4a:e0:f1:51:93:1b:f6:39:41:3c:00:5c:d4:0d:0d:b1:
        2f:ed:9d:41:82:e5:8e:1d:28:78:7e:20:d7:a8:28:d2:a4:a9:
        b0:7d:13:1f:37:a7:68:9a:d3:b5:02:56:3f:a8:47:c7:1c:70:
        d3:2c:7e:77:f3:d8:75:2f:db:53:ab:89:2c:f5:51:14:a8:c5:
        cd:5a:ed:87:0a:ed:c9:3c:9d:ee:2e:e6:74:f3:70:de:83:74:
        57:4b:c6:75:8c:85:39:44:95:68:cc:63:83:29:6c:53:62:4a:
        26:28:40:bd:6b:8f:5a:93:c3:ca:bd:34:c1:27:28:43:1a:9d:
        91:be:a2:25:87:92:4f:22:c5:d9:54:a4:db:23:9f:2e:12:e9:
        0a:bd:c1:5d
-----BEGIN CERTIFICATE-----
MIID4zCCAsugAwIBAgIUZcwL6XS3RdDZx+8gtfdFJCNGLSwwDQYJKoZIhvcNAQEF
BQAwOTELMAkGA1UEBhMCQVUxFzAVBgNVBAoMDkRvZGd5IEJyb3RoZXJzMREwDwYD
VQQDDAhEb2RneSBDQTAeFw0yNDA5MTkyMzU4MThaFw0yNTA5MTkyMzU4MThaMFcx
CzAJBgNVBAYTAkFVMRcwFQYDVQQKDA5Eb2RneSBCcm90aGVyczESMBAGA1UEAwwJ
QnJvdGhlciAxMRswGQYDVQQDDBJuZXh0dXBkYXRlX3V0Y3RpbWUwggEiMA0GCSqG
SIb3DQEBAQUAA4IBDwAwggEKAoIBAQC+lYb6cUxq6lGYUEuZoSxmFfNg8+H/afvO
SAEd/uEsOLDjvY9LSKd+OsZz46u/4dpulvX+w+S0qK28VjTUliV0J8MQ2zUQJRyO
S4Gb+0IEfG894jhsDuQujioYbTDNZyojazfPBZ/Mt1lYf7rECj+MpK3LmJzA8o9p
Zw/BTjPP/IVeu17Pk7DP2fRSeYex+E0VaGXVtxkIY39esTStBY9a8OThjyXyXFxh
lbBWLTErCGV55bE7nT65UkusXcRYZoWNgbMEKPQ/L6ySAWLV/Y4L2gIMesduCRys
HLJM11S4JjOyXxTzsfk9Yk1AmWu254lYl9bUTepLaFLzPKixNYjbAgMBAAGjgcQw
gcEwHQYDVR0OBBYEFKHfM8PPPlNBp2hEzKoZ4YTJDbzGMHQGA1UdIwRtMGuAFLQR
M/HX4l73U54gIhBPhga/H8leoT2kOzA5MQswCQYDVQQGEwJBVTEXMBUGA1UECgwO
RG9kZ3kgQnJvdGhlcnMxETAPBgNVBAMMCERvZGd5IENBghQwlscKqO4YeMGXztlj
7qZUdFqG8TASBgNVHRMBAf8ECDAGAQH/AgEBMAsGA1UdDwQEAwIBBjAJBgNVHRIE
AjAAMA0GCSqGSIb3DQEBBQUAA4IBAQA1C6ytRQf5gaXDPnNDsfgb696vUccFlh+X
lDdhQXYUCjEZo5Hai5OsIyUSa6BGVe7B0zD+e3+/a9c51ll9SSrK/FkNQQCGn+nC
WAw7kcGNKqE2p+OcTugsReJA9WsqFInL7pLQCSwWjJRIHMeMAUrg8VGTG/Y5QTwA
XNQNDbEv7Z1BguWOHSh4fiDXqCjSpKmwfRMfN6domtO1AlY/qEfHHHDTLH5389h1
L9tTq4ks9VEUqMXNWu2HCu3JPJ3uLuZ083Deg3RXS8Z1jIU5RJVozGODKWxTYkom
KEC9a49ak8PKvTTBJyhDGp2RvqIlh5JPIsXZVKTbI58uEukKvcFd
-----END CERTIFICATE-----
