Certificate:
    Data:
        Version: 3 (0x2)
        Serial Number:
            65:cc:0b:e9:74:b7:45:d0:d9:c7:ef:20:b5:f7:45:24:23:46:2d:2d
        Signature Algorithm: sha1WithRSAEncryption
        Issuer: C=AU, O=Dodgy Brothers, CN=Dodgy CA
        Validity
            Not Before: Sep 19 23:58:19 2024 GMT
            Not After : Sep 19 23:58:19 2025 GMT
        Subject: C=AU, O=Dodgy Brothers, CN=Brother 1, CN=nextupdate_generalizedtime
        Subject Public Key Info:
            Public Key Algorithm: rsaEncryption
                Public-Key: (2048 bit)
                Modulus:
                    00:be:95:86:fa:71:4c:6a:ea:51:98:50:4b:99:a1:
                    2c:66:15:f3:60:f3:e1:ff:69:fb:ce:48:01:1d:fe:
                    e1:2c:38:b0:e3:bd:8f:4b:48:a7:7e:3a:c6:73:e3:
                    ab:bf:e1:da:6e:96:f5:fe:c3:e4:b4:a8:ad:bc:56:
                    34:d4:96:25:74:27:c3:10:db:35:10:25:1c:8e:4b:
                    81:9b:fb:42:04:7c:6f:3d:e2:38:6c:0e:e4:2e:8e:
                    2a:18:6d:30:cd:67:2a:23:6b:37:cf:05:9f:cc:b7:
                    59:58:7f:ba:c4:0a:3f:8c:a4:ad:cb:98:9c:c0:f2:
                    8f:69:67:0f:c1:4e:33:cf:fc:85:5e:bb:5e:cf:93:
                    b0:cf:d9:f4:52:79:87:b1:f8:4d:15:68:65:d5:b7:
                    19:08:63:7f:5e:b1:34:ad:05:8f:5a:f0:e4:e1:8f:
                    25:f2:5c:5c:61:95:b0:56:2d:31:2b:08:65:79:e5:
                    b1:3b:9d:3e:b9:52:4b:ac:5d:c4:58:66:85:8d:81:
                    b3:04:28:f4:3f:2f:ac:92:01:62:d5:fd:8e:0b:da:
                    02:0c:7a:c7:6e:09:1c:ac:1c:b2:4c:d7:54:b8:26:
                    33:b2:5f:14:f3:b1:f9:3d:62:4d:40:99:6b:b6:e7:
                    89:58:97:d6:d4:4d:ea:4b:68:52:f3:3c:a8:b1:35:
                    88:db
                Exponent: 65537 (0x10001)
        X509v3 extensions:
            X509v3 Subject Key Identifier: 
                A1:DF:33:C3:CF:3E:53:41:A7:68:44:CC:AA:19:E1:84:C9:0D:BC:C6
            X509v3 Authority Key Identifier: 
                keyid:B4:11:33:F1:D7:E2:5E:F7:53:9E:20:22:10:4F:86:06:BF:1F:C9:5E
                DirName:/C=AU/O=Dodgy Brothers/CN=Dodgy CA
                serial:30:96:C7:0A:A8:EE:18:78:C1:97:CE:D9:63:EE:A6:54:74:5A:86:F1
            X509v3 Basic Constraints: critical
                CA:TRUE, pathlen:1
            X509v3 Key Usage: 
                Certificate Sign, CRL Sign
            X509v3 Issuer Alternative Name: 
                <EMPTY>

    Signature Algorithm: sha1WithRSAEncryption
    Signature Value:
        13:fe:12:c3:dc:65:6a:d3:e7:90:dc:32:0b:7c:23:42:00:66:
        e8:2c:4d:cc:b8:11:bf:42:bb:d2:01:ca:df:b3:68:58:af:9c:
        63:09:50:2e:f8:16:f2:81:c7:36:af:fc:3b:28:66:95:11:44:
        7f:30:e3:21:95:3e:6f:63:6a:ff:32:f2:38:50:c7:bd:c8:7a:
        49:b8:e3:e1:b2:36:47:84:d2:d6:5d:f9:33:21:e0:2a:2a:77:
        57:a3:ae:f9:46:24:19:c4:77:32:c7:36:6d:07:de:36:27:67:
        c2:b8:dd:a4:a7:8e:33:51:45:35:e5:35:e5:6f:6d:f1:64:11:
        a4:34:51:bc:09:48:fb:13:b8:40:54:98:b9:92:4a:f1:8b:3c:
        19:37:95:30:20:8e:f6:fc:52:93:66:b1:03:9b:ea:29:d3:e3:
        6e:e0:0f:66:4d:0b:cd:40:dc:c6:ae:fd:bb:e1:e4:5e:22:ea:
        49:a0:d6:45:93:5d:bb:94:f9:c3:52:6c:f3:d3:32:eb:a6:75:
        87:4d:6e:d4:ed:a2:54:a1:3c:31:c1:ad:2f:b4:37:6d:f6:0f:
        b0:83:8b:75:70:00:09:83:c5:92:e5:79:3a:5c:ce:82:e6:03:
        d2:13:1e:49:a3:eb:e2:d5:d5:1a:5b:37:45:43:ba:53:55:81:
        fd:fa:8a:09
-----BEGIN CERTIFICATE-----
MIID6zCCAtOgAwIBAgIUZcwL6XS3RdDZx+8gtfdFJCNGLS0wDQYJKoZIhvcNAQEF
BQAwOTELMAkGA1UEBhMCQVUxFzAVBgNVBAoMDkRvZGd5IEJyb3RoZXJzMREwDwYD
VQQDDAhEb2RneSBDQTAeFw0yNDA5MTkyMzU4MTlaFw0yNTA5MTkyMzU4MTlaMF8x
CzAJBgNVBAYTAkFVMRcwFQYDVQQKDA5Eb2RneSBCcm90aGVyczESMBAGA1UEAwwJ
QnJvdGhlciAxMSMwIQYDVQQDDBpuZXh0dXBkYXRlX2dlbmVyYWxpemVkdGltZTCC
ASIwDQYJKoZIhvcNAQEBBQADggEPADCCAQoCggEBAL6VhvpxTGrqUZhQS5mhLGYV
82Dz4f9p+85IAR3+4Sw4sOO9j0tIp346xnPjq7/h2m6W9f7D5LSorbxWNNSWJXQn
wxDbNRAlHI5LgZv7QgR8bz3iOGwO5C6OKhhtMM1nKiNrN88Fn8y3WVh/usQKP4yk
rcuYnMDyj2lnD8FOM8/8hV67Xs+TsM/Z9FJ5h7H4TRVoZdW3GQhjf16xNK0Fj1rw
5OGPJfJcXGGVsFYtMSsIZXnlsTudPrlSS6xdxFhmhY2BswQo9D8vrJIBYtX9jgva
Agx6x24JHKwcskzXVLgmM7JfFPOx+T1iTUCZa7bniViX1tRN6ktoUvM8qLE1iNsC
AwEAAaOBxDCBwTAdBgNVHQ4EFgQUod8zw88+U0GnaETMqhnhhMkNvMYwdAYDVR0j
BG0wa4AUtBEz8dfiXvdTniAiEE+GBr8fyV6hPaQ7MDkxCzAJBgNVBAYTAkFVMRcw
FQYDVQQKDA5Eb2RneSBCcm90aGVyczERMA8GA1UEAwwIRG9kZ3kgQ0GCFDCWxwqo
7hh4wZfO2WPuplR0WobxMBIGA1UdEwEB/wQIMAYBAf8CAQEwCwYDVR0PBAQDAgEG
MAkGA1UdEgQCMAAwDQYJKoZIhvcNAQEFBQADggEBABP+EsPcZWrT55DcMgt8I0IA
ZugsTcy4Eb9Cu9IByt+zaFivnGMJUC74FvKBxzav/DsoZpURRH8w4yGVPm9jav8y
8jhQx73Iekm44+GyNkeE0tZd+TMh4Coqd1ejrvlGJBnEdzLHNm0H3jYnZ8K43aSn
jjNRRTXlNeVvbfFkEaQ0UbwJSPsTuEBUmLmSSvGLPBk3lTAgjvb8UpNmsQOb6inT
427gD2ZNC81A3Mau/bvh5F4i6kmg1kWTXbuU+cNSbPPTMuumdYdNbtTtolShPDHB
rS+0N232D7CDi3VwAAmDxZLleTpczoLmA9ITHkmj6+LV1RpbN0VDulNVgf36igk=
-----END CERTIFICATE-----
