Certificate:
    Data:
        Version: 3 (0x2)
        Serial Number:
            6f:1e:9a:03:72:dd:db:48:cd:c2:2a:1b:24:6b:8d:92:c2:10:75:d7
        Signature Algorithm: sha1WithRSAEncryption
        Issuer: C=AU, O=Dodgy Brothers, CN=Dodgy CA
        Validity
            Not Before: Aug 12 00:44:59 2024 GMT
            Not After : Aug 12 00:44:59 2025 GMT
        Subject: C=AU, O=Dodgy Brothers, CN=Brother 1, CN=nextupdate_utctime
        Subject Public Key Info:
            Public Key Algorithm: rsaEncryption
                Public-Key: (2048 bit)
                Modulus:
                    00:be:95:86:fa:71:4c:6a:ea:51:98:50:4b:99:a1:
                    2c:66:15:f3:60:f3:e1:ff:69:fb:ce:48:01:1d:fe:
                    e1:2c:38:b0:e3:bd:8f:4b:48:a7:7e:3a:c6:73:e3:
                    ab:bf:e1:da:6e:96:f5:fe:c3:e4:b4:a8:ad:bc:56:
                    34:d4:96:25:74:27:c3:10:db:35:10:25:1c:8e:4b:
                    81:9b:fb:42:04:7c:6f:3d:e2:38:6c:0e:e4:2e:8e:
                    2a:18:6d:30:cd:67:2a:23:6b:37:cf:05:9f:cc:b7:
                    59:58:7f:ba:c4:0a:3f:8c:a4:ad:cb:98:9c:c0:f2:
                    8f:69:67:0f:c1:4e:33:cf:fc:85:5e:bb:5e:cf:93:
                    b0:cf:d9:f4:52:79:87:b1:f8:4d:15:68:65:d5:b7:
                    19:08:63:7f:5e:b1:34:ad:05:8f:5a:f0:e4:e1:8f:
                    25:f2:5c:5c:61:95:b0:56:2d:31:2b:08:65:79:e5:
                    b1:3b:9d:3e:b9:52:4b:ac:5d:c4:58:66:85:8d:81:
                    b3:04:28:f4:3f:2f:ac:92:01:62:d5:fd:8e:0b:da:
                    02:0c:7a:c7:6e:09:1c:ac:1c:b2:4c:d7:54:b8:26:
                    33:b2:5f:14:f3:b1:f9:3d:62:4d:40:99:6b:b6:e7:
                    89:58:97:d6:d4:4d:ea:4b:68:52:f3:3c:a8:b1:35:
                    88:db
                Exponent: 65537 (0x10001)
        X509v3 extensions:
            X509v3 Subject Key Identifier: 
                A1:DF:33:C3:CF:3E:53:41:A7:68:44:CC:AA:19:E1:84:C9:0D:BC:C6
            X509v3 Authority Key Identifier: 
                keyid:B4:11:33:F1:D7:E2:5E:F7:53:9E:20:22:10:4F:86:06:BF:1F:C9:5E
                DirName:/C=AU/O=Dodgy Brothers/CN=Dodgy CA
                serial:72:BD:08:50:B3:F6:1E:9B:52:7A:8B:4A:46:D3:12:9A:51:77:66:FB
            X509v3 Basic Constraints: critical
                CA:TRUE, pathlen:1
            X509v3 Key Usage: 
                Certificate Sign, CRL Sign
            X509v3 Issuer Alternative Name: 
                <EMPTY>

    Signature Algorithm: sha1WithRSAEncryption
    Signature Value:
        44:8c:3e:e0:b8:0c:e1:46:37:a9:c6:93:18:8d:ca:d5:26:71:
        66:0f:c8:62:46:20:37:d4:df:d0:79:ba:be:9f:8f:e5:11:9d:
        15:38:c3:90:c9:b1:52:7c:b0:8d:4d:af:1c:0f:92:1a:f4:98:
        f5:58:82:cd:a1:4c:7d:c5:49:a9:0b:1b:1d:8f:5d:16:7e:9f:
        78:52:66:f1:6e:12:32:3f:07:3f:ff:87:05:fc:f3:58:6d:02:
        3c:74:b2:fb:c4:ed:d3:6d:d9:b4:f4:02:a1:58:a2:e6:3a:de:
        04:e1:91:0a:84:ca:6a:5f:1b:13:d5:57:7b:64:05:9e:66:45:
        da:e0:b0:0e:99:c9:22:b3:d0:45:00:c4:3f:27:bc:f3:20:8e:
        a9:8d:d9:ad:05:ef:2c:a4:9b:cc:73:10:f0:9d:7c:f0:d1:dc:
        98:5f:ed:79:4c:e4:16:69:21:52:db:96:00:37:56:74:ee:e4:
        f4:e4:fc:ab:10:6a:ee:46:f8:70:f4:bc:25:e5:be:34:e5:f1:
        8b:ac:90:68:65:e6:54:91:8f:e7:41:f0:4f:8b:d6:1c:4e:ba:
        35:e1:53:d1:f7:2b:12:b0:09:0f:12:8c:fb:3b:92:9d:45:69:
        04:47:18:1e:1b:5c:4b:a4:7b:40:85:1a:48:86:fa:d0:c2:52:
        28:54:34:fe
-----BEGIN CERTIFICATE-----
MIID4zCCAsugAwIBAgIUbx6aA3Ld20jNwiobJGuNksIQddcwDQYJKoZIhvcNAQEF
BQAwOTELMAkGA1UEBhMCQVUxFzAVBgNVBAoMDkRvZGd5IEJyb3RoZXJzMREwDwYD
VQQDDAhEb2RneSBDQTAeFw0yNDA4MTIwMDQ0NTlaFw0yNTA4MTIwMDQ0NTlaMFcx
CzAJBgNVBAYTAkFVMRcwFQYDVQQKDA5Eb2RneSBCcm90aGVyczESMBAGA1UEAwwJ
QnJvdGhlciAxMRswGQYDVQQDDBJuZXh0dXBkYXRlX3V0Y3RpbWUwggEiMA0GCSqG
SIb3DQEBAQUAA4IBDwAwggEKAoIBAQC+lYb6cUxq6lGYUEuZoSxmFfNg8+H/afvO
SAEd/uEsOLDjvY9LSKd+OsZz46u/4dpulvX+w+S0qK28VjTUliV0J8MQ2zUQJRyO
S4Gb+0IEfG894jhsDuQujioYbTDNZyojazfPBZ/Mt1lYf7rECj+MpK3LmJzA8o9p
Zw/BTjPP/IVeu17Pk7DP2fRSeYex+E0VaGXVtxkIY39esTStBY9a8OThjyXyXFxh
lbBWLTErCGV55bE7nT65UkusXcRYZoWNgbMEKPQ/L6ySAWLV/Y4L2gIMesduCRys
HLJM11S4JjOyXxTzsfk9Yk1AmWu254lYl9bUTepLaFLzPKixNYjbAgMBAAGjgcQw
gcEwHQYDVR0OBBYEFKHfM8PPPlNBp2hEzKoZ4YTJDbzGMHQGA1UdIwRtMGuAFLQR
M/HX4l73U54gIhBPhga/H8leoT2kOzA5MQswCQYDVQQGEwJBVTEXMBUGA1UECgwO
RG9kZ3kgQnJvdGhlcnMxETAPBgNVBAMMCERvZGd5IENBghRyvQhQs/Yem1J6i0pG
0xKaUXdm+zASBgNVHRMBAf8ECDAGAQH/AgEBMAsGA1UdDwQEAwIBBjAJBgNVHRIE
AjAAMA0GCSqGSIb3DQEBBQUAA4IBAQBEjD7guAzhRjepxpMYjcrVJnFmD8hiRiA3
1N/Qebq+n4/lEZ0VOMOQybFSfLCNTa8cD5Ia9Jj1WILNoUx9xUmpCxsdj10Wfp94
UmbxbhIyPwc//4cF/PNYbQI8dLL7xO3Tbdm09AKhWKLmOt4E4ZEKhMpqXxsT1Vd7
ZAWeZkXa4LAOmckis9BFAMQ/J7zzII6pjdmtBe8spJvMcxDwnXzw0dyYX+15TOQW
aSFS25YAN1Z07uT05PyrEGruRvhw9Lwl5b405fGLrJBoZeZUkY/nQfBPi9YcTro1
4VPR9ysSsAkPEoz7O5KdRWkERxgeG1xLpHtAhRpIhvrQwlIoVDT+
-----END CERTIFICATE-----
