Certificate:
    Data:
        Version: 3 (0x2)
        Serial Number:
            65:cc:0b:e9:74:b7:45:d0:d9:c7:ef:20:b5:f7:45:24:23:46:2d:27
        Signature Algorithm: sha1WithRSAEncryption
        Issuer: C=AU, O=Dodgy Brothers, CN=Dodgy CA
        Validity
            Not Before: Sep 19 23:58:18 2024 GMT
            Not After : Sep 19 23:58:18 2025 GMT
        Subject: C=AU, O=Dodgy Brothers, CN=Brother 1, CN=notimes
        Subject Public Key Info:
            Public Key Algorithm: rsaEncryption
                Public-Key: (2048 bit)
                Modulus:
                    00:be:95:86:fa:71:4c:6a:ea:51:98:50:4b:99:a1:
                    2c:66:15:f3:60:f3:e1:ff:69:fb:ce:48:01:1d:fe:
                    e1:2c:38:b0:e3:bd:8f:4b:48:a7:7e:3a:c6:73:e3:
                    ab:bf:e1:da:6e:96:f5:fe:c3:e4:b4:a8:ad:bc:56:
                    34:d4:96:25:74:27:c3:10:db:35:10:25:1c:8e:4b:
                    81:9b:fb:42:04:7c:6f:3d:e2:38:6c:0e:e4:2e:8e:
                    2a:18:6d:30:cd:67:2a:23:6b:37:cf:05:9f:cc:b7:
                    59:58:7f:ba:c4:0a:3f:8c:a4:ad:cb:98:9c:c0:f2:
                    8f:69:67:0f:c1:4e:33:cf:fc:85:5e:bb:5e:cf:93:
                    b0:cf:d9:f4:52:79:87:b1:f8:4d:15:68:65:d5:b7:
                    19:08:63:7f:5e:b1:34:ad:05:8f:5a:f0:e4:e1:8f:
                    25:f2:5c:5c:61:95:b0:56:2d:31:2b:08:65:79:e5:
                    b1:3b:9d:3e:b9:52:4b:ac:5d:c4:58:66:85:8d:81:
                    b3:04:28:f4:3f:2f:ac:92:01:62:d5:fd:8e:0b:da:
                    02:0c:7a:c7:6e:09:1c:ac:1c:b2:4c:d7:54:b8:26:
                    33:b2:5f:14:f3:b1:f9:3d:62:4d:40:99:6b:b6:e7:
                    89:58:97:d6:d4:4d:ea:4b:68:52:f3:3c:a8:b1:35:
                    88:db
                Exponent: 65537 (0x10001)
        X509v3 extensions:
            X509v3 Subject Key Identifier: 
                A1:DF:33:C3:CF:3E:53:41:A7:68:44:CC:AA:19:E1:84:C9:0D:BC:C6
            X509v3 Authority Key Identifier: 
                keyid:B4:11:33:F1:D7:E2:5E:F7:53:9E:20:22:10:4F:86:06:BF:1F:C9:5E
                DirName:/C=AU/O=Dodgy Brothers/CN=Dodgy CA
                serial:30:96:C7:0A:A8:EE:18:78:C1:97:CE:D9:63:EE:A6:54:74:5A:86:F1
            X509v3 Basic Constraints: critical
                CA:TRUE, pathlen:1
            X509v3 Key Usage: 
                Certificate Sign, CRL Sign
            X509v3 Issuer Alternative Name: 
                <EMPTY>

    Signature Algorithm: sha1WithRSAEncryption
    Signature Value:
        20:51:f2:19:95:0a:c0:9a:3a:83:fd:69:8e:d6:56:7a:bb:1e:
        e5:d9:03:8f:ce:4c:1f:a3:a9:96:1c:fb:d8:98:eb:29:e9:e9:
        45:5c:7e:98:b6:84:a1:e1:62:67:f9:5d:14:5e:6f:2d:6d:db:
        ac:3e:26:39:c0:ab:f6:d2:ae:b7:5a:b5:01:b9:54:67:54:44:
        f8:c4:03:07:fb:42:8c:f9:2c:5f:97:a2:26:51:3e:8b:d5:45:
        6e:d3:bc:15:71:73:0d:cd:6d:55:43:17:ba:24:14:eb:b5:57:
        d2:16:c3:b1:0c:9e:45:7d:11:bd:24:b6:0d:70:fa:6a:1f:26:
        48:23:68:8a:0c:ff:85:05:34:c1:79:71:0c:64:14:d7:50:b2:
        b4:11:96:65:11:47:cb:de:20:45:8c:00:7a:05:43:3a:6d:8a:
        d6:24:f6:fa:bc:13:a9:1e:ba:43:51:ac:1d:83:95:f4:39:ac:
        cc:63:aa:50:1e:8f:0f:44:89:bf:94:b6:3a:59:4f:fa:11:ea:
        fd:ef:4b:90:06:ad:a6:2e:4a:04:29:f1:dd:4d:78:c1:2f:0f:
        31:ec:1e:73:74:ab:55:a0:98:77:fc:bd:58:27:f1:9d:d4:e3:
        b3:2d:d5:7b:23:af:56:af:e5:d6:8b:2a:c5:16:55:ba:38:4f:
        88:db:f3:39
-----BEGIN CERTIFICATE-----
MIID2DCCAsCgAwIBAgIUZcwL6XS3RdDZx+8gtfdFJCNGLScwDQYJKoZIhvcNAQEF
BQAwOTELMAkGA1UEBhMCQVUxFzAVBgNVBAoMDkRvZGd5IEJyb3RoZXJzMREwDwYD
VQQDDAhEb2RneSBDQTAeFw0yNDA5MTkyMzU4MThaFw0yNTA5MTkyMzU4MThaMEwx
CzAJBgNVBAYTAkFVMRcwFQYDVQQKDA5Eb2RneSBCcm90aGVyczESMBAGA1UEAwwJ
QnJvdGhlciAxMRAwDgYDVQQDDAdub3RpbWVzMIIBIjANBgkqhkiG9w0BAQEFAAOC
AQ8AMIIBCgKCAQEAvpWG+nFMaupRmFBLmaEsZhXzYPPh/2n7zkgBHf7hLDiw472P
S0infjrGc+Orv+Habpb1/sPktKitvFY01JYldCfDENs1ECUcjkuBm/tCBHxvPeI4
bA7kLo4qGG0wzWcqI2s3zwWfzLdZWH+6xAo/jKSty5icwPKPaWcPwU4zz/yFXrte
z5Owz9n0UnmHsfhNFWhl1bcZCGN/XrE0rQWPWvDk4Y8l8lxcYZWwVi0xKwhleeWx
O50+uVJLrF3EWGaFjYGzBCj0Py+skgFi1f2OC9oCDHrHbgkcrByyTNdUuCYzsl8U
87H5PWJNQJlrtueJWJfW1E3qS2hS8zyosTWI2wIDAQABo4HEMIHBMB0GA1UdDgQW
BBSh3zPDzz5TQadoRMyqGeGEyQ28xjB0BgNVHSMEbTBrgBS0ETPx1+Je91OeICIQ
T4YGvx/JXqE9pDswOTELMAkGA1UEBhMCQVUxFzAVBgNVBAoMDkRvZGd5IEJyb3Ro
ZXJzMREwDwYDVQQDDAhEb2RneSBDQYIUMJbHCqjuGHjBl87ZY+6mVHRahvEwEgYD
VR0TAQH/BAgwBgEB/wIBATALBgNVHQ8EBAMCAQYwCQYDVR0SBAIwADANBgkqhkiG
9w0BAQUFAAOCAQEAIFHyGZUKwJo6g/1pjtZWerse5dkDj85MH6Oplhz72JjrKenp
RVx+mLaEoeFiZ/ldFF5vLW3brD4mOcCr9tKut1q1AblUZ1RE+MQDB/tCjPksX5ei
JlE+i9VFbtO8FXFzDc1tVUMXuiQU67VX0hbDsQyeRX0RvSS2DXD6ah8mSCNoigz/
hQU0wXlxDGQU11CytBGWZRFHy94gRYwAegVDOm2K1iT2+rwTqR66Q1GsHYOV9Dms
zGOqUB6PD0SJv5S2OllP+hHq/e9LkAatpi5KBCnx3U14wS8PMewec3SrVaCYd/y9
WCfxndTjsy3VeyOvVq/l1osqxRZVujhPiNvzOQ==
-----END CERTIFICATE-----
