Certificate:
    Data:
        Version: 3 (0x2)
        Serial Number:
            59:69:af:84:7e:66:14:d8:46:e9:d2:53:2a:9a:7a:b7:65:0d:29:91
        Signature Algorithm: sha1WithRSAEncryption
        Issuer: C=AU, O=Dodgy Brothers, CN=Dodgy CA
        Validity
            Not Before: Sep 11 01:11:16 2024 GMT
            Not After : Sep 11 01:11:16 2025 GMT
        Subject: C=AU, O=Dodgy Brothers, CN=Brother 1, CN=notimes
        Subject Public Key Info:
            Public Key Algorithm: rsaEncryption
                Public-Key: (2048 bit)
                Modulus:
                    00:be:95:86:fa:71:4c:6a:ea:51:98:50:4b:99:a1:
                    2c:66:15:f3:60:f3:e1:ff:69:fb:ce:48:01:1d:fe:
                    e1:2c:38:b0:e3:bd:8f:4b:48:a7:7e:3a:c6:73:e3:
                    ab:bf:e1:da:6e:96:f5:fe:c3:e4:b4:a8:ad:bc:56:
                    34:d4:96:25:74:27:c3:10:db:35:10:25:1c:8e:4b:
                    81:9b:fb:42:04:7c:6f:3d:e2:38:6c:0e:e4:2e:8e:
                    2a:18:6d:30:cd:67:2a:23:6b:37:cf:05:9f:cc:b7:
                    59:58:7f:ba:c4:0a:3f:8c:a4:ad:cb:98:9c:c0:f2:
                    8f:69:67:0f:c1:4e:33:cf:fc:85:5e:bb:5e:cf:93:
                    b0:cf:d9:f4:52:79:87:b1:f8:4d:15:68:65:d5:b7:
                    19:08:63:7f:5e:b1:34:ad:05:8f:5a:f0:e4:e1:8f:
                    25:f2:5c:5c:61:95:b0:56:2d:31:2b:08:65:79:e5:
                    b1:3b:9d:3e:b9:52:4b:ac:5d:c4:58:66:85:8d:81:
                    b3:04:28:f4:3f:2f:ac:92:01:62:d5:fd:8e:0b:da:
                    02:0c:7a:c7:6e:09:1c:ac:1c:b2:4c:d7:54:b8:26:
                    33:b2:5f:14:f3:b1:f9:3d:62:4d:40:99:6b:b6:e7:
                    89:58:97:d6:d4:4d:ea:4b:68:52:f3:3c:a8:b1:35:
                    88:db
                Exponent: 65537 (0x10001)
        X509v3 extensions:
            X509v3 Subject Key Identifier: 
                A1:DF:33:C3:CF:3E:53:41:A7:68:44:CC:AA:19:E1:84:C9:0D:BC:C6
            X509v3 Authority Key Identifier: 
                keyid:B4:11:33:F1:D7:E2:5E:F7:53:9E:20:22:10:4F:86:06:BF:1F:C9:5E
                DirName:/C=AU/O=Dodgy Brothers/CN=Dodgy CA
                serial:36:5D:75:35:1E:45:10:A3:8C:19:FC:86:AF:6C:C7:53:22:FE:2E:37
            X509v3 Basic Constraints: critical
                CA:TRUE, pathlen:1
            X509v3 Key Usage: 
                Certificate Sign, CRL Sign
            X509v3 Issuer Alternative Name: 
                <EMPTY>

    Signature Algorithm: sha1WithRSAEncryption
    Signature Value:
        40:2f:04:c1:1a:c4:82:89:e6:11:97:5a:7d:c4:d7:c3:2b:e1:
        3b:9c:b4:7b:4e:e7:c6:f0:2b:77:70:98:a7:43:1e:7a:80:18:
        f5:8f:9b:5e:4f:e0:34:fd:c8:fc:47:ac:a0:78:e4:2c:0f:76:
        34:76:2f:a1:19:18:4c:74:c6:e4:17:b9:01:05:a0:e8:64:12:
        f3:0a:f5:97:99:53:c9:c1:2b:5b:1f:7b:4c:93:90:6f:ea:d1:
        ed:d4:45:02:e9:9d:d1:4d:95:cd:d5:87:9c:8b:f1:33:b4:1f:
        71:12:9d:10:97:c0:6c:ad:b3:cd:06:9c:12:73:fb:43:f4:62:
        00:27:b6:40:57:db:b4:51:ab:3f:d3:7c:ff:19:4f:d2:1f:1f:
        2f:1c:d9:c7:72:2c:a4:91:4f:a4:6e:b5:cb:3e:a2:27:70:6f:
        90:33:5a:1b:d9:c6:63:ae:1d:2e:05:0f:69:87:67:85:90:0f:
        7b:10:32:f6:24:3c:9d:99:d2:40:67:84:e3:d3:90:52:14:cd:
        1e:e2:c0:c8:be:17:2b:cc:01:bf:24:55:2e:21:ad:16:79:40:
        b3:86:15:46:2c:ca:16:10:e0:be:60:4e:5c:a6:29:6d:24:50:
        7b:6b:98:8c:f9:98:52:12:d4:82:bc:85:cd:41:47:e9:14:cd:
        42:f7:42:ef
-----BEGIN CERTIFICATE-----
MIID2DCCAsCgAwIBAgIUWWmvhH5mFNhG6dJTKpp6t2UNKZEwDQYJKoZIhvcNAQEF
BQAwOTELMAkGA1UEBhMCQVUxFzAVBgNVBAoMDkRvZGd5IEJyb3RoZXJzMREwDwYD
VQQDDAhEb2RneSBDQTAeFw0yNDA5MTEwMTExMTZaFw0yNTA5MTEwMTExMTZaMEwx
CzAJBgNVBAYTAkFVMRcwFQYDVQQKDA5Eb2RneSBCcm90aGVyczESMBAGA1UEAwwJ
QnJvdGhlciAxMRAwDgYDVQQDDAdub3RpbWVzMIIBIjANBgkqhkiG9w0BAQEFAAOC
AQ8AMIIBCgKCAQEAvpWG+nFMaupRmFBLmaEsZhXzYPPh/2n7zkgBHf7hLDiw472P
S0infjrGc+Orv+Habpb1/sPktKitvFY01JYldCfDENs1ECUcjkuBm/tCBHxvPeI4
bA7kLo4qGG0wzWcqI2s3zwWfzLdZWH+6xAo/jKSty5icwPKPaWcPwU4zz/yFXrte
z5Owz9n0UnmHsfhNFWhl1bcZCGN/XrE0rQWPWvDk4Y8l8lxcYZWwVi0xKwhleeWx
O50+uVJLrF3EWGaFjYGzBCj0Py+skgFi1f2OC9oCDHrHbgkcrByyTNdUuCYzsl8U
87H5PWJNQJlrtueJWJfW1E3qS2hS8zyosTWI2wIDAQABo4HEMIHBMB0GA1UdDgQW
BBSh3zPDzz5TQadoRMyqGeGEyQ28xjB0BgNVHSMEbTBrgBS0ETPx1+Je91OeICIQ
T4YGvx/JXqE9pDswOTELMAkGA1UEBhMCQVUxFzAVBgNVBAoMDkRvZGd5IEJyb3Ro
ZXJzMREwDwYDVQQDDAhEb2RneSBDQYIUNl11NR5FEKOMGfyGr2zHUyL+LjcwEgYD
VR0TAQH/BAgwBgEB/wIBATALBgNVHQ8EBAMCAQYwCQYDVR0SBAIwADANBgkqhkiG
9w0BAQUFAAOCAQEAQC8EwRrEgonmEZdafcTXwyvhO5y0e07nxvArd3CYp0MeeoAY
9Y+bXk/gNP3I/EesoHjkLA92NHYvoRkYTHTG5Be5AQWg6GQS8wr1l5lTycErWx97
TJOQb+rR7dRFAumd0U2VzdWHnIvxM7QfcRKdEJfAbK2zzQacEnP7Q/RiACe2QFfb
tFGrP9N8/xlP0h8fLxzZx3IspJFPpG61yz6iJ3BvkDNaG9nGY64dLgUPaYdnhZAP
exAy9iQ8nZnSQGeE49OQUhTNHuLAyL4XK8wBvyRVLiGtFnlAs4YVRizKFhDgvmBO
XKYpbSRQe2uYjPmYUhLUgryFzUFH6RTNQvdC7w==
-----END CERTIFICATE-----
