Certificate:
    Data:
        Version: 3 (0x2)
        Serial Number:
            59:69:af:84:7e:66:14:d8:46:e9:d2:53:2a:9a:7a:b7:65:0d:29:90
        Signature Algorithm: sha1WithRSAEncryption
        Issuer: C=AU, O=Dodgy Brothers, CN=Dodgy CA
        Validity
            Not Before: Sep 11 01:11:16 2024 GMT
            Not After : Sep 11 01:11:16 2025 GMT
        Subject: CN=x509-check-test
        Subject Public Key Info:
            Public Key Algorithm: rsaEncryption
                Public-Key: (2048 bit)
                Modulus:
                    00:9d:ea:3a:60:16:23:3f:65:6e:9d:08:99:44:23:
                    19:8a:93:ba:c7:ec:c4:4b:f7:7c:16:df:6a:39:76:
                    e4:f0:b5:3d:5c:b3:fc:be:ca:57:de:cb:49:79:b5:
                    80:73:18:cc:63:50:f3:5e:60:64:c1:aa:2b:b3:ea:
                    e7:95:c8:cb:db:7b:7c:32:99:73:e9:fb:3c:e8:6a:
                    ad:e2:7f:72:72:71:bf:b5:82:ea:d2:ca:24:29:17:
                    a4:f5:3c:b9:9f:24:38:10:41:3d:17:9c:8e:ea:47:
                    01:c8:e4:52:53:bc:a3:3d:9a:9b:f7:88:aa:21:06:
                    c7:93:fd:af:32:7d:d9:36:ef:31:58:ad:23:19:8d:
                    f6:aa:65:cf:b4:6b:5f:1b:1e:2f:d2:80:d3:77:e8:
                    b8:fe:be:73:dc:b3:60:f3:4b:cc:a6:04:9d:74:66:
                    ae:a2:73:2e:b1:2f:7d:2c:1c:32:8f:38:a2:ab:0f:
                    cf:84:27:ab:2e:52:6e:42:a4:b2:f8:37:a8:cf:3a:
                    69:3d:0e:3e:d7:42:fd:98:c2:85:f6:4b:46:2c:e9:
                    d1:69:1e:e1:81:27:53:67:80:15:bf:d1:99:bd:a2:
                    c7:83:3b:1c:6a:a6:53:c6:21:86:bc:9c:de:c1:22:
                    b4:f0:00:91:21:92:62:93:12:2f:4f:f0:03:c8:8b:
                    a0:d5
                Exponent: 65537 (0x10001)
        X509v3 extensions:
            X509v3 Subject Key Identifier: 
                BF:D8:68:6F:B9:F3:A1:9A:3C:92:2E:40:E7:F8:72:A8:92:89:37:7E
            X509v3 Authority Key Identifier: 
                B4:11:33:F1:D7:E2:5E:F7:53:9E:20:22:10:4F:86:06:BF:1F:C9:5E
    Signature Algorithm: sha1WithRSAEncryption
    Signature Value:
        0a:a0:46:e1:c2:f7:da:5c:a7:cf:a3:79:34:ab:52:0f:ec:1f:
        80:d3:bc:21:d3:2d:19:3e:f7:72:2d:25:f6:d7:9c:b9:5e:d4:
        04:ec:b7:27:fe:6e:50:b8:5d:bd:b4:0d:41:c6:fe:03:0b:02:
        2e:34:fd:ab:a5:78:55:80:e6:54:78:f9:90:dc:2d:67:68:78:
        14:90:d0:b5:7a:6f:91:54:2b:83:f0:27:25:df:5c:75:5e:3a:
        11:25:ac:4e:ad:10:e0:d9:98:5a:70:ac:e4:c5:34:36:35:d5:
        cf:cb:27:84:b8:05:8a:1a:cc:47:38:95:89:84:2b:6b:73:59:
        8b:0c:de:c5:e4:af:3d:88:d4:fb:14:ef:d6:64:d2:cb:9b:2c:
        d4:0f:59:7b:d9:2b:77:70:89:10:66:c5:59:6b:57:fc:5c:61:
        1f:92:22:9f:64:a7:16:d3:92:c5:58:6f:7c:bb:34:3b:08:3e:
        ed:c6:31:6e:a8:39:b5:b0:4f:14:c7:d5:fc:77:51:67:7d:73:
        8a:dd:f5:18:57:31:6e:6a:6f:99:78:97:95:59:7a:29:7f:b8:
        f9:ac:6e:d7:60:42:63:fe:0f:cc:be:65:b5:33:d7:56:ba:97:
        2c:40:9c:99:d0:a3:13:09:21:37:66:42:46:7d:4c:33:e6:5b:
        a7:3a:45:86
-----BEGIN CERTIFICATE-----
MIIDIzCCAgugAwIBAgIUWWmvhH5mFNhG6dJTKpp6t2UNKZAwDQYJKoZIhvcNAQEF
BQAwOTELMAkGA1UEBhMCQVUxFzAVBgNVBAoMDkRvZGd5IEJyb3RoZXJzMREwDwYD
VQQDDAhEb2RneSBDQTAeFw0yNDA5MTEwMTExMTZaFw0yNTA5MTEwMTExMTZaMBox
GDAWBgNVBAMMD3g1MDktY2hlY2stdGVzdDCCASIwDQYJKoZIhvcNAQEBBQADggEP
ADCCAQoCggEBAJ3qOmAWIz9lbp0ImUQjGYqTusfsxEv3fBbfajl25PC1PVyz/L7K
V97LSXm1gHMYzGNQ815gZMGqK7Pq55XIy9t7fDKZc+n7POhqreJ/cnJxv7WC6tLK
JCkXpPU8uZ8kOBBBPRecjupHAcjkUlO8oz2am/eIqiEGx5P9rzJ92TbvMVitIxmN
9qplz7RrXxseL9KA03fouP6+c9yzYPNLzKYEnXRmrqJzLrEvfSwcMo84oqsPz4Qn
qy5SbkKksvg3qM86aT0OPtdC/ZjChfZLRizp0Wke4YEnU2eAFb/Rmb2ix4M7HGqm
U8Yhhryc3sEitPAAkSGSYpMSL0/wA8iLoNUCAwEAAaNCMEAwHQYDVR0OBBYEFL/Y
aG+586GaPJIuQOf4cqiSiTd+MB8GA1UdIwQYMBaAFLQRM/HX4l73U54gIhBPhga/
H8leMA0GCSqGSIb3DQEBBQUAA4IBAQAKoEbhwvfaXKfPo3k0q1IP7B+A07wh0y0Z
PvdyLSX215y5XtQE7Lcn/m5QuF29tA1Bxv4DCwIuNP2rpXhVgOZUePmQ3C1naHgU
kNC1em+RVCuD8Ccl31x1XjoRJaxOrRDg2ZhacKzkxTQ2NdXPyyeEuAWKGsxHOJWJ
hCtrc1mLDN7F5K89iNT7FO/WZNLLmyzUD1l72St3cIkQZsVZa1f8XGEfkiKfZKcW
05LFWG98uzQ7CD7txjFuqDm1sE8Ux9X8d1FnfXOK3fUYVzFuam+ZeJeVWXopf7j5
rG7XYEJj/g/MvmW1M9dWupcsQJyZ0KMTCSE3ZkJGfUwz5lunOkWG
-----END CERTIFICATE-----
